

Microchip MPLAB XC8 Assembler V2.41 build 20230208172133 
                                                                                               Fri Nov 03 15:30:58 2023

Microchip MPLAB XC8 C Compiler v2.41 (Free license) build 20230208172133 Og1 
     1                           	processor	16F887
     2                           	pagewidth 120
     3                           	opt	flic
     4                           	psect	strings,global,class=STRING,delta=2,noexec
     5                           	psect	cinit,global,class=CODE,merge=1,delta=2
     6                           	psect	bssBANK1,global,class=BANK1,space=1,delta=1,noexec
     7                           	psect	clrtext,global,class=CODE,delta=2
     8                           	psect	cstackBANK1,global,class=BANK1,space=1,delta=1,noexec
     9                           	psect	cstackCOMMON,global,class=COMMON,space=1,delta=1,noexec
    10                           	psect	cstackBANK0,global,class=BANK0,space=1,delta=1,noexec
    11                           	psect	maintext,global,class=CODE,split=1,delta=2
    12                           	psect	text1,local,class=CODE,merge=1,delta=2,group=1
    13                           	psect	text2,local,class=CODE,merge=1,delta=2,group=2
    14                           	psect	text3,local,class=CODE,merge=1,delta=2,group=2
    15                           	psect	text4,local,class=CODE,merge=1,delta=2
    16                           	psect	text5,local,class=CODE,merge=1,delta=2,group=3
    17                           	psect	text6,local,class=CODE,merge=1,delta=2,group=3
    18                           	psect	text7,local,class=CODE,merge=1,delta=2,group=2
    19                           	psect	text8,local,class=CODE,merge=1,delta=2,group=3
    20                           	psect	text9,local,class=CODE,merge=1,delta=2,group=2
    21                           	psect	text10,local,class=CODE,merge=1,delta=2,group=2
    22                           	psect	text11,local,class=CODE,merge=1,delta=2,group=2
    23                           	psect	text12,local,class=CODE,merge=1,delta=2,group=2
    24                           	psect	text13,local,class=CODE,merge=1,delta=2,group=2
    25                           	psect	text14,local,class=CODE,merge=1,delta=2,group=2
    26                           	psect	text15,local,class=CODE,merge=1,delta=2,group=2
    27                           	psect	text16,local,class=CODE,merge=1,delta=2
    28                           	psect	text17,local,class=CODE,merge=1,delta=2
    29                           	psect	text18,local,class=CODE,merge=1,delta=2
    30                           	psect	text19,local,class=CODE,merge=1,delta=2
    31                           	psect	text20,local,class=CODE,merge=1,delta=2
    32                           	psect	text21,local,class=CODE,merge=1,delta=2
    33                           	psect	text22,local,class=CODE,merge=1,delta=2
    34                           	psect	text23,local,class=CODE,merge=1,delta=2
    35                           	psect	config,global,abs,ovrld,class=CONFIG,space=4,delta=2,noexec
    36                           	dabs	1,0x7E,2
    37     0000                     
    38                           ; Version 2.20
    39                           ; Generated 12/02/2020 GMT
    40                           ; 
    41                           ; Copyright © 2020, Microchip Technology Inc. and its subsidiaries ("Microchip")
    42                           ; All rights reserved.
    43                           ; 
    44                           ; This software is developed by Microchip Technology Inc. and its subsidiaries ("Microch
      +                          ip").
    45                           ; 
    46                           ; Redistribution and use in source and binary forms, with or without modification, are
    47                           ; permitted provided that the following conditions are met:
    48                           ; 
    49                           ;     1. Redistributions of source code must retain the above copyright notice, this lis
      +                          t of
    50                           ;        conditions and the following disclaimer.
    51                           ; 
    52                           ;     2. Redistributions in binary form must reproduce the above copyright notice, this 
      +                          list
    53                           ;        of conditions and the following disclaimer in the documentation and/or other
    54                           ;        materials provided with the distribution.
    55                           ; 
    56                           ;     3. Microchip's name may not be used to endorse or promote products derived from th
      +                          is
    57                           ;        software without specific prior written permission.
    58                           ; 
    59                           ; THIS SOFTWARE IS PROVIDED BY MICROCHIP "AS IS" AND ANY EXPRESS OR IMPLIED WARRANTIES,
    60                           ; INCLUDING, BUT NOT LIMITED TO, THE IMPLIED WARRANTIES OF MERCHANTABILITY AND FITNESS F
      +                          OR
    61                           ; PURPOSE ARE DISCLAIMED.  IN NO EVENT SHALL MICROCHIP BE LIABLE FOR ANY DIRECT, INDIREC
      +                          T,
    62                           ; INCIDENTAL, SPECIAL, EXEMPLARY, OR CONSEQUENTIAL DAMAGES (INCLUDING BUT NOT LIMITED TO
    63                           ; PROCUREMENT OF SUBSTITUTE GOODS OR SERVICES; LOSS OF USE, DATA OR PROFITS; OR BUSINESS
    64                           ; INTERRUPTION) HOWSOEVER CAUSED AND ON ANY THEORY OF LIABILITY, WHETHER IN CONTRACT, ST
      +                          RICT
    65                           ; LIABILITY, OR TORT (INCLUDING NEGLIGENCE OR OTHERWISE) ARISING IN ANY WAY OUT OF THE U
      +                          SE OF
    66                           ; THIS SOFTWARE, EVEN IF ADVISED OF THE POSSIBILITY OF SUCH DAMAGE.
    67                           ; 
    68                           ; 
    69                           ; Code-generator required, PIC16F887 Definitions
    70                           ; 
    71                           ; SFR Addresses
    72     0000                     	;# 
    73     0001                     	;# 
    74     0002                     	;# 
    75     0003                     	;# 
    76     0004                     	;# 
    77     0005                     	;# 
    78     0006                     	;# 
    79     0007                     	;# 
    80     0008                     	;# 
    81     0009                     	;# 
    82     000A                     	;# 
    83     000B                     	;# 
    84     000C                     	;# 
    85     000D                     	;# 
    86     000E                     	;# 
    87     000E                     	;# 
    88     000F                     	;# 
    89     0010                     	;# 
    90     0011                     	;# 
    91     0012                     	;# 
    92     0013                     	;# 
    93     0014                     	;# 
    94     0015                     	;# 
    95     0015                     	;# 
    96     0016                     	;# 
    97     0017                     	;# 
    98     0018                     	;# 
    99     0019                     	;# 
   100     001A                     	;# 
   101     001B                     	;# 
   102     001B                     	;# 
   103     001C                     	;# 
   104     001D                     	;# 
   105     001E                     	;# 
   106     001F                     	;# 
   107     0081                     	;# 
   108     0085                     	;# 
   109     0086                     	;# 
   110     0087                     	;# 
   111     0088                     	;# 
   112     0089                     	;# 
   113     008C                     	;# 
   114     008D                     	;# 
   115     008E                     	;# 
   116     008F                     	;# 
   117     0090                     	;# 
   118     0091                     	;# 
   119     0092                     	;# 
   120     0093                     	;# 
   121     0093                     	;# 
   122     0093                     	;# 
   123     0094                     	;# 
   124     0095                     	;# 
   125     0096                     	;# 
   126     0097                     	;# 
   127     0098                     	;# 
   128     0099                     	;# 
   129     009A                     	;# 
   130     009B                     	;# 
   131     009C                     	;# 
   132     009D                     	;# 
   133     009E                     	;# 
   134     009F                     	;# 
   135     0105                     	;# 
   136     0107                     	;# 
   137     0108                     	;# 
   138     0109                     	;# 
   139     010C                     	;# 
   140     010C                     	;# 
   141     010D                     	;# 
   142     010E                     	;# 
   143     010F                     	;# 
   144     0185                     	;# 
   145     0187                     	;# 
   146     0188                     	;# 
   147     0189                     	;# 
   148     018C                     	;# 
   149     018D                     	;# 
   150     0000                     	;# 
   151     0001                     	;# 
   152     0002                     	;# 
   153     0003                     	;# 
   154     0004                     	;# 
   155     0005                     	;# 
   156     0006                     	;# 
   157     0007                     	;# 
   158     0008                     	;# 
   159     0009                     	;# 
   160     000A                     	;# 
   161     000B                     	;# 
   162     000C                     	;# 
   163     000D                     	;# 
   164     000E                     	;# 
   165     000E                     	;# 
   166     000F                     	;# 
   167     0010                     	;# 
   168     0011                     	;# 
   169     0012                     	;# 
   170     0013                     	;# 
   171     0014                     	;# 
   172     0015                     	;# 
   173     0015                     	;# 
   174     0016                     	;# 
   175     0017                     	;# 
   176     0018                     	;# 
   177     0019                     	;# 
   178     001A                     	;# 
   179     001B                     	;# 
   180     001B                     	;# 
   181     001C                     	;# 
   182     001D                     	;# 
   183     001E                     	;# 
   184     001F                     	;# 
   185     0081                     	;# 
   186     0085                     	;# 
   187     0086                     	;# 
   188     0087                     	;# 
   189     0088                     	;# 
   190     0089                     	;# 
   191     008C                     	;# 
   192     008D                     	;# 
   193     008E                     	;# 
   194     008F                     	;# 
   195     0090                     	;# 
   196     0091                     	;# 
   197     0092                     	;# 
   198     0093                     	;# 
   199     0093                     	;# 
   200     0093                     	;# 
   201     0094                     	;# 
   202     0095                     	;# 
   203     0096                     	;# 
   204     0097                     	;# 
   205     0098                     	;# 
   206     0099                     	;# 
   207     009A                     	;# 
   208     009B                     	;# 
   209     009C                     	;# 
   210     009D                     	;# 
   211     009E                     	;# 
   212     009F                     	;# 
   213     0105                     	;# 
   214     0107                     	;# 
   215     0108                     	;# 
   216     0109                     	;# 
   217     010C                     	;# 
   218     010C                     	;# 
   219     010D                     	;# 
   220     010E                     	;# 
   221     010F                     	;# 
   222     0185                     	;# 
   223     0187                     	;# 
   224     0188                     	;# 
   225     0189                     	;# 
   226     018C                     	;# 
   227     018D                     	;# 
   228     0000                     	;# 
   229     0001                     	;# 
   230     0002                     	;# 
   231     0003                     	;# 
   232     0004                     	;# 
   233     0005                     	;# 
   234     0006                     	;# 
   235     0007                     	;# 
   236     0008                     	;# 
   237     0009                     	;# 
   238     000A                     	;# 
   239     000B                     	;# 
   240     000C                     	;# 
   241     000D                     	;# 
   242     000E                     	;# 
   243     000E                     	;# 
   244     000F                     	;# 
   245     0010                     	;# 
   246     0011                     	;# 
   247     0012                     	;# 
   248     0013                     	;# 
   249     0014                     	;# 
   250     0015                     	;# 
   251     0015                     	;# 
   252     0016                     	;# 
   253     0017                     	;# 
   254     0018                     	;# 
   255     0019                     	;# 
   256     001A                     	;# 
   257     001B                     	;# 
   258     001B                     	;# 
   259     001C                     	;# 
   260     001D                     	;# 
   261     001E                     	;# 
   262     001F                     	;# 
   263     0081                     	;# 
   264     0085                     	;# 
   265     0086                     	;# 
   266     0087                     	;# 
   267     0088                     	;# 
   268     0089                     	;# 
   269     008C                     	;# 
   270     008D                     	;# 
   271     008E                     	;# 
   272     008F                     	;# 
   273     0090                     	;# 
   274     0091                     	;# 
   275     0092                     	;# 
   276     0093                     	;# 
   277     0093                     	;# 
   278     0093                     	;# 
   279     0094                     	;# 
   280     0095                     	;# 
   281     0096                     	;# 
   282     0097                     	;# 
   283     0098                     	;# 
   284     0099                     	;# 
   285     009A                     	;# 
   286     009B                     	;# 
   287     009C                     	;# 
   288     009D                     	;# 
   289     009E                     	;# 
   290     009F                     	;# 
   291     0105                     	;# 
   292     0107                     	;# 
   293     0108                     	;# 
   294     0109                     	;# 
   295     010C                     	;# 
   296     010C                     	;# 
   297     010D                     	;# 
   298     010E                     	;# 
   299     010F                     	;# 
   300     0185                     	;# 
   301     0187                     	;# 
   302     0188                     	;# 
   303     0189                     	;# 
   304     018C                     	;# 
   305     018D                     	;# 
   306                           
   307                           	psect	strings
   308     0800                     __pstrings:
   309     0800                     stringtab:
   310     0800                     __stringtab:
   311                           
   312                           ;	String table - string pointers are 1 byte each
   313     0800  1BFF               	btfsc	btemp+1,7
   314     0801  280A               	ljmp	stringcode
   315     0802  1383               	bcf	3,7
   316     0803  187F               	btfsc	btemp+1,0
   317     0804  1783               	bsf	3,7
   318     0805  0800               	movf	0,w
   319     0806  0A84               	incf	4,f
   320     0807  1903               	skipnz
   321     0808  0AFF               	incf	btemp+1,f
   322     0809  0008               	return
   323     080A                     stringcode:
   324     080A                     stringdir:
   325     080A  3008               	movlw	high stringdir
   326     080B  008A               	movwf	10
   327     080C  0804               	movf	4,w
   328     080D  0A84               	incf	4,f
   329     080E  0782               	addwf	2,f
   330     080F                     __stringbase:
   331     080F  3400               	retlw	0
   332     0810                     __end_of__stringtab:
   333     0810                     _dpowers:
   334     0810  3401               	retlw	1
   335     0811  3400               	retlw	0
   336     0812  340A               	retlw	10
   337     0813  3400               	retlw	0
   338     0814  3464               	retlw	100
   339     0815  3400               	retlw	0
   340     0816  34E8               	retlw	232
   341     0817  3403               	retlw	3
   342     0818  3410               	retlw	16
   343     0819  3427               	retlw	39
   344     081A                     __end_of_dpowers:
   345     081A                     log@coeff:
   346     081A  3400               	retlw	0
   347     081B  3400               	retlw	0
   348     081C  3400               	retlw	0
   349     081D  3400               	retlw	0
   350     081E  34C4               	retlw	196
   351     081F  34FF               	retlw	255
   352     0820  347F               	retlw	127
   353     0821  343F               	retlw	63
   354     0822  3480               	retlw	128
   355     0823  34EF               	retlw	239
   356     0824  34FF               	retlw	255
   357     0825  34BE               	retlw	190
   358     0826  3490               	retlw	144
   359     0827  34E1               	retlw	225
   360     0828  34A9               	retlw	169
   361     0829  343E               	retlw	62
   362     082A  34EC               	retlw	236
   363     082B  3482               	retlw	130
   364     082C  3476               	retlw	118
   365     082D  34BE               	retlw	190
   366     082E  3482               	retlw	130
   367     082F  34AD               	retlw	173
   368     0830  342B               	retlw	43
   369     0831  343E               	retlw	62
   370     0832  340E               	retlw	14
   371     0833  343C               	retlw	60
   372     0834  34C3               	retlw	195
   373     0835  34BD               	retlw	189
   374     0836  3487               	retlw	135
   375     0837  34D1               	retlw	209
   376     0838  3413               	retlw	19
   377     0839  343D               	retlw	61
   378     083A  3441               	retlw	65
   379     083B  3478               	retlw	120
   380     083C  34D3               	retlw	211
   381     083D  34BB               	retlw	187
   382     083E                     __end_oflog@coeff:
   383     0008                     _PORTD	set	8
   384     001E                     _ADRESH	set	30
   385     001F                     _ADCON0bits	set	31
   386     0041                     _RD1	set	65
   387     0040                     _RD0	set	64
   388     009E                     _ADRESL	set	158
   389     009F                     _ADCON1bits	set	159
   390     0085                     _TRISA	set	133
   391     0088                     _TRISD	set	136
   392     008F                     _OSCCON	set	143
   393     0188                     _ANSEL	set	392
   394     083E                     STR_1:
   395     083E  3463               	retlw	99	;'c'
   396     083F  346F               	retlw	111	;'o'
   397     0840  346E               	retlw	110	;'n'
   398     0841  3464               	retlw	100	;'d'
   399     0842  3420               	retlw	32	;' '
   400     0843  3461               	retlw	97	;'a'
   401     0844  346D               	retlw	109	;'m'
   402     0845  3462               	retlw	98	;'b'
   403     0846  3469               	retlw	105	;'i'
   404     0847  3465               	retlw	101	;'e'
   405     0848  346E               	retlw	110	;'n'
   406     0849  3474               	retlw	116	;'t'
   407     084A  3461               	retlw	97	;'a'
   408     084B  346C               	retlw	108	;'l'
   409     084C  3465               	retlw	101	;'e'
   410     084D  3473               	retlw	115	;'s'
   411     084E  3400               	retlw	0
   412     084F                     STR_2:
   413     084F  3450               	retlw	80	;'P'
   414     0850  343D               	retlw	61	;'='
   415     0851  3425               	retlw	37	;'%'
   416     0852  3464               	retlw	100	;'d'
   417     0853  342C               	retlw	44	;','
   418     0854  3454               	retlw	84	;'T'
   419     0855  343D               	retlw	61	;'='
   420     0856  3425               	retlw	37	;'%'
   421     0857  3464               	retlw	100	;'d'
   422     0858  3400               	retlw	0
   423     0859                     STR_3:
   424     0859  344C               	retlw	76	;'L'
   425     085A  343D               	retlw	61	;'='
   426     085B  3425               	retlw	37	;'%'
   427     085C  3464               	retlw	100	;'d'
   428     085D  3400               	retlw	0
   429                           
   430                           	psect	cinit
   431     07F3                     start_initialization:	
   432                           ; #config settings
   433                           
   434     07F3                     __initialization:
   435                           
   436                           ; Clear objects allocated to BANK1
   437     07F3  1383               	bcf	3,7	;select IRP bank0
   438     07F4  30D5               	movlw	low __pbssBANK1
   439     07F5  0084               	movwf	4
   440     07F6  30EE               	movlw	low (__pbssBANK1+25)
   441     07F7  120A  158A  2061  120A  118A  	fcall	clear_ram0
   442     07FC                     end_of_initialization:	
   443                           ;End of C runtime variable initialization code
   444                           
   445     07FC                     __end_of__initialization:
   446     07FC  0183               	clrf	3
   447     07FD  120A  158A  2B57   	ljmp	_main	;jump to C main() function
   448                           
   449                           	psect	bssBANK1
   450     00D5                     __pbssBANK1:
   451     00D5                     _errno:
   452     00D5                     	ds	2
   453     00D7                     _value_fotocelda:
   454     00D7                     	ds	2
   455     00D9                     _value_temperature:
   456     00D9                     	ds	2
   457     00DB                     _value_potenciometro:
   458     00DB                     	ds	2
   459     00DD                     _buffer:
   460     00DD                     	ds	17
   461                           
   462                           	psect	clrtext
   463     0861                     clear_ram0:	
   464                           ;	Called with FSR containing the base address, and
   465                           ;	W with the last address+1
   466                           
   467     0861  0064               	clrwdt	;clear the watchdog before getting into this loop
   468     0862                     clrloop0:
   469     0862  0180               	clrf	0	;clear RAM location pointed to by FSR
   470     0863  0A84               	incf	4,f	;increment pointer
   471     0864  0604               	xorwf	4,w	;XOR with final address
   472     0865  1903               	btfsc	3,2	;have we reached the end yet?
   473     0866  3400               	retlw	0	;all done for this memory range, return
   474     0867  0604               	xorwf	4,w	;XOR again to restore value
   475     0868  2862               	goto	clrloop0	;do the next byte
   476                           
   477                           	psect	cstackBANK1
   478     00A0                     __pcstackBANK1:
   479     00A0                     ?_eval_poly:
   480     00A0                     eval_poly@x:	
   481                           ; 4 bytes @ 0x0
   482                           
   483                           
   484                           ; 4 bytes @ 0x0
   485     00A0                     	ds	4
   486     00A4                     eval_poly@d:
   487                           
   488                           ; 1 bytes @ 0x4
   489     00A4                     	ds	1
   490     00A5                     eval_poly@n:
   491                           
   492                           ; 2 bytes @ 0x5
   493     00A5                     	ds	2
   494     00A7                     ??_eval_poly:
   495                           
   496                           ; 1 bytes @ 0x7
   497     00A7                     	ds	5
   498     00AC                     eval_poly@res:
   499                           
   500                           ; 4 bytes @ 0xC
   501     00AC                     	ds	4
   502     00B0                     ?_log:
   503     00B0                     log@x:	
   504                           ; 4 bytes @ 0x10
   505                           
   506                           
   507                           ; 4 bytes @ 0x10
   508     00B0                     	ds	4
   509     00B4                     ?_convertir_temperature:
   510     00B4                     convertir_temperature@temperature:	
   511                           ; 2 bytes @ 0x14
   512                           
   513                           
   514                           ; 2 bytes @ 0x14
   515     00B4                     	ds	2
   516     00B6                     ??_convertir_temperature:
   517                           
   518                           ; 1 bytes @ 0x16
   519     00B6                     	ds	2
   520     00B8                     convertir_temperature@a:
   521                           
   522                           ; 4 bytes @ 0x18
   523     00B8                     	ds	4
   524     00BC                     _convertir_temperature$896:
   525                           
   526                           ; 4 bytes @ 0x1C
   527     00BC                     	ds	4
   528     00C0                     _convertir_temperature$897:
   529                           
   530                           ; 4 bytes @ 0x20
   531     00C0                     	ds	4
   532     00C4                     _convertir_temperature$898:
   533                           
   534                           ; 4 bytes @ 0x24
   535     00C4                     	ds	4
   536     00C8                     convertir_temperature@tempC:
   537                           
   538                           ; 4 bytes @ 0x28
   539     00C8                     	ds	4
   540     00CC                     ??_main:
   541                           
   542                           ; 1 bytes @ 0x2C
   543     00CC                     	ds	3
   544     00CF                     main@value_potenciometro:
   545                           
   546                           ; 2 bytes @ 0x2F
   547     00CF                     	ds	2
   548     00D1                     main@value_temperature:
   549                           
   550                           ; 2 bytes @ 0x31
   551     00D1                     	ds	2
   552     00D3                     main@tempcelsius:
   553                           
   554                           ; 2 bytes @ 0x33
   555     00D3                     	ds	2
   556                           
   557                           	psect	cstackCOMMON
   558     0070                     __pcstackCOMMON:
   559     0070                     ?___fleq:
   560     0070                     ?___flge:	
   561                           ; 1 bit 
   562                           
   563     0070                     ?_adc_begin:	
   564                           ; 1 bit 
   565                           
   566     0070                     ??_adc_begin:	
   567                           ; 1 bytes @ 0x0
   568                           
   569     0070                     ?_LCD_Init:	
   570                           ; 1 bytes @ 0x0
   571                           
   572     0070                     ?_LCD_Clear:	
   573                           ; 1 bytes @ 0x0
   574                           
   575     0070                     ?_LCD_Command:	
   576                           ; 1 bytes @ 0x0
   577                           
   578     0070                     ??_LCD_Command:	
   579                           ; 1 bytes @ 0x0
   580                           
   581     0070                     ?_main:	
   582                           ; 1 bytes @ 0x0
   583                           
   584     0070                     ?_LCD_Char:	
   585                           ; 1 bytes @ 0x0
   586                           
   587     0070                     ??_LCD_Char:	
   588                           ; 1 bytes @ 0x0
   589                           
   590     0070                     ?_adc_conversion:	
   591                           ; 1 bytes @ 0x0
   592                           
   593     0070                     ?__Umul8_16:	
   594                           ; 2 bytes @ 0x0
   595                           
   596     0070                     ?___lwdiv:	
   597                           ; 2 bytes @ 0x0
   598                           
   599     0070                     ?___fltol:	
   600                           ; 2 bytes @ 0x0
   601                           
   602     0070                     ?___xxtofl:	
   603                           ; 4 bytes @ 0x0
   604                           
   605     0070                     __Umul8_16@multiplicand:	
   606                           ; 4 bytes @ 0x0
   607                           
   608     0070                     adc_conversion@channel:	
   609                           ; 1 bytes @ 0x0
   610                           
   611     0070                     ___lwdiv@divisor:	
   612                           ; 2 bytes @ 0x0
   613                           
   614     0070                     ___fleq@ff1:	
   615                           ; 2 bytes @ 0x0
   616                           
   617     0070                     ___flge@ff1:	
   618                           ; 4 bytes @ 0x0
   619                           
   620     0070                     ___fltol@f1:	
   621                           ; 4 bytes @ 0x0
   622                           
   623     0070                     ___xxtofl@val:	
   624                           ; 4 bytes @ 0x0
   625                           
   626                           
   627                           ; 4 bytes @ 0x0
   628     0070                     	ds	2
   629     0072                     ??_adc_conversion:
   630     0072                     ??__Umul8_16:	
   631                           ; 1 bytes @ 0x2
   632                           
   633     0072                     LCD_Command@cmd:	
   634                           ; 1 bytes @ 0x2
   635                           
   636     0072                     LCD_Char@dat:	
   637                           ; 1 bytes @ 0x2
   638                           
   639     0072                     ___lwdiv@dividend:	
   640                           ; 1 bytes @ 0x2
   641                           
   642                           
   643                           ; 2 bytes @ 0x2
   644     0072                     	ds	1
   645     0073                     ??_LCD_Init:
   646     0073                     ??_LCD_Clear:	
   647                           ; 1 bytes @ 0x3
   648                           
   649     0073                     ?_LCD_String:	
   650                           ; 1 bytes @ 0x3
   651                           
   652     0073                     LCD_String@msg:	
   653                           ; 1 bytes @ 0x3
   654                           
   655                           
   656                           ; 2 bytes @ 0x3
   657     0073                     	ds	1
   658     0074                     ??___fltol:
   659     0074                     ??___lwdiv:	
   660                           ; 1 bytes @ 0x4
   661                           
   662     0074                     ??___xxtofl:	
   663                           ; 1 bytes @ 0x4
   664                           
   665     0074                     ___lwdiv@quotient:	
   666                           ; 1 bytes @ 0x4
   667                           
   668     0074                     __Umul8_16@product:	
   669                           ; 2 bytes @ 0x4
   670                           
   671     0074                     ___fleq@ff2:	
   672                           ; 2 bytes @ 0x4
   673                           
   674     0074                     ___flge@ff2:	
   675                           ; 4 bytes @ 0x4
   676                           
   677                           
   678                           ; 4 bytes @ 0x4
   679     0074                     	ds	1
   680     0075                     ?_LCD_String_xy:
   681     0075                     ??_LCD_String:	
   682                           ; 1 bytes @ 0x5
   683                           
   684     0075                     LCD_String_xy@pos:	
   685                           ; 1 bytes @ 0x5
   686                           
   687                           
   688                           ; 1 bytes @ 0x5
   689     0075                     	ds	1
   690     0076                     ___lwdiv@counter:
   691     0076                     LCD_String_xy@msg:	
   692                           ; 1 bytes @ 0x6
   693                           
   694     0076                     __Umul8_16@word_mpld:	
   695                           ; 2 bytes @ 0x6
   696                           
   697                           
   698                           ; 2 bytes @ 0x6
   699     0076                     	ds	1
   700     0077                     ?___lwmod:
   701     0077                     ___lwmod@divisor:	
   702                           ; 2 bytes @ 0x7
   703                           
   704                           
   705                           ; 2 bytes @ 0x7
   706     0077                     	ds	1
   707     0078                     ??_LCD_String_xy:
   708     0078                     ??___fleq:	
   709                           ; 1 bytes @ 0x8
   710                           
   711     0078                     ??___flge:	
   712                           ; 1 bytes @ 0x8
   713                           
   714     0078                     LCD_String_xy@row:	
   715                           ; 1 bytes @ 0x8
   716                           
   717     0078                     ___fltol@sign1:	
   718                           ; 1 bytes @ 0x8
   719                           
   720     0078                     __Umul8_16@multiplier:	
   721                           ; 1 bytes @ 0x8
   722                           
   723     0078                     ___xxtofl@sign:	
   724                           ; 1 bytes @ 0x8
   725                           
   726                           
   727                           ; 1 bytes @ 0x8
   728     0078                     	ds	1
   729     0079                     LCD_String_xy@location:
   730     0079                     ___fltol@exp1:	
   731                           ; 1 bytes @ 0x9
   732                           
   733     0079                     ___xxtofl@exp:	
   734                           ; 1 bytes @ 0x9
   735                           
   736     0079                     ___lwmod@dividend:	
   737                           ; 1 bytes @ 0x9
   738                           
   739                           
   740                           ; 2 bytes @ 0x9
   741     0079                     	ds	1
   742     007A                     ___xxtofl@arg:
   743                           
   744                           ; 4 bytes @ 0xA
   745     007A                     	ds	1
   746     007B                     ??___lwmod:
   747     007B                     ___lwmod@counter:	
   748                           ; 1 bytes @ 0xB
   749                           
   750                           
   751                           ; 1 bytes @ 0xB
   752     007B                     	ds	1
   753     007C                     ??_frexp:
   754                           
   755                           ; 1 bytes @ 0xC
   756     007C                     	ds	2
   757     007E                     ??_log:
   758                           
   759                           	psect	cstackBANK0
   760     0020                     __pcstackBANK0:	
   761                           ; 1 bytes @ 0xE
   762                           
   763     0020                     ?_sprintf:
   764     0020                     ?_frexp:	
   765                           ; 2 bytes @ 0x0
   766                           
   767     0020                     sprintf@f:	
   768                           ; 4 bytes @ 0x0
   769                           
   770     0020                     frexp@value:	
   771                           ; 1 bytes @ 0x0
   772                           
   773                           
   774                           ; 4 bytes @ 0x0
   775     0020                     	ds	4
   776     0024                     frexp@eptr:
   777                           
   778                           ; 1 bytes @ 0x4
   779     0024                     	ds	1
   780     0025                     ??_sprintf:
   781     0025                     ?___flmul:	
   782                           ; 1 bytes @ 0x5
   783                           
   784     0025                     ___flmul@b:	
   785                           ; 4 bytes @ 0x5
   786                           
   787                           
   788                           ; 4 bytes @ 0x5
   789     0025                     	ds	3
   790     0028                     sprintf@ap:
   791                           
   792                           ; 1 bytes @ 0x8
   793     0028                     	ds	1
   794     0029                     sprintf@flag:
   795     0029                     ___flmul@a:	
   796                           ; 1 bytes @ 0x9
   797                           
   798                           
   799                           ; 4 bytes @ 0x9
   800     0029                     	ds	1
   801     002A                     sprintf@ccnt:
   802                           
   803                           ; 2 bytes @ 0xA
   804     002A                     	ds	2
   805     002C                     sprintf@prec:
   806                           
   807                           ; 1 bytes @ 0xC
   808     002C                     	ds	1
   809     002D                     ??___flmul:
   810     002D                     sprintf@val:	
   811                           ; 1 bytes @ 0xD
   812                           
   813                           
   814                           ; 2 bytes @ 0xD
   815     002D                     	ds	2
   816     002F                     sprintf@sp:
   817                           
   818                           ; 1 bytes @ 0xF
   819     002F                     	ds	1
   820     0030                     sprintf@c:
   821                           
   822                           ; 1 bytes @ 0x10
   823     0030                     	ds	2
   824     0032                     ___flmul@sign:
   825                           
   826                           ; 1 bytes @ 0x12
   827     0032                     	ds	1
   828     0033                     ___flmul@aexp:
   829                           
   830                           ; 1 bytes @ 0x13
   831     0033                     	ds	1
   832     0034                     ___flmul@grs:
   833                           
   834                           ; 4 bytes @ 0x14
   835     0034                     	ds	4
   836     0038                     ___flmul@bexp:
   837                           
   838                           ; 1 bytes @ 0x18
   839     0038                     	ds	1
   840     0039                     ___flmul@prod:
   841                           
   842                           ; 4 bytes @ 0x19
   843     0039                     	ds	4
   844     003D                     ___flmul@temp:
   845                           
   846                           ; 2 bytes @ 0x1D
   847     003D                     	ds	2
   848     003F                     ?___fldiv:
   849     003F                     ___fldiv@a:	
   850                           ; 4 bytes @ 0x1F
   851                           
   852                           
   853                           ; 4 bytes @ 0x1F
   854     003F                     	ds	4
   855     0043                     ___fldiv@b:
   856                           
   857                           ; 4 bytes @ 0x23
   858     0043                     	ds	4
   859     0047                     ??___fldiv:
   860                           
   861                           ; 1 bytes @ 0x27
   862     0047                     	ds	5
   863     004C                     ___fldiv@rem:
   864                           
   865                           ; 4 bytes @ 0x2C
   866     004C                     	ds	4
   867     0050                     ___fldiv@sign:
   868                           
   869                           ; 1 bytes @ 0x30
   870     0050                     	ds	1
   871     0051                     ___fldiv@new_exp:
   872                           
   873                           ; 2 bytes @ 0x31
   874     0051                     	ds	2
   875     0053                     ___fldiv@grs:
   876                           
   877                           ; 4 bytes @ 0x33
   878     0053                     	ds	4
   879     0057                     ___fldiv@bexp:
   880                           
   881                           ; 1 bytes @ 0x37
   882     0057                     	ds	1
   883     0058                     ___fldiv@aexp:
   884                           
   885                           ; 1 bytes @ 0x38
   886     0058                     	ds	1
   887     0059                     ?___fladd:
   888     0059                     ___fladd@b:	
   889                           ; 4 bytes @ 0x39
   890                           
   891                           
   892                           ; 4 bytes @ 0x39
   893     0059                     	ds	4
   894     005D                     ___fladd@a:
   895                           
   896                           ; 4 bytes @ 0x3D
   897     005D                     	ds	4
   898     0061                     ??___fladd:
   899                           
   900                           ; 1 bytes @ 0x41
   901     0061                     	ds	8
   902     0069                     ___fladd@signs:
   903                           
   904                           ; 1 bytes @ 0x49
   905     0069                     	ds	1
   906     006A                     ___fladd@aexp:
   907                           
   908                           ; 1 bytes @ 0x4A
   909     006A                     	ds	1
   910     006B                     ___fladd@bexp:
   911                           
   912                           ; 1 bytes @ 0x4B
   913     006B                     	ds	1
   914     006C                     ___fladd@grs:
   915                           
   916                           ; 1 bytes @ 0x4C
   917     006C                     	ds	1
   918     006D                     log@exponent:
   919                           
   920                           ; 2 bytes @ 0x4D
   921     006D                     	ds	2
   922                           
   923                           	psect	maintext
   924     0B57                     __pmaintext:	
   925 ;;
   926 ;;Main: autosize = 0, tempsize = 3, incstack = 0, save=0
   927 ;;
   928 ;; *************** function _main *****************
   929 ;; Defined at:
   930 ;;		line 21 in file "mainadc.c"
   931 ;; Parameters:    Size  Location     Type
   932 ;;		None
   933 ;; Auto vars:     Size  Location     Type
   934 ;;  tempcelsius     2   51[BANK1 ] int 
   935 ;;  value_temper    2   49[BANK1 ] int 
   936 ;;  value_potenc    2   47[BANK1 ] int 
   937 ;;  e               2    0        int 
   938 ;;  n               2    0        int 
   939 ;; Return value:  Size  Location     Type
   940 ;;                  1    wreg      void 
   941 ;; Registers used:
   942 ;;		wreg, fsr0l, fsr0h, status,2, status,0, btemp+1, pclath, cstack
   943 ;; Tracked objects:
   944 ;;		On entry : B00/0
   945 ;;		On exit  : 0/0
   946 ;;		Unchanged: 0/0
   947 ;; Data sizes:     COMMON   BANK0   BANK1   BANK3   BANK2
   948 ;;      Params:         0       0       0       0       0
   949 ;;      Locals:         0       0       6       0       0
   950 ;;      Temps:          0       0       3       0       0
   951 ;;      Totals:         0       0       9       0       0
   952 ;;Total ram usage:        9 bytes
   953 ;; Hardware stack levels required when called: 5
   954 ;; This function calls:
   955 ;;		_LCD_Clear
   956 ;;		_LCD_Init
   957 ;;		_LCD_String_xy
   958 ;;		_adc_begin
   959 ;;		_adc_conversion
   960 ;;		_convertir_temperature
   961 ;;		_sprintf
   962 ;; This function is called by:
   963 ;;		Startup code after reset
   964 ;; This function uses a non-reentrant model
   965 ;;
   966                           
   967     0B57                     _main:	
   968                           ;psect for function _main
   969                           
   970     0B57                     l3239:	
   971                           ;incstack = 0
   972                           ; Regs used in _main: [wreg-fsr0h+status,2+status,0+btemp+1+pclath+cstack]
   973                           
   974                           
   975                           ;mainadc.c: 23:     OSCCON = 0x71;
   976     0B57  3071               	movlw	113
   977     0B58  1683               	bsf	3,5	;RP0=1, select bank1
   978     0B59  1303               	bcf	3,6	;RP1=0, select bank1
   979     0B5A  008F               	movwf	15	;volatile
   980     0B5B                     l3241:
   981                           
   982                           ;mainadc.c: 24:     TRISD = 0x00;
   983     0B5B  0188               	clrf	8	;volatile
   984     0B5C                     l3243:
   985                           
   986                           ;mainadc.c: 25:     TRISA = 0x23;
   987     0B5C  3023               	movlw	35
   988     0B5D  0085               	movwf	5	;volatile
   989     0B5E                     l3245:
   990                           
   991                           ;mainadc.c: 26:     ANSEL = 0x13;
   992     0B5E  3013               	movlw	19
   993     0B5F  1683               	bsf	3,5	;RP0=1, select bank3
   994     0B60  1703               	bsf	3,6	;RP1=1, select bank3
   995     0B61  0088               	movwf	8	;volatile
   996     0B62                     l3247:
   997                           
   998                           ;mainadc.c: 28:     adc_begin();
   999     0B62  120A  118A  2005  120A  158A  	fcall	_adc_begin
  1000     0B67                     l3249:
  1001                           
  1002                           ;mainadc.c: 29:      LCD_Init();
  1003     0B67  160A  118A  26EC  120A  158A  	fcall	_LCD_Init
  1004     0B6C                     l3251:
  1005                           
  1006                           ;mainadc.c: 30:      LCD_String_xy(0,0,"cond ambientales");
  1007     0B6C  01F5               	clrf	LCD_String_xy@pos
  1008     0B6D  302F               	movlw	(low ((STR_1-__stringbase)| (0+32768)))& (0+255)
  1009     0B6E  00F6               	movwf	LCD_String_xy@msg
  1010     0B6F  3080               	movlw	128
  1011     0B70  00F7               	movwf	LCD_String_xy@msg+1
  1012     0B71  3000               	movlw	0
  1013     0B72  160A  118A  269F  120A  158A  	fcall	_LCD_String_xy
  1014     0B77                     l3253:
  1015                           
  1016                           ;mainadc.c: 31:      _delay((unsigned long)((2000)*(8000000/4000.0)));
  1017     0B77  3015               	movlw	21
  1018     0B78  1683               	bsf	3,5	;RP0=1, select bank1
  1019     0B79  1303               	bcf	3,6	;RP1=0, select bank1
  1020     0B7A  00CE               	movwf	(??_main^(0+128)+2)
  1021     0B7B  304B               	movlw	75
  1022     0B7C  00CD               	movwf	(??_main^(0+128)+1)
  1023     0B7D  30BD               	movlw	189
  1024     0B7E  00CC               	movwf	??_main^(0+128)
  1025     0B7F                     u4777:
  1026     0B7F  0BCC               	decfsz	??_main^(0+128),f
  1027     0B80  2B7F               	goto	u4777
  1028     0B81  0BCD               	decfsz	(??_main^(0+128)+1),f
  1029     0B82  2B7F               	goto	u4777
  1030     0B83  0BCE               	decfsz	(??_main^(0+128)+2),f
  1031     0B84  2B7F               	goto	u4777
  1032     0B85  2B86               	nop2
  1033     0B86                     l3255:
  1034                           
  1035                           ;mainadc.c: 34:        int value_potenciometro= adc_conversion(0);
  1036     0B86  3000               	movlw	0
  1037     0B87  00F0               	movwf	adc_conversion@channel
  1038     0B88  00F1               	movwf	adc_conversion@channel+1
  1039     0B89  160A  118A  2658  120A  158A  	fcall	_adc_conversion
  1040     0B8E  0871               	movf	?_adc_conversion+1,w
  1041     0B8F  1683               	bsf	3,5	;RP0=1, select bank1
  1042     0B90  1303               	bcf	3,6	;RP1=0, select bank1
  1043     0B91  00D0               	movwf	(main@value_potenciometro+1)^(0+128)
  1044     0B92  0870               	movf	?_adc_conversion,w
  1045     0B93  00CF               	movwf	main@value_potenciometro^(0+128)
  1046     0B94                     l3257:
  1047                           
  1048                           ;mainadc.c: 35:         _delay((unsigned long)((10)*(8000000/4000.0)));
  1049     0B94  301A               	movlw	26
  1050     0B95  1683               	bsf	3,5	;RP0=1, select bank1
  1051     0B96  1303               	bcf	3,6	;RP1=0, select bank1
  1052     0B97  00CD               	movwf	(??_main^(0+128)+1)
  1053     0B98  30F7               	movlw	247
  1054     0B99  00CC               	movwf	??_main^(0+128)
  1055     0B9A                     u4787:
  1056     0B9A  0BCC               	decfsz	??_main^(0+128),f
  1057     0B9B  2B9A               	goto	u4787
  1058     0B9C  0BCD               	decfsz	(??_main^(0+128)+1),f
  1059     0B9D  2B9A               	goto	u4787
  1060     0B9E  2B9F               	nop2
  1061     0B9F                     l3259:
  1062                           
  1063                           ;mainadc.c: 36:         int value_temperature= adc_conversion(1);
  1064     0B9F  3001               	movlw	1
  1065     0BA0  00F0               	movwf	adc_conversion@channel
  1066     0BA1  3000               	movlw	0
  1067     0BA2  00F1               	movwf	adc_conversion@channel+1
  1068     0BA3  160A  118A  2658  120A  158A  	fcall	_adc_conversion
  1069     0BA8  0871               	movf	?_adc_conversion+1,w
  1070     0BA9  1683               	bsf	3,5	;RP0=1, select bank1
  1071     0BAA  1303               	bcf	3,6	;RP1=0, select bank1
  1072     0BAB  00D2               	movwf	(main@value_temperature+1)^(0+128)
  1073     0BAC  0870               	movf	?_adc_conversion,w
  1074     0BAD  00D1               	movwf	main@value_temperature^(0+128)
  1075     0BAE                     l3261:
  1076                           
  1077                           ;mainadc.c: 37:         int tempcelsius = convertir_temperature(value_temperature);
  1078     0BAE  0852               	movf	(main@value_temperature+1)^(0+128),w
  1079     0BAF  00B5               	movwf	(convertir_temperature@temperature+1)^(0+128)
  1080     0BB0  0851               	movf	main@value_temperature^(0+128),w
  1081     0BB1  00B4               	movwf	convertir_temperature@temperature^(0+128)
  1082     0BB2  120A  158A  2675  120A  158A  	fcall	_convertir_temperature
  1083     0BB7  1683               	bsf	3,5	;RP0=1, select bank1
  1084     0BB8  1303               	bcf	3,6	;RP1=0, select bank1
  1085     0BB9  0835               	movf	(?_convertir_temperature+1)^(0+128),w
  1086     0BBA  00D4               	movwf	(main@tempcelsius+1)^(0+128)
  1087     0BBB  0834               	movf	?_convertir_temperature^(0+128),w
  1088     0BBC  00D3               	movwf	main@tempcelsius^(0+128)
  1089     0BBD                     l3263:
  1090                           
  1091                           ;mainadc.c: 38:         _delay((unsigned long)((10)*(8000000/4000.0)));
  1092     0BBD  301A               	movlw	26
  1093     0BBE  1683               	bsf	3,5	;RP0=1, select bank1
  1094     0BBF  1303               	bcf	3,6	;RP1=0, select bank1
  1095     0BC0  00CD               	movwf	(??_main^(0+128)+1)
  1096     0BC1  30F7               	movlw	247
  1097     0BC2  00CC               	movwf	??_main^(0+128)
  1098     0BC3                     u4797:
  1099     0BC3  0BCC               	decfsz	??_main^(0+128),f
  1100     0BC4  2BC3               	goto	u4797
  1101     0BC5  0BCD               	decfsz	(??_main^(0+128)+1),f
  1102     0BC6  2BC3               	goto	u4797
  1103     0BC7  2BC8               	nop2
  1104     0BC8                     l3265:
  1105                           
  1106                           ;mainadc.c: 39:         value_fotocelda= adc_conversion(4);
  1107     0BC8  3004               	movlw	4
  1108     0BC9  00F0               	movwf	adc_conversion@channel
  1109     0BCA  3000               	movlw	0
  1110     0BCB  00F1               	movwf	adc_conversion@channel+1
  1111     0BCC  160A  118A  2658  120A  158A  	fcall	_adc_conversion
  1112     0BD1  0871               	movf	?_adc_conversion+1,w
  1113     0BD2  1683               	bsf	3,5	;RP0=1, select bank1
  1114     0BD3  1303               	bcf	3,6	;RP1=0, select bank1
  1115     0BD4  00D8               	movwf	(_value_fotocelda+1)^(0+128)
  1116     0BD5  0870               	movf	?_adc_conversion,w
  1117     0BD6  00D7               	movwf	_value_fotocelda^(0+128)
  1118     0BD7                     l3267:
  1119     0BD7  3040               	movlw	(low ((STR_2-__stringbase)| (0+32768)))& (0+255)
  1120     0BD8  1283               	bcf	3,5	;RP0=0, select bank0
  1121     0BD9  1303               	bcf	3,6	;RP1=0, select bank0
  1122     0BDA  00A0               	movwf	sprintf@f
  1123     0BDB  1683               	bsf	3,5	;RP0=1, select bank1
  1124     0BDC  1303               	bcf	3,6	;RP1=0, select bank1
  1125     0BDD  0850               	movf	(main@value_potenciometro+1)^(0+128),w
  1126     0BDE  1283               	bcf	3,5	;RP0=0, select bank0
  1127     0BDF  1303               	bcf	3,6	;RP1=0, select bank0
  1128     0BE0  00A2               	movwf	?_sprintf+2
  1129     0BE1  1683               	bsf	3,5	;RP0=1, select bank1
  1130     0BE2  1303               	bcf	3,6	;RP1=0, select bank1
  1131     0BE3  084F               	movf	main@value_potenciometro^(0+128),w
  1132     0BE4  1283               	bcf	3,5	;RP0=0, select bank0
  1133     0BE5  1303               	bcf	3,6	;RP1=0, select bank0
  1134     0BE6  00A1               	movwf	?_sprintf+1
  1135     0BE7  1683               	bsf	3,5	;RP0=1, select bank1
  1136     0BE8  1303               	bcf	3,6	;RP1=0, select bank1
  1137     0BE9  0854               	movf	(main@tempcelsius+1)^(0+128),w
  1138     0BEA  1283               	bcf	3,5	;RP0=0, select bank0
  1139     0BEB  1303               	bcf	3,6	;RP1=0, select bank0
  1140     0BEC  00A4               	movwf	?_sprintf+4
  1141     0BED  1683               	bsf	3,5	;RP0=1, select bank1
  1142     0BEE  1303               	bcf	3,6	;RP1=0, select bank1
  1143     0BEF  0853               	movf	main@tempcelsius^(0+128),w
  1144     0BF0  1283               	bcf	3,5	;RP0=0, select bank0
  1145     0BF1  1303               	bcf	3,6	;RP1=0, select bank0
  1146     0BF2  00A3               	movwf	?_sprintf+3
  1147     0BF3  30DD               	movlw	(low (_buffer| 0))& (0+255)
  1148     0BF4  120A  158A  243D  120A  158A  	fcall	_sprintf
  1149     0BF9                     l3269:
  1150                           
  1151                           ;mainadc.c: 41:            LCD_String_xy(1,0,buffer);
  1152     0BF9  01F5               	clrf	LCD_String_xy@pos
  1153     0BFA  30DD               	movlw	(low (_buffer| 0))& (0+255)
  1154     0BFB  00F6               	movwf	LCD_String_xy@msg
  1155     0BFC  3000               	movlw	0
  1156     0BFD  00F7               	movwf	LCD_String_xy@msg+1
  1157     0BFE  3001               	movlw	1
  1158     0BFF  160A  118A  269F  120A  158A  	fcall	_LCD_String_xy
  1159     0C04                     l3271:
  1160     0C04  304A               	movlw	(low ((STR_3-__stringbase)| (0+32768)))& (0+255)
  1161     0C05  1283               	bcf	3,5	;RP0=0, select bank0
  1162     0C06  1303               	bcf	3,6	;RP1=0, select bank0
  1163     0C07  00A0               	movwf	sprintf@f
  1164     0C08  1683               	bsf	3,5	;RP0=1, select bank1
  1165     0C09  1303               	bcf	3,6	;RP1=0, select bank1
  1166     0C0A  0858               	movf	(_value_fotocelda+1)^(0+128),w
  1167     0C0B  1283               	bcf	3,5	;RP0=0, select bank0
  1168     0C0C  1303               	bcf	3,6	;RP1=0, select bank0
  1169     0C0D  00A2               	movwf	?_sprintf+2
  1170     0C0E  1683               	bsf	3,5	;RP0=1, select bank1
  1171     0C0F  1303               	bcf	3,6	;RP1=0, select bank1
  1172     0C10  0857               	movf	_value_fotocelda^(0+128),w
  1173     0C11  1283               	bcf	3,5	;RP0=0, select bank0
  1174     0C12  1303               	bcf	3,6	;RP1=0, select bank0
  1175     0C13  00A1               	movwf	?_sprintf+1
  1176     0C14  30DD               	movlw	(low (_buffer| 0))& (0+255)
  1177     0C15  120A  158A  243D  120A  158A  	fcall	_sprintf
  1178     0C1A                     l3273:
  1179                           
  1180                           ;mainadc.c: 43:            LCD_String_xy(2,0,buffer);
  1181     0C1A  01F5               	clrf	LCD_String_xy@pos
  1182     0C1B  30DD               	movlw	(low (_buffer| 0))& (0+255)
  1183     0C1C  00F6               	movwf	LCD_String_xy@msg
  1184     0C1D  3000               	movlw	0
  1185     0C1E  00F7               	movwf	LCD_String_xy@msg+1
  1186     0C1F  3002               	movlw	2
  1187     0C20  160A  118A  269F  120A  158A  	fcall	_LCD_String_xy
  1188     0C25                     l3275:
  1189                           
  1190                           ;mainadc.c: 44:         _delay((unsigned long)((2000)*(8000000/4000.0)));
  1191     0C25  3015               	movlw	21
  1192     0C26  1683               	bsf	3,5	;RP0=1, select bank1
  1193     0C27  1303               	bcf	3,6	;RP1=0, select bank1
  1194     0C28  00CE               	movwf	(??_main^(0+128)+2)
  1195     0C29  304B               	movlw	75
  1196     0C2A  00CD               	movwf	(??_main^(0+128)+1)
  1197     0C2B  30BD               	movlw	189
  1198     0C2C  00CC               	movwf	??_main^(0+128)
  1199     0C2D                     u4807:
  1200     0C2D  0BCC               	decfsz	??_main^(0+128),f
  1201     0C2E  2C2D               	goto	u4807
  1202     0C2F  0BCD               	decfsz	(??_main^(0+128)+1),f
  1203     0C30  2C2D               	goto	u4807
  1204     0C31  0BCE               	decfsz	(??_main^(0+128)+2),f
  1205     0C32  2C2D               	goto	u4807
  1206     0C33  2C34               	nop2
  1207     0C34                     l3277:
  1208                           
  1209                           ;mainadc.c: 45:         LCD_Clear();
  1210     0C34  120A  158A  2069  120A  158A  	fcall	_LCD_Clear
  1211     0C39  2B86               	goto	l3255
  1212     0C3A  120A  118A  2800   	ljmp	start
  1213     0C3D                     __end_of_main:
  1214                           
  1215                           	psect	text1
  1216     0C3D                     __ptext1:	
  1217 ;; *************** function _sprintf *****************
  1218 ;; Defined at:
  1219 ;;		line 505 in file "C:\Program Files\Microchip\xc8\v2.41\pic\sources\c90\common\doprnt.c"
  1220 ;; Parameters:    Size  Location     Type
  1221 ;;  sp              1    wreg     PTR unsigned char 
  1222 ;;		 -> buffer(17), 
  1223 ;;  f               1    0[BANK0 ] PTR const unsigned char 
  1224 ;;		 -> STR_3(5), STR_2(10), 
  1225 ;; Auto vars:     Size  Location     Type
  1226 ;;  sp              1   15[BANK0 ] PTR unsigned char 
  1227 ;;		 -> buffer(17), 
  1228 ;;  tmpval          4    0        struct .
  1229 ;;  val             2   13[BANK0 ] unsigned int 
  1230 ;;  ccnt            2   10[BANK0 ] int 
  1231 ;;  cp              2    0        PTR const unsigned char 
  1232 ;;  len             2    0        unsigned int 
  1233 ;;  c               1   16[BANK0 ] unsigned char 
  1234 ;;  prec            1   12[BANK0 ] char 
  1235 ;;  flag            1    9[BANK0 ] unsigned char 
  1236 ;;  ap              1    8[BANK0 ] PTR void [1]
  1237 ;;		 -> ?_sprintf(2), 
  1238 ;; Return value:  Size  Location     Type
  1239 ;;                  2    0[BANK0 ] int 
  1240 ;; Registers used:
  1241 ;;		wreg, fsr0l, fsr0h, status,2, status,0, btemp+1, pclath, cstack
  1242 ;; Tracked objects:
  1243 ;;		On entry : 0/0
  1244 ;;		On exit  : 0/0
  1245 ;;		Unchanged: 0/0
  1246 ;; Data sizes:     COMMON   BANK0   BANK1   BANK3   BANK2
  1247 ;;      Params:         0       5       0       0       0
  1248 ;;      Locals:         0       9       0       0       0
  1249 ;;      Temps:          0       3       0       0       0
  1250 ;;      Totals:         0      17       0       0       0
  1251 ;;Total ram usage:       17 bytes
  1252 ;; Hardware stack levels used: 1
  1253 ;; Hardware stack levels required when called: 1
  1254 ;; This function calls:
  1255 ;;		___lwdiv
  1256 ;;		___lwmod
  1257 ;; This function is called by:
  1258 ;;		_main
  1259 ;; This function uses a non-reentrant model
  1260 ;;
  1261                           
  1262     0C3D                     _sprintf:	
  1263                           ;psect for function _sprintf
  1264                           
  1265                           
  1266                           ;incstack = 0
  1267                           ; Regs used in _sprintf: [wreg-fsr0h+status,2+status,0+btemp+1+pclath+cstack]
  1268                           ;sprintf@sp stored from wreg
  1269     0C3D  1283               	bcf	3,5	;RP0=0, select bank0
  1270     0C3E  1303               	bcf	3,6	;RP1=0, select bank0
  1271     0C3F  00AF               	movwf	sprintf@sp
  1272     0C40                     l2589:
  1273                           
  1274                           ;C:\Program Files\Microchip\xc8\v2.41\pic\sources\c90\common\doprnt.c: 505: sprintf(char
      +                           * sp, const char * f, ...);C:\Program Files\Microchip\xc8\v2.41\pic\sources\c90\common\
      +                          doprnt.c: 506: {;C:\Program Files\Microchip\xc8\v2.41\pic\sources\c90\common\doprnt.c: 5
      +                          07:  va_list ap;;C:\Program Files\Microchip\xc8\v2.41\pic\sources\c90\common\doprnt.c: 5
      +                          12:  char c;;C:\Program Files\Microchip\xc8\v2.41\pic\sources\c90\common\doprnt.c: 521: 
      +                           signed char prec;;C:\Program Files\Microchip\xc8\v2.41\pic\sources\c90\common\doprnt.c:
      +                           525:  unsigned char flag;
  1275     0C40  01AA               	clrf	sprintf@ccnt
  1276     0C41  01AB               	clrf	sprintf@ccnt+1
  1277     0C42                     l2591:
  1278                           
  1279                           ;C:\Program Files\Microchip\xc8\v2.41\pic\sources\c90\common\doprnt.c: 543:  } tmpval;;C
      +                          :\Program Files\Microchip\xc8\v2.41\pic\sources\c90\common\doprnt.c: 545:  unsigned int 
      +                          val;;C:\Program Files\Microchip\xc8\v2.41\pic\sources\c90\common\doprnt.c: 546:  unsigne
      +                          d len;;C:\Program Files\Microchip\xc8\v2.41\pic\sources\c90\common\doprnt.c: 547:  const
      +                           char * cp;;C:\Program Files\Microchip\xc8\v2.41\pic\sources\c90\common\doprnt.c: 550:  
      +                          *ap = __va_start();
  1280     0C42  3021               	movlw	(low ((?_sprintf| 0+1)))& (0+255)
  1281     0C43  00A8               	movwf	sprintf@ap
  1282                           
  1283                           ;C:\Program Files\Microchip\xc8\v2.41\pic\sources\c90\common\doprnt.c: 553:  while((c = 
      +                          *f++)) {
  1284     0C44  2D16               	goto	l2651
  1285     0C45                     l2593:
  1286                           
  1287                           ;C:\Program Files\Microchip\xc8\v2.41\pic\sources\c90\common\doprnt.c: 555:   if(c != '%
      +                          ')
  1288     0C45  3025               	movlw	37
  1289     0C46  0630               	xorwf	sprintf@c,w
  1290     0C47  1903               	btfsc	3,2
  1291     0C48  2C4A               	goto	u3541
  1292     0C49  2C4B               	goto	u3540
  1293     0C4A                     u3541:
  1294     0C4A  2C5B               	goto	l2601
  1295     0C4B                     u3540:
  1296     0C4B                     l2595:
  1297                           
  1298                           ;C:\Program Files\Microchip\xc8\v2.41\pic\sources\c90\common\doprnt.c: 557:   {;C:\Progr
      +                          am Files\Microchip\xc8\v2.41\pic\sources\c90\common\doprnt.c: 558:    ((*sp++ = (c)),(++
      +                          ccnt));
  1299     0C4B  082F               	movf	sprintf@sp,w
  1300     0C4C  0084               	movwf	4
  1301     0C4D  0830               	movf	sprintf@c,w
  1302     0C4E  1383               	bcf	3,7	;select IRP bank0
  1303     0C4F  0080               	movwf	0
  1304     0C50                     l2597:
  1305     0C50  3001               	movlw	1
  1306     0C51  00FF               	movwf	btemp+1
  1307     0C52  087F               	movf	btemp+1,w
  1308     0C53  07AF               	addwf	sprintf@sp,f
  1309     0C54                     l2599:
  1310     0C54  3001               	movlw	1
  1311     0C55  07AA               	addwf	sprintf@ccnt,f
  1312     0C56  1803               	skipnc
  1313     0C57  0AAB               	incf	sprintf@ccnt+1,f
  1314     0C58  3000               	movlw	0
  1315     0C59  07AB               	addwf	sprintf@ccnt+1,f
  1316                           
  1317                           ;C:\Program Files\Microchip\xc8\v2.41\pic\sources\c90\common\doprnt.c: 559:    continue;
  1318     0C5A  2D16               	goto	l2651
  1319     0C5B                     l2601:
  1320                           
  1321                           ;C:\Program Files\Microchip\xc8\v2.41\pic\sources\c90\common\doprnt.c: 565:   flag = 0;
  1322     0C5B  01A9               	clrf	sprintf@flag
  1323     0C5C                     l2605:	
  1324                           ;C:\Program Files\Microchip\xc8\v2.41\pic\sources\c90\common\doprnt.c: 661:   switch(c =
      +                           *f++) {
  1325                           
  1326     0C5C  3001               	movlw	1
  1327     0C5D  07A0               	addwf	sprintf@f,f
  1328     0C5E  30FF               	movlw	-1
  1329     0C5F  0720               	addwf	sprintf@f,w
  1330     0C60  0084               	movwf	4
  1331     0C61  120A  158A  200A  120A  158A  	fcall	stringdir
  1332     0C66  00B0               	movwf	sprintf@c
  1333     0C67  00A5               	movwf	??_sprintf
  1334     0C68  01A6               	clrf	??_sprintf+1
  1335                           
  1336                           ; Switch on 2 bytes has been partitioned into a top level switch of size 1, and 1 sub-sw
      +                          itches
  1337                           ; Switch size 1, requested type "simple"
  1338                           ; Number of cases is 1, Range of values is 0 to 0
  1339                           ; switch strategies available:
  1340                           ; Name         Instructions Cycles
  1341                           ; simple_byte            4     3 (average)
  1342                           ; direct_byte           11     8 (fixed)
  1343                           ; jumptable            260     6 (fixed)
  1344                           ;	Chosen strategy is simple_byte
  1345     0C69  0826               	movf	??_sprintf+1,w
  1346     0C6A  3A00               	xorlw	0	; case 0
  1347     0C6B  1903               	skipnz
  1348     0C6C  2C6E               	goto	l3299
  1349     0C6D  2D16               	goto	l2651
  1350     0C6E                     l3299:
  1351                           
  1352                           ; Switch size 1, requested type "simple"
  1353                           ; Number of cases is 3, Range of values is 0 to 105
  1354                           ; switch strategies available:
  1355                           ; Name         Instructions Cycles
  1356                           ; simple_byte           10     6 (average)
  1357                           ; jumptable            260     6 (fixed)
  1358                           ;	Chosen strategy is simple_byte
  1359     0C6E  0825               	movf	??_sprintf,w
  1360     0C6F  3A00               	xorlw	0	; case 0
  1361     0C70  1903               	skipnz
  1362     0C71  2D26               	goto	l2653
  1363     0C72  3A64               	xorlw	100	; case 100
  1364     0C73  1903               	skipnz
  1365     0C74  2C79               	goto	l2607
  1366     0C75  3A0D               	xorlw	13	; case 105
  1367     0C76  1903               	skipnz
  1368     0C77  2C79               	goto	l2607
  1369     0C78  2D16               	goto	l2651
  1370     0C79                     l2607:
  1371                           
  1372                           ;C:\Program Files\Microchip\xc8\v2.41\pic\sources\c90\common\doprnt.c: 1279:   {;C:\Prog
      +                          ram Files\Microchip\xc8\v2.41\pic\sources\c90\common\doprnt.c: 1285:     val = (unsigned
      +                           int)(*(int *)__va_arg((*(int **)ap), (int)0));
  1373     0C79  0828               	movf	sprintf@ap,w
  1374     0C7A  0084               	movwf	4
  1375     0C7B  1383               	bcf	3,7	;select IRP bank0
  1376     0C7C  0800               	movf	0,w
  1377     0C7D  00AD               	movwf	sprintf@val
  1378     0C7E  0A84               	incf	4,f
  1379     0C7F  0800               	movf	0,w
  1380     0C80  00AE               	movwf	sprintf@val+1
  1381     0C81                     l2609:
  1382     0C81  3002               	movlw	2
  1383     0C82  00FF               	movwf	btemp+1
  1384     0C83  087F               	movf	btemp+1,w
  1385     0C84  07A8               	addwf	sprintf@ap,f
  1386     0C85                     l2611:
  1387                           
  1388                           ;C:\Program Files\Microchip\xc8\v2.41\pic\sources\c90\common\doprnt.c: 1287:    if((int)
      +                          val < 0) {
  1389     0C85  1FAE               	btfss	sprintf@val+1,7
  1390     0C86  2C88               	goto	u3551
  1391     0C87  2C89               	goto	u3550
  1392     0C88                     u3551:
  1393     0C88  2C92               	goto	l2617
  1394     0C89                     u3550:
  1395     0C89                     l2613:
  1396                           
  1397                           ;C:\Program Files\Microchip\xc8\v2.41\pic\sources\c90\common\doprnt.c: 1288:     flag |=
      +                           0x03;
  1398     0C89  3003               	movlw	3
  1399     0C8A  00FF               	movwf	btemp+1
  1400     0C8B  087F               	movf	btemp+1,w
  1401     0C8C  04A9               	iorwf	sprintf@flag,f
  1402     0C8D                     l2615:
  1403                           
  1404                           ;C:\Program Files\Microchip\xc8\v2.41\pic\sources\c90\common\doprnt.c: 1289:     val = -
      +                          val;
  1405     0C8D  09AD               	comf	sprintf@val,f
  1406     0C8E  09AE               	comf	sprintf@val+1,f
  1407     0C8F  0AAD               	incf	sprintf@val,f
  1408     0C90  1903               	skipnz
  1409     0C91  0AAE               	incf	sprintf@val+1,f
  1410     0C92                     l2617:
  1411                           
  1412                           ;C:\Program Files\Microchip\xc8\v2.41\pic\sources\c90\common\doprnt.c: 1292:   };C:\Prog
      +                          ram Files\Microchip\xc8\v2.41\pic\sources\c90\common\doprnt.c: 1331:    for(c = 1 ; c !=
      +                           sizeof dpowers/sizeof dpowers[0] ; c++)
  1413     0C92  01B0               	clrf	sprintf@c
  1414     0C93  0AB0               	incf	sprintf@c,f
  1415     0C94                     l2623:
  1416                           
  1417                           ;C:\Program Files\Microchip\xc8\v2.41\pic\sources\c90\common\doprnt.c: 1332:     if(val 
      +                          < dpowers[c])
  1418     0C94  0830               	movf	sprintf@c,w
  1419     0C95  00A5               	movwf	??_sprintf
  1420     0C96  0725               	addwf	??_sprintf,w
  1421     0C97  3E01               	addlw	low ((_dpowers-__stringbase)| (0+32768))
  1422     0C98  0084               	movwf	4
  1423     0C99  120A  158A  200A  120A  158A  	fcall	stringdir
  1424     0C9E  00A6               	movwf	??_sprintf+1
  1425     0C9F  120A  158A  200A  120A  158A  	fcall	stringdir
  1426     0CA4  00A7               	movwf	??_sprintf+2
  1427     0CA5  0827               	movf	??_sprintf+2,w
  1428     0CA6  022E               	subwf	sprintf@val+1,w
  1429     0CA7  1D03               	skipz
  1430     0CA8  2CAB               	goto	u3565
  1431     0CA9  0826               	movf	??_sprintf+1,w
  1432     0CAA  022D               	subwf	sprintf@val,w
  1433     0CAB                     u3565:
  1434     0CAB  1803               	skipnc
  1435     0CAC  2CAE               	goto	u3561
  1436     0CAD  2CAF               	goto	u3560
  1437     0CAE                     u3561:
  1438     0CAE  2CB0               	goto	l2627
  1439     0CAF                     u3560:
  1440     0CAF  2CBA               	goto	l2631
  1441     0CB0                     l2627:
  1442     0CB0  3001               	movlw	1
  1443     0CB1  00FF               	movwf	btemp+1
  1444     0CB2  087F               	movf	btemp+1,w
  1445     0CB3  07B0               	addwf	sprintf@c,f
  1446     0CB4                     l2629:
  1447     0CB4  3005               	movlw	5
  1448     0CB5  0630               	xorwf	sprintf@c,w
  1449     0CB6  1D03               	btfss	3,2
  1450     0CB7  2CB9               	goto	u3571
  1451     0CB8  2CBA               	goto	u3570
  1452     0CB9                     u3571:
  1453     0CB9  2C94               	goto	l2623
  1454     0CBA                     u3570:
  1455     0CBA                     l2631:
  1456                           
  1457                           ;C:\Program Files\Microchip\xc8\v2.41\pic\sources\c90\common\doprnt.c: 1448:   {;C:\Prog
      +                          ram Files\Microchip\xc8\v2.41\pic\sources\c90\common\doprnt.c: 1464:    if(flag & 0x03)
  1458     0CBA  0829               	movf	sprintf@flag,w
  1459     0CBB  3903               	andlw	3
  1460     0CBC  1903               	btfsc	3,2
  1461     0CBD  2CBF               	goto	u3581
  1462     0CBE  2CC0               	goto	u3580
  1463     0CBF                     u3581:
  1464     0CBF  2CCF               	goto	l2639
  1465     0CC0                     u3580:
  1466     0CC0                     l2633:
  1467                           
  1468                           ;C:\Program Files\Microchip\xc8\v2.41\pic\sources\c90\common\doprnt.c: 1465:     ((*sp++
      +                           = ('-')),(++ccnt));
  1469     0CC0  082F               	movf	sprintf@sp,w
  1470     0CC1  0084               	movwf	4
  1471     0CC2  302D               	movlw	45
  1472     0CC3  1383               	bcf	3,7	;select IRP bank0
  1473     0CC4  0080               	movwf	0
  1474     0CC5                     l2635:
  1475     0CC5  3001               	movlw	1
  1476     0CC6  00FF               	movwf	btemp+1
  1477     0CC7  087F               	movf	btemp+1,w
  1478     0CC8  07AF               	addwf	sprintf@sp,f
  1479     0CC9                     l2637:
  1480     0CC9  3001               	movlw	1
  1481     0CCA  07AA               	addwf	sprintf@ccnt,f
  1482     0CCB  1803               	skipnc
  1483     0CCC  0AAB               	incf	sprintf@ccnt+1,f
  1484     0CCD  3000               	movlw	0
  1485     0CCE  07AB               	addwf	sprintf@ccnt+1,f
  1486     0CCF                     l2639:
  1487                           
  1488                           ;C:\Program Files\Microchip\xc8\v2.41\pic\sources\c90\common\doprnt.c: 1495:   };C:\Prog
      +                          ram Files\Microchip\xc8\v2.41\pic\sources\c90\common\doprnt.c: 1498:   prec = c;
  1489     0CCF  0830               	movf	sprintf@c,w
  1490     0CD0  00AC               	movwf	sprintf@prec
  1491                           
  1492                           ;C:\Program Files\Microchip\xc8\v2.41\pic\sources\c90\common\doprnt.c: 1500:   while(pre
      +                          c--) {
  1493     0CD1  2D0D               	goto	l2649
  1494     0CD2                     l2641:
  1495                           
  1496                           ;C:\Program Files\Microchip\xc8\v2.41\pic\sources\c90\common\doprnt.c: 1504:    {;C:\Pro
      +                          gram Files\Microchip\xc8\v2.41\pic\sources\c90\common\doprnt.c: 1515:     c = (val / dpo
      +                          wers[(unsigned char)prec]) % 10 + '0';
  1497     0CD2  300A               	movlw	10
  1498     0CD3  00F7               	movwf	___lwmod@divisor
  1499     0CD4  3000               	movlw	0
  1500     0CD5  00F8               	movwf	___lwmod@divisor+1
  1501     0CD6  082C               	movf	sprintf@prec,w
  1502     0CD7  00A5               	movwf	??_sprintf
  1503     0CD8  0725               	addwf	??_sprintf,w
  1504     0CD9  3E01               	addlw	low ((_dpowers-__stringbase)| (0+32768))
  1505     0CDA  0084               	movwf	4
  1506     0CDB  120A  158A  200A  120A  158A  	fcall	stringdir
  1507     0CE0  00F0               	movwf	___lwdiv@divisor
  1508     0CE1  120A  158A  200A  120A  158A  	fcall	stringdir
  1509     0CE6  00F1               	movwf	___lwdiv@divisor+1
  1510     0CE7  082E               	movf	sprintf@val+1,w
  1511     0CE8  00F3               	movwf	___lwdiv@dividend+1
  1512     0CE9  082D               	movf	sprintf@val,w
  1513     0CEA  00F2               	movwf	___lwdiv@dividend
  1514     0CEB  160A  118A  27BC  120A  158A  	fcall	___lwdiv
  1515     0CF0  0871               	movf	?___lwdiv+1,w
  1516     0CF1  00FA               	movwf	___lwmod@dividend+1
  1517     0CF2  0870               	movf	?___lwdiv,w
  1518     0CF3  00F9               	movwf	___lwmod@dividend
  1519     0CF4  160A  118A  2782  120A  158A  	fcall	___lwmod
  1520     0CF9  0877               	movf	?___lwmod,w
  1521     0CFA  3E30               	addlw	48
  1522     0CFB  1283               	bcf	3,5	;RP0=0, select bank0
  1523     0CFC  1303               	bcf	3,6	;RP1=0, select bank0
  1524     0CFD  00B0               	movwf	sprintf@c
  1525     0CFE                     l2643:
  1526                           
  1527                           ;C:\Program Files\Microchip\xc8\v2.41\pic\sources\c90\common\doprnt.c: 1549:    };C:\Pro
      +                          gram Files\Microchip\xc8\v2.41\pic\sources\c90\common\doprnt.c: 1550:    ((*sp++ = (c)),
      +                          (++ccnt));
  1528     0CFE  082F               	movf	sprintf@sp,w
  1529     0CFF  0084               	movwf	4
  1530     0D00  0830               	movf	sprintf@c,w
  1531     0D01  1383               	bcf	3,7	;select IRP bank0
  1532     0D02  0080               	movwf	0
  1533     0D03                     l2645:
  1534     0D03  3001               	movlw	1
  1535     0D04  00FF               	movwf	btemp+1
  1536     0D05  087F               	movf	btemp+1,w
  1537     0D06  07AF               	addwf	sprintf@sp,f
  1538     0D07                     l2647:
  1539     0D07  3001               	movlw	1
  1540     0D08  07AA               	addwf	sprintf@ccnt,f
  1541     0D09  1803               	skipnc
  1542     0D0A  0AAB               	incf	sprintf@ccnt+1,f
  1543     0D0B  3000               	movlw	0
  1544     0D0C  07AB               	addwf	sprintf@ccnt+1,f
  1545     0D0D                     l2649:
  1546                           
  1547                           ;C:\Program Files\Microchip\xc8\v2.41\pic\sources\c90\common\doprnt.c: 1500:   while(pre
      +                          c--) {
  1548     0D0D  30FF               	movlw	255
  1549     0D0E  00FF               	movwf	btemp+1
  1550     0D0F  087F               	movf	btemp+1,w
  1551     0D10  07AC               	addwf	sprintf@prec,f
  1552     0D11  0A2C               	incf	sprintf@prec,w
  1553     0D12  1D03               	btfss	3,2
  1554     0D13  2D15               	goto	u3591
  1555     0D14  2D16               	goto	u3590
  1556     0D15                     u3591:
  1557     0D15  2CD2               	goto	l2641
  1558     0D16                     u3590:
  1559     0D16                     l2651:
  1560                           
  1561                           ;C:\Program Files\Microchip\xc8\v2.41\pic\sources\c90\common\doprnt.c: 553:  while((c = 
      +                          *f++)) {
  1562     0D16  3001               	movlw	1
  1563     0D17  07A0               	addwf	sprintf@f,f
  1564     0D18  30FF               	movlw	-1
  1565     0D19  0720               	addwf	sprintf@f,w
  1566     0D1A  0084               	movwf	4
  1567     0D1B  120A  158A  200A  120A  158A  	fcall	stringdir
  1568     0D20  00B0               	movwf	sprintf@c
  1569     0D21  0830               	movf	sprintf@c,w
  1570     0D22  1D03               	btfss	3,2
  1571     0D23  2D25               	goto	u3601
  1572     0D24  2D26               	goto	u3600
  1573     0D25                     u3601:
  1574     0D25  2C45               	goto	l2593
  1575     0D26                     u3600:
  1576     0D26                     l2653:
  1577                           
  1578                           ;C:\Program Files\Microchip\xc8\v2.41\pic\sources\c90\common\doprnt.c: 1564:  *sp = 0;
  1579     0D26  082F               	movf	sprintf@sp,w
  1580     0D27  0084               	movwf	4
  1581     0D28  1383               	bcf	3,7	;select IRP bank0
  1582     0D29  0180               	clrf	0
  1583     0D2A                     l2655:
  1584                           
  1585                           ;C:\Program Files\Microchip\xc8\v2.41\pic\sources\c90\common\doprnt.c: 1566:  return ccn
      +                          t;
  1586     0D2A  082B               	movf	sprintf@ccnt+1,w
  1587     0D2B  00A1               	movwf	?_sprintf+1
  1588     0D2C  082A               	movf	sprintf@ccnt,w
  1589     0D2D  00A0               	movwf	?_sprintf
  1590     0D2E                     l209:
  1591     0D2E  0008               	return
  1592     0D2F                     __end_of_sprintf:
  1593                           
  1594                           	psect	text2
  1595     1782                     __ptext2:	
  1596 ;; *************** function ___lwmod *****************
  1597 ;; Defined at:
  1598 ;;		line 5 in file "C:\Program Files\Microchip\xc8\v2.41\pic\sources\c90\common\lwmod.c"
  1599 ;; Parameters:    Size  Location     Type
  1600 ;;  divisor         2    7[COMMON] unsigned int 
  1601 ;;  dividend        2    9[COMMON] unsigned int 
  1602 ;; Auto vars:     Size  Location     Type
  1603 ;;  counter         1   11[COMMON] unsigned char 
  1604 ;; Return value:  Size  Location     Type
  1605 ;;                  2    7[COMMON] unsigned int 
  1606 ;; Registers used:
  1607 ;;		wreg, status,2, status,0, btemp+1
  1608 ;; Tracked objects:
  1609 ;;		On entry : 0/0
  1610 ;;		On exit  : 0/0
  1611 ;;		Unchanged: 0/0
  1612 ;; Data sizes:     COMMON   BANK0   BANK1   BANK3   BANK2
  1613 ;;      Params:         4       0       0       0       0
  1614 ;;      Locals:         1       0       0       0       0
  1615 ;;      Temps:          0       0       0       0       0
  1616 ;;      Totals:         5       0       0       0       0
  1617 ;;Total ram usage:        5 bytes
  1618 ;; Hardware stack levels used: 1
  1619 ;; This function calls:
  1620 ;;		Nothing
  1621 ;; This function is called by:
  1622 ;;		_sprintf
  1623 ;; This function uses a non-reentrant model
  1624 ;;
  1625                           
  1626     1782                     ___lwmod:	
  1627                           ;psect for function ___lwmod
  1628                           
  1629     1782                     l2361:	
  1630                           ;incstack = 0
  1631                           ; Regs used in ___lwmod: [wreg+status,2+status,0+btemp+1]
  1632                           
  1633     1782  0877               	movf	___lwmod@divisor,w
  1634     1783  0478               	iorwf	___lwmod@divisor+1,w
  1635     1784  1903               	btfsc	3,2
  1636     1785  2F87               	goto	u3171
  1637     1786  2F88               	goto	u3170
  1638     1787                     u3171:
  1639     1787  2FB7               	goto	l2379
  1640     1788                     u3170:
  1641     1788                     l2363:
  1642     1788  01FB               	clrf	___lwmod@counter
  1643     1789  0AFB               	incf	___lwmod@counter,f
  1644     178A  2F96               	goto	l2369
  1645     178B                     l2365:
  1646     178B  3001               	movlw	1
  1647     178C                     u3185:
  1648     178C  1003               	clrc
  1649     178D  0DF7               	rlf	___lwmod@divisor,f
  1650     178E  0DF8               	rlf	___lwmod@divisor+1,f
  1651     178F  3EFF               	addlw	-1
  1652     1790  1D03               	skipz
  1653     1791  2F8C               	goto	u3185
  1654     1792                     l2367:
  1655     1792  3001               	movlw	1
  1656     1793  00FF               	movwf	btemp+1
  1657     1794  087F               	movf	btemp+1,w
  1658     1795  07FB               	addwf	___lwmod@counter,f
  1659     1796                     l2369:
  1660     1796  1FF8               	btfss	___lwmod@divisor+1,7
  1661     1797  2F99               	goto	u3191
  1662     1798  2F9A               	goto	u3190
  1663     1799                     u3191:
  1664     1799  2F8B               	goto	l2365
  1665     179A                     u3190:
  1666     179A                     l2371:
  1667     179A  0878               	movf	___lwmod@divisor+1,w
  1668     179B  027A               	subwf	___lwmod@dividend+1,w
  1669     179C  1D03               	skipz
  1670     179D  2FA0               	goto	u3205
  1671     179E  0877               	movf	___lwmod@divisor,w
  1672     179F  0279               	subwf	___lwmod@dividend,w
  1673     17A0                     u3205:
  1674     17A0  1C03               	skipc
  1675     17A1  2FA3               	goto	u3201
  1676     17A2  2FA4               	goto	u3200
  1677     17A3                     u3201:
  1678     17A3  2FAA               	goto	l2375
  1679     17A4                     u3200:
  1680     17A4                     l2373:
  1681     17A4  0877               	movf	___lwmod@divisor,w
  1682     17A5  02F9               	subwf	___lwmod@dividend,f
  1683     17A6  0878               	movf	___lwmod@divisor+1,w
  1684     17A7  1C03               	skipc
  1685     17A8  03FA               	decf	___lwmod@dividend+1,f
  1686     17A9  02FA               	subwf	___lwmod@dividend+1,f
  1687     17AA                     l2375:
  1688     17AA  3001               	movlw	1
  1689     17AB                     u3215:
  1690     17AB  1003               	clrc
  1691     17AC  0CF8               	rrf	___lwmod@divisor+1,f
  1692     17AD  0CF7               	rrf	___lwmod@divisor,f
  1693     17AE  3EFF               	addlw	-1
  1694     17AF  1D03               	skipz
  1695     17B0  2FAB               	goto	u3215
  1696     17B1                     l2377:
  1697     17B1  3001               	movlw	1
  1698     17B2  02FB               	subwf	___lwmod@counter,f
  1699     17B3  1D03               	btfss	3,2
  1700     17B4  2FB6               	goto	u3221
  1701     17B5  2FB7               	goto	u3220
  1702     17B6                     u3221:
  1703     17B6  2F9A               	goto	l2371
  1704     17B7                     u3220:
  1705     17B7                     l2379:
  1706     17B7  087A               	movf	___lwmod@dividend+1,w
  1707     17B8  00F8               	movwf	?___lwmod+1
  1708     17B9  0879               	movf	___lwmod@dividend,w
  1709     17BA  00F7               	movwf	?___lwmod
  1710     17BB                     l495:
  1711     17BB  0008               	return
  1712     17BC                     __end_of___lwmod:
  1713                           
  1714                           	psect	text3
  1715     17BC                     __ptext3:	
  1716 ;; *************** function ___lwdiv *****************
  1717 ;; Defined at:
  1718 ;;		line 5 in file "C:\Program Files\Microchip\xc8\v2.41\pic\sources\c90\common\lwdiv.c"
  1719 ;; Parameters:    Size  Location     Type
  1720 ;;  divisor         2    0[COMMON] unsigned int 
  1721 ;;  dividend        2    2[COMMON] unsigned int 
  1722 ;; Auto vars:     Size  Location     Type
  1723 ;;  quotient        2    4[COMMON] unsigned int 
  1724 ;;  counter         1    6[COMMON] unsigned char 
  1725 ;; Return value:  Size  Location     Type
  1726 ;;                  2    0[COMMON] unsigned int 
  1727 ;; Registers used:
  1728 ;;		wreg, status,2, status,0, btemp+1
  1729 ;; Tracked objects:
  1730 ;;		On entry : 0/0
  1731 ;;		On exit  : 0/0
  1732 ;;		Unchanged: 0/0
  1733 ;; Data sizes:     COMMON   BANK0   BANK1   BANK3   BANK2
  1734 ;;      Params:         4       0       0       0       0
  1735 ;;      Locals:         3       0       0       0       0
  1736 ;;      Temps:          0       0       0       0       0
  1737 ;;      Totals:         7       0       0       0       0
  1738 ;;Total ram usage:        7 bytes
  1739 ;; Hardware stack levels used: 1
  1740 ;; This function calls:
  1741 ;;		Nothing
  1742 ;; This function is called by:
  1743 ;;		_sprintf
  1744 ;; This function uses a non-reentrant model
  1745 ;;
  1746                           
  1747     17BC                     ___lwdiv:	
  1748                           ;psect for function ___lwdiv
  1749                           
  1750     17BC                     l2335:	
  1751                           ;incstack = 0
  1752                           ; Regs used in ___lwdiv: [wreg+status,2+status,0+btemp+1]
  1753                           
  1754     17BC  01F4               	clrf	___lwdiv@quotient
  1755     17BD  01F5               	clrf	___lwdiv@quotient+1
  1756     17BE                     l2337:
  1757     17BE  0870               	movf	___lwdiv@divisor,w
  1758     17BF  0471               	iorwf	___lwdiv@divisor+1,w
  1759     17C0  1903               	btfsc	3,2
  1760     17C1  2FC3               	goto	u3101
  1761     17C2  2FC4               	goto	u3100
  1762     17C3                     u3101:
  1763     17C3  2FFB               	goto	l2357
  1764     17C4                     u3100:
  1765     17C4                     l2339:
  1766     17C4  01F6               	clrf	___lwdiv@counter
  1767     17C5  0AF6               	incf	___lwdiv@counter,f
  1768     17C6  2FD2               	goto	l2345
  1769     17C7                     l2341:
  1770     17C7  3001               	movlw	1
  1771     17C8                     u3115:
  1772     17C8  1003               	clrc
  1773     17C9  0DF0               	rlf	___lwdiv@divisor,f
  1774     17CA  0DF1               	rlf	___lwdiv@divisor+1,f
  1775     17CB  3EFF               	addlw	-1
  1776     17CC  1D03               	skipz
  1777     17CD  2FC8               	goto	u3115
  1778     17CE                     l2343:
  1779     17CE  3001               	movlw	1
  1780     17CF  00FF               	movwf	btemp+1
  1781     17D0  087F               	movf	btemp+1,w
  1782     17D1  07F6               	addwf	___lwdiv@counter,f
  1783     17D2                     l2345:
  1784     17D2  1FF1               	btfss	___lwdiv@divisor+1,7
  1785     17D3  2FD5               	goto	u3121
  1786     17D4  2FD6               	goto	u3120
  1787     17D5                     u3121:
  1788     17D5  2FC7               	goto	l2341
  1789     17D6                     u3120:
  1790     17D6                     l2347:
  1791     17D6  3001               	movlw	1
  1792     17D7                     u3135:
  1793     17D7  1003               	clrc
  1794     17D8  0DF4               	rlf	___lwdiv@quotient,f
  1795     17D9  0DF5               	rlf	___lwdiv@quotient+1,f
  1796     17DA  3EFF               	addlw	-1
  1797     17DB  1D03               	skipz
  1798     17DC  2FD7               	goto	u3135
  1799     17DD  0871               	movf	___lwdiv@divisor+1,w
  1800     17DE  0273               	subwf	___lwdiv@dividend+1,w
  1801     17DF  1D03               	skipz
  1802     17E0  2FE3               	goto	u3145
  1803     17E1  0870               	movf	___lwdiv@divisor,w
  1804     17E2  0272               	subwf	___lwdiv@dividend,w
  1805     17E3                     u3145:
  1806     17E3  1C03               	skipc
  1807     17E4  2FE6               	goto	u3141
  1808     17E5  2FE7               	goto	u3140
  1809     17E6                     u3141:
  1810     17E6  2FEE               	goto	l2353
  1811     17E7                     u3140:
  1812     17E7                     l2349:
  1813     17E7  0870               	movf	___lwdiv@divisor,w
  1814     17E8  02F2               	subwf	___lwdiv@dividend,f
  1815     17E9  0871               	movf	___lwdiv@divisor+1,w
  1816     17EA  1C03               	skipc
  1817     17EB  03F3               	decf	___lwdiv@dividend+1,f
  1818     17EC  02F3               	subwf	___lwdiv@dividend+1,f
  1819     17ED                     l2351:
  1820     17ED  1474               	bsf	___lwdiv@quotient,0
  1821     17EE                     l2353:
  1822     17EE  3001               	movlw	1
  1823     17EF                     u3155:
  1824     17EF  1003               	clrc
  1825     17F0  0CF1               	rrf	___lwdiv@divisor+1,f
  1826     17F1  0CF0               	rrf	___lwdiv@divisor,f
  1827     17F2  3EFF               	addlw	-1
  1828     17F3  1D03               	skipz
  1829     17F4  2FEF               	goto	u3155
  1830     17F5                     l2355:
  1831     17F5  3001               	movlw	1
  1832     17F6  02F6               	subwf	___lwdiv@counter,f
  1833     17F7  1D03               	btfss	3,2
  1834     17F8  2FFA               	goto	u3161
  1835     17F9  2FFB               	goto	u3160
  1836     17FA                     u3161:
  1837     17FA  2FD6               	goto	l2347
  1838     17FB                     u3160:
  1839     17FB                     l2357:
  1840     17FB  0875               	movf	___lwdiv@quotient+1,w
  1841     17FC  00F1               	movwf	?___lwdiv+1
  1842     17FD  0874               	movf	___lwdiv@quotient,w
  1843     17FE  00F0               	movwf	?___lwdiv
  1844     17FF                     l485:
  1845     17FF  0008               	return
  1846     1800                     __end_of___lwdiv:
  1847                           
  1848                           	psect	text4
  1849     0E75                     __ptext4:	
  1850 ;; *************** function _convertir_temperature *****************
  1851 ;; Defined at:
  1852 ;;		line 68 in file "mainadc.c"
  1853 ;; Parameters:    Size  Location     Type
  1854 ;;  temperature     2   20[BANK1 ] int 
  1855 ;; Auto vars:     Size  Location     Type
  1856 ;;  tempC           4   40[BANK1 ] float 
  1857 ;;  a               4   24[BANK1 ] long 
  1858 ;;  tempF           4    0        float 
  1859 ;; Return value:  Size  Location     Type
  1860 ;;                  2   20[BANK1 ] int 
  1861 ;; Registers used:
  1862 ;;		wreg, fsr0l, fsr0h, status,2, status,0, btemp+1, pclath, cstack
  1863 ;; Tracked objects:
  1864 ;;		On entry : 0/0
  1865 ;;		On exit  : 0/0
  1866 ;;		Unchanged: 0/0
  1867 ;; Data sizes:     COMMON   BANK0   BANK1   BANK3   BANK2
  1868 ;;      Params:         0       0       2       0       0
  1869 ;;      Locals:         0       0      20       0       0
  1870 ;;      Temps:          0       0       2       0       0
  1871 ;;      Totals:         0       0      24       0       0
  1872 ;;Total ram usage:       24 bytes
  1873 ;; Hardware stack levels used: 1
  1874 ;; Hardware stack levels required when called: 4
  1875 ;; This function calls:
  1876 ;;		___fladd
  1877 ;;		___fldiv
  1878 ;;		___fltol
  1879 ;;		___xxtofl
  1880 ;;		_log
  1881 ;; This function is called by:
  1882 ;;		_main
  1883 ;; This function uses a non-reentrant model
  1884 ;;
  1885                           
  1886     0E75                     _convertir_temperature:	
  1887                           ;psect for function _convertir_temperature
  1888                           
  1889     0E75                     l3223:	
  1890                           ;incstack = 0
  1891                           ; Regs used in _convertir_temperature: [wreg-fsr0h+status,2+status,0+btemp+1+pclath+csta
      +                          ck]
  1892                           
  1893                           
  1894                           ;mainadc.c: 70:     long a =1023 - temperature;
  1895     0E75  30FF               	movlw	255
  1896     0E76  1683               	bsf	3,5	;RP0=1, select bank1
  1897     0E77  1303               	bcf	3,6	;RP1=0, select bank1
  1898     0E78  00B6               	movwf	??_convertir_temperature^(0+128)
  1899     0E79  3003               	movlw	3
  1900     0E7A  00B7               	movwf	(??_convertir_temperature^(0+128)+1)
  1901     0E7B  0834               	movf	convertir_temperature@temperature^(0+128),w
  1902     0E7C  0236               	subwf	??_convertir_temperature^(0+128),w
  1903     0E7D  00B8               	movwf	convertir_temperature@a^(0+128)
  1904     0E7E  0835               	movf	(convertir_temperature@temperature+1)^(0+128),w
  1905     0E7F  1C03               	skipc
  1906     0E80  0A35               	incf	(convertir_temperature@temperature+1)^(0+128),w
  1907     0E81  0237               	subwf	(??_convertir_temperature+1)^(0+128),w
  1908     0E82  00B9               	movwf	(convertir_temperature@a+1)^(0+128)
  1909     0E83  01BA               	clrf	(convertir_temperature@a^(0+128)+2)
  1910     0E84  1BB9               	btfsc	(convertir_temperature@a^(0+128)+1),7
  1911     0E85  03BA               	decf	(convertir_temperature@a+2)^(0+128),f
  1912     0E86  083A               	movf	(convertir_temperature@a^(0+128)+2),w
  1913     0E87  00BB               	movwf	(convertir_temperature@a+3)^(0+128)
  1914     0E88                     l3225:
  1915                           
  1916                           ;mainadc.c: 72:     float tempC = (float) (4090 /(log((1025.0 * 10 / a - 10) / 10) + 409
      +                          0 / 298.0) - 273.0);
  1917     0E88  30C1               	movlw	193
  1918     0E89  1283               	bcf	3,5	;RP0=0, select bank0
  1919     0E8A  1303               	bcf	3,6	;RP1=0, select bank0
  1920     0E8B  00DC               	movwf	___fladd@b+3
  1921     0E8C  3020               	movlw	32
  1922     0E8D  00DB               	movwf	___fladd@b+2
  1923     0E8E  3000               	movlw	0
  1924     0E8F  00DA               	movwf	___fladd@b+1
  1925     0E90  3000               	movlw	0
  1926     0E91  00D9               	movwf	___fladd@b
  1927     0E92  1683               	bsf	3,5	;RP0=1, select bank1
  1928     0E93  1303               	bcf	3,6	;RP1=0, select bank1
  1929     0E94  083B               	movf	(convertir_temperature@a+3)^(0+128),w
  1930     0E95  00F3               	movwf	___xxtofl@val+3
  1931     0E96  083A               	movf	(convertir_temperature@a+2)^(0+128),w
  1932     0E97  00F2               	movwf	___xxtofl@val+2
  1933     0E98  0839               	movf	(convertir_temperature@a+1)^(0+128),w
  1934     0E99  00F1               	movwf	___xxtofl@val+1
  1935     0E9A  0838               	movf	convertir_temperature@a^(0+128),w
  1936     0E9B  00F0               	movwf	___xxtofl@val
  1937     0E9C  3001               	movlw	1
  1938     0E9D  120A  158A  21C5  120A  158A  	fcall	___xxtofl
  1939     0EA2  0873               	movf	?___xxtofl+3,w
  1940     0EA3  1283               	bcf	3,5	;RP0=0, select bank0
  1941     0EA4  1303               	bcf	3,6	;RP1=0, select bank0
  1942     0EA5  00C2               	movwf	___fldiv@a+3
  1943     0EA6  0872               	movf	?___xxtofl+2,w
  1944     0EA7  00C1               	movwf	___fldiv@a+2
  1945     0EA8  0871               	movf	?___xxtofl+1,w
  1946     0EA9  00C0               	movwf	___fldiv@a+1
  1947     0EAA  0870               	movf	?___xxtofl,w
  1948     0EAB  00BF               	movwf	___fldiv@a
  1949     0EAC  3046               	movlw	70
  1950     0EAD  00C6               	movwf	___fldiv@b+3
  1951     0EAE  3020               	movlw	32
  1952     0EAF  00C5               	movwf	___fldiv@b+2
  1953     0EB0  3028               	movlw	40
  1954     0EB1  00C4               	movwf	___fldiv@b+1
  1955     0EB2  3000               	movlw	0
  1956     0EB3  00C3               	movwf	___fldiv@b
  1957     0EB4  120A  118A  2087  120A  158A  	fcall	___fldiv
  1958     0EB9  1283               	bcf	3,5	;RP0=0, select bank0
  1959     0EBA  1303               	bcf	3,6	;RP1=0, select bank0
  1960     0EBB  0842               	movf	?___fldiv+3,w
  1961     0EBC  00E0               	movwf	___fladd@a+3
  1962     0EBD  0841               	movf	?___fldiv+2,w
  1963     0EBE  00DF               	movwf	___fladd@a+2
  1964     0EBF  0840               	movf	?___fldiv+1,w
  1965     0EC0  00DE               	movwf	___fladd@a+1
  1966     0EC1  083F               	movf	?___fldiv,w
  1967     0EC2  00DD               	movwf	___fladd@a
  1968     0EC3  120A  118A  2256  120A  158A  	fcall	___fladd
  1969     0EC8  1283               	bcf	3,5	;RP0=0, select bank0
  1970     0EC9  1303               	bcf	3,6	;RP1=0, select bank0
  1971     0ECA  085C               	movf	?___fladd+3,w
  1972     0ECB  1683               	bsf	3,5	;RP0=1, select bank1
  1973     0ECC  1303               	bcf	3,6	;RP1=0, select bank1
  1974     0ECD  00BF               	movwf	(_convertir_temperature$896+3)^(0+128)
  1975     0ECE  1283               	bcf	3,5	;RP0=0, select bank0
  1976     0ECF  1303               	bcf	3,6	;RP1=0, select bank0
  1977     0ED0  085B               	movf	?___fladd+2,w
  1978     0ED1  1683               	bsf	3,5	;RP0=1, select bank1
  1979     0ED2  1303               	bcf	3,6	;RP1=0, select bank1
  1980     0ED3  00BE               	movwf	(_convertir_temperature$896+2)^(0+128)
  1981     0ED4  1283               	bcf	3,5	;RP0=0, select bank0
  1982     0ED5  1303               	bcf	3,6	;RP1=0, select bank0
  1983     0ED6  085A               	movf	?___fladd+1,w
  1984     0ED7  1683               	bsf	3,5	;RP0=1, select bank1
  1985     0ED8  1303               	bcf	3,6	;RP1=0, select bank1
  1986     0ED9  00BD               	movwf	(_convertir_temperature$896+1)^(0+128)
  1987     0EDA  1283               	bcf	3,5	;RP0=0, select bank0
  1988     0EDB  1303               	bcf	3,6	;RP1=0, select bank0
  1989     0EDC  0859               	movf	?___fladd,w
  1990     0EDD  1683               	bsf	3,5	;RP0=1, select bank1
  1991     0EDE  1303               	bcf	3,6	;RP1=0, select bank1
  1992     0EDF  00BC               	movwf	_convertir_temperature$896^(0+128)
  1993     0EE0                     l3227:
  1994                           
  1995                           ;mainadc.c: 72:     float tempC = (float) (4090 /(log((1025.0 * 10 / a - 10) / 10) + 409
      +                          0 / 298.0) - 273.0);
  1996     0EE0  3041               	movlw	65
  1997     0EE1  1283               	bcf	3,5	;RP0=0, select bank0
  1998     0EE2  1303               	bcf	3,6	;RP1=0, select bank0
  1999     0EE3  00C2               	movwf	___fldiv@a+3
  2000     0EE4  3020               	movlw	32
  2001     0EE5  00C1               	movwf	___fldiv@a+2
  2002     0EE6  3000               	movlw	0
  2003     0EE7  00C0               	movwf	___fldiv@a+1
  2004     0EE8  3000               	movlw	0
  2005     0EE9  00BF               	movwf	___fldiv@a
  2006     0EEA  1683               	bsf	3,5	;RP0=1, select bank1
  2007     0EEB  1303               	bcf	3,6	;RP1=0, select bank1
  2008     0EEC  083F               	movf	(_convertir_temperature$896+3)^(0+128),w
  2009     0EED  1283               	bcf	3,5	;RP0=0, select bank0
  2010     0EEE  1303               	bcf	3,6	;RP1=0, select bank0
  2011     0EEF  00C6               	movwf	___fldiv@b+3
  2012     0EF0  1683               	bsf	3,5	;RP0=1, select bank1
  2013     0EF1  1303               	bcf	3,6	;RP1=0, select bank1
  2014     0EF2  083E               	movf	(_convertir_temperature$896+2)^(0+128),w
  2015     0EF3  1283               	bcf	3,5	;RP0=0, select bank0
  2016     0EF4  1303               	bcf	3,6	;RP1=0, select bank0
  2017     0EF5  00C5               	movwf	___fldiv@b+2
  2018     0EF6  1683               	bsf	3,5	;RP0=1, select bank1
  2019     0EF7  1303               	bcf	3,6	;RP1=0, select bank1
  2020     0EF8  083D               	movf	(_convertir_temperature$896+1)^(0+128),w
  2021     0EF9  1283               	bcf	3,5	;RP0=0, select bank0
  2022     0EFA  1303               	bcf	3,6	;RP1=0, select bank0
  2023     0EFB  00C4               	movwf	___fldiv@b+1
  2024     0EFC  1683               	bsf	3,5	;RP0=1, select bank1
  2025     0EFD  1303               	bcf	3,6	;RP1=0, select bank1
  2026     0EFE  083C               	movf	_convertir_temperature$896^(0+128),w
  2027     0EFF  1283               	bcf	3,5	;RP0=0, select bank0
  2028     0F00  1303               	bcf	3,6	;RP1=0, select bank0
  2029     0F01  00C3               	movwf	___fldiv@b
  2030     0F02  120A  118A  2087  120A  158A  	fcall	___fldiv
  2031     0F07  1283               	bcf	3,5	;RP0=0, select bank0
  2032     0F08  1303               	bcf	3,6	;RP1=0, select bank0
  2033     0F09  0842               	movf	?___fldiv+3,w
  2034     0F0A  1683               	bsf	3,5	;RP0=1, select bank1
  2035     0F0B  1303               	bcf	3,6	;RP1=0, select bank1
  2036     0F0C  00B3               	movwf	(log@x+3)^(0+128)
  2037     0F0D  1283               	bcf	3,5	;RP0=0, select bank0
  2038     0F0E  1303               	bcf	3,6	;RP1=0, select bank0
  2039     0F0F  0841               	movf	?___fldiv+2,w
  2040     0F10  1683               	bsf	3,5	;RP0=1, select bank1
  2041     0F11  1303               	bcf	3,6	;RP1=0, select bank1
  2042     0F12  00B2               	movwf	(log@x+2)^(0+128)
  2043     0F13  1283               	bcf	3,5	;RP0=0, select bank0
  2044     0F14  1303               	bcf	3,6	;RP1=0, select bank0
  2045     0F15  0840               	movf	?___fldiv+1,w
  2046     0F16  1683               	bsf	3,5	;RP0=1, select bank1
  2047     0F17  1303               	bcf	3,6	;RP1=0, select bank1
  2048     0F18  00B1               	movwf	(log@x+1)^(0+128)
  2049     0F19  1283               	bcf	3,5	;RP0=0, select bank0
  2050     0F1A  1303               	bcf	3,6	;RP1=0, select bank0
  2051     0F1B  083F               	movf	?___fldiv,w
  2052     0F1C  1683               	bsf	3,5	;RP0=1, select bank1
  2053     0F1D  1303               	bcf	3,6	;RP1=0, select bank1
  2054     0F1E  00B0               	movwf	log@x^(0+128)
  2055     0F1F  120A  158A  252F  120A  158A  	fcall	_log
  2056     0F24  1683               	bsf	3,5	;RP0=1, select bank1
  2057     0F25  1303               	bcf	3,6	;RP1=0, select bank1
  2058     0F26  0833               	movf	(?_log+3)^(0+128),w
  2059     0F27  00C3               	movwf	(_convertir_temperature$897+3)^(0+128)
  2060     0F28  0832               	movf	(?_log+2)^(0+128),w
  2061     0F29  00C2               	movwf	(_convertir_temperature$897+2)^(0+128)
  2062     0F2A  0831               	movf	(?_log+1)^(0+128),w
  2063     0F2B  00C1               	movwf	(_convertir_temperature$897+1)^(0+128)
  2064     0F2C  0830               	movf	?_log^(0+128),w
  2065     0F2D  00C0               	movwf	_convertir_temperature$897^(0+128)
  2066     0F2E                     l3229:
  2067                           
  2068                           ;mainadc.c: 72:     float tempC = (float) (4090 /(log((1025.0 * 10 / a - 10) / 10) + 409
      +                          0 / 298.0) - 273.0);
  2069     0F2E  3041               	movlw	65
  2070     0F2F  1283               	bcf	3,5	;RP0=0, select bank0
  2071     0F30  1303               	bcf	3,6	;RP1=0, select bank0
  2072     0F31  00DC               	movwf	___fladd@b+3
  2073     0F32  305B               	movlw	91
  2074     0F33  00DB               	movwf	___fladd@b+2
  2075     0F34  3098               	movlw	152
  2076     0F35  00DA               	movwf	___fladd@b+1
  2077     0F36  30EA               	movlw	234
  2078     0F37  00D9               	movwf	___fladd@b
  2079     0F38  1683               	bsf	3,5	;RP0=1, select bank1
  2080     0F39  1303               	bcf	3,6	;RP1=0, select bank1
  2081     0F3A  0843               	movf	(_convertir_temperature$897+3)^(0+128),w
  2082     0F3B  1283               	bcf	3,5	;RP0=0, select bank0
  2083     0F3C  1303               	bcf	3,6	;RP1=0, select bank0
  2084     0F3D  00E0               	movwf	___fladd@a+3
  2085     0F3E  1683               	bsf	3,5	;RP0=1, select bank1
  2086     0F3F  1303               	bcf	3,6	;RP1=0, select bank1
  2087     0F40  0842               	movf	(_convertir_temperature$897+2)^(0+128),w
  2088     0F41  1283               	bcf	3,5	;RP0=0, select bank0
  2089     0F42  1303               	bcf	3,6	;RP1=0, select bank0
  2090     0F43  00DF               	movwf	___fladd@a+2
  2091     0F44  1683               	bsf	3,5	;RP0=1, select bank1
  2092     0F45  1303               	bcf	3,6	;RP1=0, select bank1
  2093     0F46  0841               	movf	(_convertir_temperature$897+1)^(0+128),w
  2094     0F47  1283               	bcf	3,5	;RP0=0, select bank0
  2095     0F48  1303               	bcf	3,6	;RP1=0, select bank0
  2096     0F49  00DE               	movwf	___fladd@a+1
  2097     0F4A  1683               	bsf	3,5	;RP0=1, select bank1
  2098     0F4B  1303               	bcf	3,6	;RP1=0, select bank1
  2099     0F4C  0840               	movf	_convertir_temperature$897^(0+128),w
  2100     0F4D  1283               	bcf	3,5	;RP0=0, select bank0
  2101     0F4E  1303               	bcf	3,6	;RP1=0, select bank0
  2102     0F4F  00DD               	movwf	___fladd@a
  2103     0F50  120A  118A  2256  120A  158A  	fcall	___fladd
  2104     0F55  1283               	bcf	3,5	;RP0=0, select bank0
  2105     0F56  1303               	bcf	3,6	;RP1=0, select bank0
  2106     0F57  085C               	movf	?___fladd+3,w
  2107     0F58  00C2               	movwf	___fldiv@a+3
  2108     0F59  085B               	movf	?___fladd+2,w
  2109     0F5A  00C1               	movwf	___fldiv@a+2
  2110     0F5B  085A               	movf	?___fladd+1,w
  2111     0F5C  00C0               	movwf	___fldiv@a+1
  2112     0F5D  0859               	movf	?___fladd,w
  2113     0F5E  00BF               	movwf	___fldiv@a
  2114     0F5F  3045               	movlw	69
  2115     0F60  00C6               	movwf	___fldiv@b+3
  2116     0F61  307F               	movlw	127
  2117     0F62  00C5               	movwf	___fldiv@b+2
  2118     0F63  30A0               	movlw	160
  2119     0F64  00C4               	movwf	___fldiv@b+1
  2120     0F65  3000               	movlw	0
  2121     0F66  00C3               	movwf	___fldiv@b
  2122     0F67  120A  118A  2087  120A  158A  	fcall	___fldiv
  2123     0F6C  1283               	bcf	3,5	;RP0=0, select bank0
  2124     0F6D  1303               	bcf	3,6	;RP1=0, select bank0
  2125     0F6E  0842               	movf	?___fldiv+3,w
  2126     0F6F  1683               	bsf	3,5	;RP0=1, select bank1
  2127     0F70  1303               	bcf	3,6	;RP1=0, select bank1
  2128     0F71  00C7               	movwf	(_convertir_temperature$898+3)^(0+128)
  2129     0F72  1283               	bcf	3,5	;RP0=0, select bank0
  2130     0F73  1303               	bcf	3,6	;RP1=0, select bank0
  2131     0F74  0841               	movf	?___fldiv+2,w
  2132     0F75  1683               	bsf	3,5	;RP0=1, select bank1
  2133     0F76  1303               	bcf	3,6	;RP1=0, select bank1
  2134     0F77  00C6               	movwf	(_convertir_temperature$898+2)^(0+128)
  2135     0F78  1283               	bcf	3,5	;RP0=0, select bank0
  2136     0F79  1303               	bcf	3,6	;RP1=0, select bank0
  2137     0F7A  0840               	movf	?___fldiv+1,w
  2138     0F7B  1683               	bsf	3,5	;RP0=1, select bank1
  2139     0F7C  1303               	bcf	3,6	;RP1=0, select bank1
  2140     0F7D  00C5               	movwf	(_convertir_temperature$898+1)^(0+128)
  2141     0F7E  1283               	bcf	3,5	;RP0=0, select bank0
  2142     0F7F  1303               	bcf	3,6	;RP1=0, select bank0
  2143     0F80  083F               	movf	?___fldiv,w
  2144     0F81  1683               	bsf	3,5	;RP0=1, select bank1
  2145     0F82  1303               	bcf	3,6	;RP1=0, select bank1
  2146     0F83  00C4               	movwf	_convertir_temperature$898^(0+128)
  2147     0F84                     l3231:
  2148                           
  2149                           ;mainadc.c: 72:     float tempC = (float) (4090 /(log((1025.0 * 10 / a - 10) / 10) + 409
      +                          0 / 298.0) - 273.0);
  2150     0F84  30C3               	movlw	195
  2151     0F85  1283               	bcf	3,5	;RP0=0, select bank0
  2152     0F86  1303               	bcf	3,6	;RP1=0, select bank0
  2153     0F87  00DC               	movwf	___fladd@b+3
  2154     0F88  3088               	movlw	136
  2155     0F89  00DB               	movwf	___fladd@b+2
  2156     0F8A  3080               	movlw	128
  2157     0F8B  00DA               	movwf	___fladd@b+1
  2158     0F8C  3000               	movlw	0
  2159     0F8D  00D9               	movwf	___fladd@b
  2160     0F8E  1683               	bsf	3,5	;RP0=1, select bank1
  2161     0F8F  1303               	bcf	3,6	;RP1=0, select bank1
  2162     0F90  0847               	movf	(_convertir_temperature$898+3)^(0+128),w
  2163     0F91  1283               	bcf	3,5	;RP0=0, select bank0
  2164     0F92  1303               	bcf	3,6	;RP1=0, select bank0
  2165     0F93  00E0               	movwf	___fladd@a+3
  2166     0F94  1683               	bsf	3,5	;RP0=1, select bank1
  2167     0F95  1303               	bcf	3,6	;RP1=0, select bank1
  2168     0F96  0846               	movf	(_convertir_temperature$898+2)^(0+128),w
  2169     0F97  1283               	bcf	3,5	;RP0=0, select bank0
  2170     0F98  1303               	bcf	3,6	;RP1=0, select bank0
  2171     0F99  00DF               	movwf	___fladd@a+2
  2172     0F9A  1683               	bsf	3,5	;RP0=1, select bank1
  2173     0F9B  1303               	bcf	3,6	;RP1=0, select bank1
  2174     0F9C  0845               	movf	(_convertir_temperature$898+1)^(0+128),w
  2175     0F9D  1283               	bcf	3,5	;RP0=0, select bank0
  2176     0F9E  1303               	bcf	3,6	;RP1=0, select bank0
  2177     0F9F  00DE               	movwf	___fladd@a+1
  2178     0FA0  1683               	bsf	3,5	;RP0=1, select bank1
  2179     0FA1  1303               	bcf	3,6	;RP1=0, select bank1
  2180     0FA2  0844               	movf	_convertir_temperature$898^(0+128),w
  2181     0FA3  1283               	bcf	3,5	;RP0=0, select bank0
  2182     0FA4  1303               	bcf	3,6	;RP1=0, select bank0
  2183     0FA5  00DD               	movwf	___fladd@a
  2184     0FA6  120A  118A  2256  120A  158A  	fcall	___fladd
  2185     0FAB  1283               	bcf	3,5	;RP0=0, select bank0
  2186     0FAC  1303               	bcf	3,6	;RP1=0, select bank0
  2187     0FAD  085C               	movf	?___fladd+3,w
  2188     0FAE  1683               	bsf	3,5	;RP0=1, select bank1
  2189     0FAF  1303               	bcf	3,6	;RP1=0, select bank1
  2190     0FB0  00CB               	movwf	(convertir_temperature@tempC+3)^(0+128)
  2191     0FB1  1283               	bcf	3,5	;RP0=0, select bank0
  2192     0FB2  1303               	bcf	3,6	;RP1=0, select bank0
  2193     0FB3  085B               	movf	?___fladd+2,w
  2194     0FB4  1683               	bsf	3,5	;RP0=1, select bank1
  2195     0FB5  1303               	bcf	3,6	;RP1=0, select bank1
  2196     0FB6  00CA               	movwf	(convertir_temperature@tempC+2)^(0+128)
  2197     0FB7  1283               	bcf	3,5	;RP0=0, select bank0
  2198     0FB8  1303               	bcf	3,6	;RP1=0, select bank0
  2199     0FB9  085A               	movf	?___fladd+1,w
  2200     0FBA  1683               	bsf	3,5	;RP0=1, select bank1
  2201     0FBB  1303               	bcf	3,6	;RP1=0, select bank1
  2202     0FBC  00C9               	movwf	(convertir_temperature@tempC+1)^(0+128)
  2203     0FBD  1283               	bcf	3,5	;RP0=0, select bank0
  2204     0FBE  1303               	bcf	3,6	;RP1=0, select bank0
  2205     0FBF  0859               	movf	?___fladd,w
  2206     0FC0  1683               	bsf	3,5	;RP0=1, select bank1
  2207     0FC1  1303               	bcf	3,6	;RP1=0, select bank1
  2208     0FC2  00C8               	movwf	convertir_temperature@tempC^(0+128)
  2209     0FC3                     l3233:
  2210     0FC3  3043               	movlw	67
  2211     0FC4  1283               	bcf	3,5	;RP0=0, select bank0
  2212     0FC5  1303               	bcf	3,6	;RP1=0, select bank0
  2213     0FC6  00DC               	movwf	___fladd@b+3
  2214     0FC7  3088               	movlw	136
  2215     0FC8  00DB               	movwf	___fladd@b+2
  2216     0FC9  3093               	movlw	147
  2217     0FCA  00DA               	movwf	___fladd@b+1
  2218     0FCB  3033               	movlw	51
  2219     0FCC  00D9               	movwf	___fladd@b
  2220     0FCD  1683               	bsf	3,5	;RP0=1, select bank1
  2221     0FCE  1303               	bcf	3,6	;RP1=0, select bank1
  2222     0FCF  084B               	movf	(convertir_temperature@tempC+3)^(0+128),w
  2223     0FD0  1283               	bcf	3,5	;RP0=0, select bank0
  2224     0FD1  1303               	bcf	3,6	;RP1=0, select bank0
  2225     0FD2  00E0               	movwf	___fladd@a+3
  2226     0FD3  1683               	bsf	3,5	;RP0=1, select bank1
  2227     0FD4  1303               	bcf	3,6	;RP1=0, select bank1
  2228     0FD5  084A               	movf	(convertir_temperature@tempC+2)^(0+128),w
  2229     0FD6  1283               	bcf	3,5	;RP0=0, select bank0
  2230     0FD7  1303               	bcf	3,6	;RP1=0, select bank0
  2231     0FD8  00DF               	movwf	___fladd@a+2
  2232     0FD9  1683               	bsf	3,5	;RP0=1, select bank1
  2233     0FDA  1303               	bcf	3,6	;RP1=0, select bank1
  2234     0FDB  0849               	movf	(convertir_temperature@tempC+1)^(0+128),w
  2235     0FDC  1283               	bcf	3,5	;RP0=0, select bank0
  2236     0FDD  1303               	bcf	3,6	;RP1=0, select bank0
  2237     0FDE  00DE               	movwf	___fladd@a+1
  2238     0FDF  1683               	bsf	3,5	;RP0=1, select bank1
  2239     0FE0  1303               	bcf	3,6	;RP1=0, select bank1
  2240     0FE1  0848               	movf	convertir_temperature@tempC^(0+128),w
  2241     0FE2  1283               	bcf	3,5	;RP0=0, select bank0
  2242     0FE3  1303               	bcf	3,6	;RP1=0, select bank0
  2243     0FE4  00DD               	movwf	___fladd@a
  2244     0FE5  120A  118A  2256  120A  158A  	fcall	___fladd
  2245     0FEA                     l3235:
  2246                           
  2247                           ;mainadc.c: 74:     return (int)tempC;
  2248     0FEA  1683               	bsf	3,5	;RP0=1, select bank1
  2249     0FEB  1303               	bcf	3,6	;RP1=0, select bank1
  2250     0FEC  084B               	movf	(convertir_temperature@tempC+3)^(0+128),w
  2251     0FED  00F3               	movwf	___fltol@f1+3
  2252     0FEE  084A               	movf	(convertir_temperature@tempC+2)^(0+128),w
  2253     0FEF  00F2               	movwf	___fltol@f1+2
  2254     0FF0  0849               	movf	(convertir_temperature@tempC+1)^(0+128),w
  2255     0FF1  00F1               	movwf	___fltol@f1+1
  2256     0FF2  0848               	movf	convertir_temperature@tempC^(0+128),w
  2257     0FF3  00F0               	movwf	___fltol@f1
  2258     0FF4  120A  118A  2011  120A  158A  	fcall	___fltol
  2259     0FF9  0871               	movf	?___fltol+1,w
  2260     0FFA  1683               	bsf	3,5	;RP0=1, select bank1
  2261     0FFB  1303               	bcf	3,6	;RP1=0, select bank1
  2262     0FFC  00B5               	movwf	(?_convertir_temperature+1)^(0+128)
  2263     0FFD  0870               	movf	?___fltol,w
  2264     0FFE  00B4               	movwf	?_convertir_temperature^(0+128)
  2265     0FFF                     l62:
  2266     0FFF  0008               	return
  2267     1000                     __end_of_convertir_temperature:
  2268                           
  2269                           	psect	text5
  2270     0D2F                     __ptext5:	
  2271 ;; *************** function _log *****************
  2272 ;; Defined at:
  2273 ;;		line 5 in file "C:\Program Files\Microchip\xc8\v2.41\pic\sources\c90\common\log.c"
  2274 ;; Parameters:    Size  Location     Type
  2275 ;;  x               4   16[BANK1 ] int 
  2276 ;; Auto vars:     Size  Location     Type
  2277 ;;  exponent        2   77[BANK0 ] int 
  2278 ;; Return value:  Size  Location     Type
  2279 ;;                  4   16[BANK1 ] int 
  2280 ;; Registers used:
  2281 ;;		wreg, fsr0l, fsr0h, status,2, status,0, btemp+1, pclath, cstack
  2282 ;; Tracked objects:
  2283 ;;		On entry : 0/0
  2284 ;;		On exit  : 0/0
  2285 ;;		Unchanged: 0/0
  2286 ;; Data sizes:     COMMON   BANK0   BANK1   BANK3   BANK2
  2287 ;;      Params:         0       0       4       0       0
  2288 ;;      Locals:         0       2       0       0       0
  2289 ;;      Temps:          0       0       0       0       0
  2290 ;;      Totals:         0       2       4       0       0
  2291 ;;Total ram usage:        6 bytes
  2292 ;; Hardware stack levels used: 1
  2293 ;; Hardware stack levels required when called: 3
  2294 ;; This function calls:
  2295 ;;		___fladd
  2296 ;;		___fleq
  2297 ;;		___flge
  2298 ;;		___flmul
  2299 ;;		___xxtofl
  2300 ;;		_eval_poly
  2301 ;;		_frexp
  2302 ;; This function is called by:
  2303 ;;		_convertir_temperature
  2304 ;; This function uses a non-reentrant model
  2305 ;;
  2306                           
  2307     0D2F                     _log:	
  2308                           ;psect for function _log
  2309                           
  2310     0D2F                     l3201:	
  2311                           ;incstack = 0
  2312                           ; Regs used in _log: [wreg-fsr0h+status,2+status,0+btemp+1+pclath+cstack]
  2313                           
  2314     0D2F  1683               	bsf	3,5	;RP0=1, select bank1
  2315     0D30  1303               	bcf	3,6	;RP1=0, select bank1
  2316     0D31  0833               	movf	(log@x+3)^(0+128),w
  2317     0D32  00F3               	movwf	___flge@ff1+3
  2318     0D33  0832               	movf	(log@x+2)^(0+128),w
  2319     0D34  00F2               	movwf	___flge@ff1+2
  2320     0D35  0831               	movf	(log@x+1)^(0+128),w
  2321     0D36  00F1               	movwf	___flge@ff1+1
  2322     0D37  0830               	movf	log@x^(0+128),w
  2323     0D38  00F0               	movwf	___flge@ff1
  2324     0D39  3000               	movlw	0
  2325     0D3A  00F7               	movwf	___flge@ff2+3
  2326     0D3B  3000               	movlw	0
  2327     0D3C  00F6               	movwf	___flge@ff2+2
  2328     0D3D  3000               	movlw	0
  2329     0D3E  00F5               	movwf	___flge@ff2+1
  2330     0D3F  3000               	movlw	0
  2331     0D40  00F4               	movwf	___flge@ff2
  2332     0D41  120A  158A  2123  120A  158A  	fcall	___flge
  2333     0D46  1803               	btfsc	3,0
  2334     0D47  2D49               	goto	u4751
  2335     0D48  2D4A               	goto	u4750
  2336     0D49                     u4751:
  2337     0D49  2D59               	goto	l3207
  2338     0D4A                     u4750:
  2339     0D4A                     l3203:
  2340     0D4A  3021               	movlw	33
  2341     0D4B  1683               	bsf	3,5	;RP0=1, select bank1
  2342     0D4C  1303               	bcf	3,6	;RP1=0, select bank1
  2343     0D4D  00D5               	movwf	_errno^(0+128)
  2344     0D4E  3000               	movlw	0
  2345     0D4F  00D6               	movwf	(_errno^(0+128)+1)
  2346     0D50  3000               	movlw	0
  2347     0D51  00B3               	movwf	(?_log+3)^(0+128)
  2348     0D52  3000               	movlw	0
  2349     0D53  00B2               	movwf	(?_log+2)^(0+128)
  2350     0D54  3000               	movlw	0
  2351     0D55  00B1               	movwf	(?_log+1)^(0+128)
  2352     0D56  3000               	movlw	0
  2353     0D57  00B0               	movwf	?_log^(0+128)
  2354     0D58  2E74               	goto	l673
  2355     0D59                     l3207:
  2356     0D59  1683               	bsf	3,5	;RP0=1, select bank1
  2357     0D5A  1303               	bcf	3,6	;RP1=0, select bank1
  2358     0D5B  0833               	movf	(log@x+3)^(0+128),w
  2359     0D5C  00F3               	movwf	___fleq@ff1+3
  2360     0D5D  0832               	movf	(log@x+2)^(0+128),w
  2361     0D5E  00F2               	movwf	___fleq@ff1+2
  2362     0D5F  0831               	movf	(log@x+1)^(0+128),w
  2363     0D60  00F1               	movwf	___fleq@ff1+1
  2364     0D61  0830               	movf	log@x^(0+128),w
  2365     0D62  00F0               	movwf	___fleq@ff1
  2366     0D63  3000               	movlw	0
  2367     0D64  00F7               	movwf	___fleq@ff2+3
  2368     0D65  3000               	movlw	0
  2369     0D66  00F6               	movwf	___fleq@ff2+2
  2370     0D67  3000               	movlw	0
  2371     0D68  00F5               	movwf	___fleq@ff2+1
  2372     0D69  3000               	movlw	0
  2373     0D6A  00F4               	movwf	___fleq@ff2
  2374     0D6B  120A  158A  2079  120A  158A  	fcall	___fleq
  2375     0D70  1C03               	btfss	3,0
  2376     0D71  2D73               	goto	u4761
  2377     0D72  2D74               	goto	u4760
  2378     0D73                     u4761:
  2379     0D73  2D83               	goto	l3213
  2380     0D74                     u4760:
  2381     0D74                     l3209:
  2382     0D74  3022               	movlw	34
  2383     0D75  1683               	bsf	3,5	;RP0=1, select bank1
  2384     0D76  1303               	bcf	3,6	;RP1=0, select bank1
  2385     0D77  00D5               	movwf	_errno^(0+128)
  2386     0D78  3000               	movlw	0
  2387     0D79  00D6               	movwf	(_errno^(0+128)+1)
  2388     0D7A  3000               	movlw	0
  2389     0D7B  00B3               	movwf	(?_log+3)^(0+128)
  2390     0D7C  3000               	movlw	0
  2391     0D7D  00B2               	movwf	(?_log+2)^(0+128)
  2392     0D7E  3000               	movlw	0
  2393     0D7F  00B1               	movwf	(?_log+1)^(0+128)
  2394     0D80  3000               	movlw	0
  2395     0D81  00B0               	movwf	?_log^(0+128)
  2396     0D82  2E74               	goto	l673
  2397     0D83                     l3213:
  2398     0D83  30BF               	movlw	191
  2399     0D84  1283               	bcf	3,5	;RP0=0, select bank0
  2400     0D85  1303               	bcf	3,6	;RP1=0, select bank0
  2401     0D86  00DC               	movwf	___fladd@b+3
  2402     0D87  3080               	movlw	128
  2403     0D88  00DB               	movwf	___fladd@b+2
  2404     0D89  3000               	movlw	0
  2405     0D8A  00DA               	movwf	___fladd@b+1
  2406     0D8B  3000               	movlw	0
  2407     0D8C  00D9               	movwf	___fladd@b
  2408     0D8D  3040               	movlw	64
  2409     0D8E  00A8               	movwf	___flmul@b+3
  2410     0D8F  3000               	movlw	0
  2411     0D90  00A7               	movwf	___flmul@b+2
  2412     0D91  3000               	movlw	0
  2413     0D92  00A6               	movwf	___flmul@b+1
  2414     0D93  3000               	movlw	0
  2415     0D94  00A5               	movwf	___flmul@b
  2416     0D95  306D               	movlw	(low (log@exponent| 0))& (0+255)
  2417     0D96  00A4               	movwf	frexp@eptr
  2418     0D97  1683               	bsf	3,5	;RP0=1, select bank1
  2419     0D98  1303               	bcf	3,6	;RP1=0, select bank1
  2420     0D99  0833               	movf	(log@x+3)^(0+128),w
  2421     0D9A  1283               	bcf	3,5	;RP0=0, select bank0
  2422     0D9B  1303               	bcf	3,6	;RP1=0, select bank0
  2423     0D9C  00A3               	movwf	frexp@value+3
  2424     0D9D  1683               	bsf	3,5	;RP0=1, select bank1
  2425     0D9E  1303               	bcf	3,6	;RP1=0, select bank1
  2426     0D9F  0832               	movf	(log@x+2)^(0+128),w
  2427     0DA0  1283               	bcf	3,5	;RP0=0, select bank0
  2428     0DA1  1303               	bcf	3,6	;RP1=0, select bank0
  2429     0DA2  00A2               	movwf	frexp@value+2
  2430     0DA3  1683               	bsf	3,5	;RP0=1, select bank1
  2431     0DA4  1303               	bcf	3,6	;RP1=0, select bank1
  2432     0DA5  0831               	movf	(log@x+1)^(0+128),w
  2433     0DA6  1283               	bcf	3,5	;RP0=0, select bank0
  2434     0DA7  1303               	bcf	3,6	;RP1=0, select bank0
  2435     0DA8  00A1               	movwf	frexp@value+1
  2436     0DA9  1683               	bsf	3,5	;RP0=1, select bank1
  2437     0DAA  1303               	bcf	3,6	;RP1=0, select bank1
  2438     0DAB  0830               	movf	log@x^(0+128),w
  2439     0DAC  1283               	bcf	3,5	;RP0=0, select bank0
  2440     0DAD  1303               	bcf	3,6	;RP1=0, select bank0
  2441     0DAE  00A0               	movwf	frexp@value
  2442     0DAF  120A  158A  20C7  120A  158A  	fcall	_frexp
  2443     0DB4  1283               	bcf	3,5	;RP0=0, select bank0
  2444     0DB5  1303               	bcf	3,6	;RP1=0, select bank0
  2445     0DB6  0823               	movf	?_frexp+3,w
  2446     0DB7  00AC               	movwf	___flmul@a+3
  2447     0DB8  0822               	movf	?_frexp+2,w
  2448     0DB9  00AB               	movwf	___flmul@a+2
  2449     0DBA  0821               	movf	?_frexp+1,w
  2450     0DBB  00AA               	movwf	___flmul@a+1
  2451     0DBC  0820               	movf	?_frexp,w
  2452     0DBD  00A9               	movwf	___flmul@a
  2453     0DBE  120A  118A  24AE  120A  158A  	fcall	___flmul
  2454     0DC3  1283               	bcf	3,5	;RP0=0, select bank0
  2455     0DC4  1303               	bcf	3,6	;RP1=0, select bank0
  2456     0DC5  0828               	movf	?___flmul+3,w
  2457     0DC6  00E0               	movwf	___fladd@a+3
  2458     0DC7  0827               	movf	?___flmul+2,w
  2459     0DC8  00DF               	movwf	___fladd@a+2
  2460     0DC9  0826               	movf	?___flmul+1,w
  2461     0DCA  00DE               	movwf	___fladd@a+1
  2462     0DCB  0825               	movf	?___flmul,w
  2463     0DCC  00DD               	movwf	___fladd@a
  2464     0DCD  120A  118A  2256  120A  158A  	fcall	___fladd
  2465     0DD2  1283               	bcf	3,5	;RP0=0, select bank0
  2466     0DD3  1303               	bcf	3,6	;RP1=0, select bank0
  2467     0DD4  085C               	movf	?___fladd+3,w
  2468     0DD5  1683               	bsf	3,5	;RP0=1, select bank1
  2469     0DD6  1303               	bcf	3,6	;RP1=0, select bank1
  2470     0DD7  00B3               	movwf	(log@x+3)^(0+128)
  2471     0DD8  1283               	bcf	3,5	;RP0=0, select bank0
  2472     0DD9  1303               	bcf	3,6	;RP1=0, select bank0
  2473     0DDA  085B               	movf	?___fladd+2,w
  2474     0DDB  1683               	bsf	3,5	;RP0=1, select bank1
  2475     0DDC  1303               	bcf	3,6	;RP1=0, select bank1
  2476     0DDD  00B2               	movwf	(log@x+2)^(0+128)
  2477     0DDE  1283               	bcf	3,5	;RP0=0, select bank0
  2478     0DDF  1303               	bcf	3,6	;RP1=0, select bank0
  2479     0DE0  085A               	movf	?___fladd+1,w
  2480     0DE1  1683               	bsf	3,5	;RP0=1, select bank1
  2481     0DE2  1303               	bcf	3,6	;RP1=0, select bank1
  2482     0DE3  00B1               	movwf	(log@x+1)^(0+128)
  2483     0DE4  1283               	bcf	3,5	;RP0=0, select bank0
  2484     0DE5  1303               	bcf	3,6	;RP1=0, select bank0
  2485     0DE6  0859               	movf	?___fladd,w
  2486     0DE7  1683               	bsf	3,5	;RP0=1, select bank1
  2487     0DE8  1303               	bcf	3,6	;RP1=0, select bank1
  2488     0DE9  00B0               	movwf	log@x^(0+128)
  2489     0DEA                     l3215:
  2490     0DEA  30FF               	movlw	255
  2491     0DEB  1283               	bcf	3,5	;RP0=0, select bank0
  2492     0DEC  1303               	bcf	3,6	;RP1=0, select bank0
  2493     0DED  07ED               	addwf	log@exponent,f
  2494     0DEE  1803               	skipnc
  2495     0DEF  0AEE               	incf	log@exponent+1,f
  2496     0DF0  30FF               	movlw	255
  2497     0DF1  07EE               	addwf	log@exponent+1,f
  2498     0DF2                     l3217:
  2499     0DF2  1683               	bsf	3,5	;RP0=1, select bank1
  2500     0DF3  1303               	bcf	3,6	;RP1=0, select bank1
  2501     0DF4  0833               	movf	(log@x+3)^(0+128),w
  2502     0DF5  00A3               	movwf	(eval_poly@x+3)^(0+128)
  2503     0DF6  0832               	movf	(log@x+2)^(0+128),w
  2504     0DF7  00A2               	movwf	(eval_poly@x+2)^(0+128)
  2505     0DF8  0831               	movf	(log@x+1)^(0+128),w
  2506     0DF9  00A1               	movwf	(eval_poly@x+1)^(0+128)
  2507     0DFA  0830               	movf	log@x^(0+128),w
  2508     0DFB  00A0               	movwf	eval_poly@x^(0+128)
  2509     0DFC  300B               	movlw	(low ((log@coeff-__stringbase)| (0+32768)))& (0+255)
  2510     0DFD  00A4               	movwf	eval_poly@d^(0+128)
  2511     0DFE  3008               	movlw	8
  2512     0DFF  00A5               	movwf	eval_poly@n^(0+128)
  2513     0E00  3000               	movlw	0
  2514     0E01  00A6               	movwf	(eval_poly@n^(0+128)+1)
  2515     0E02  120A  158A  227D  120A  158A  	fcall	_eval_poly
  2516     0E07  1683               	bsf	3,5	;RP0=1, select bank1
  2517     0E08  1303               	bcf	3,6	;RP1=0, select bank1
  2518     0E09  0823               	movf	(?_eval_poly+3)^(0+128),w
  2519     0E0A  00B3               	movwf	(log@x+3)^(0+128)
  2520     0E0B  0822               	movf	(?_eval_poly+2)^(0+128),w
  2521     0E0C  00B2               	movwf	(log@x+2)^(0+128)
  2522     0E0D  0821               	movf	(?_eval_poly+1)^(0+128),w
  2523     0E0E  00B1               	movwf	(log@x+1)^(0+128)
  2524     0E0F  0820               	movf	?_eval_poly^(0+128),w
  2525     0E10  00B0               	movwf	log@x^(0+128)
  2526     0E11                     l3219:
  2527     0E11  0833               	movf	(log@x+3)^(0+128),w
  2528     0E12  1283               	bcf	3,5	;RP0=0, select bank0
  2529     0E13  1303               	bcf	3,6	;RP1=0, select bank0
  2530     0E14  00DC               	movwf	___fladd@b+3
  2531     0E15  1683               	bsf	3,5	;RP0=1, select bank1
  2532     0E16  1303               	bcf	3,6	;RP1=0, select bank1
  2533     0E17  0832               	movf	(log@x+2)^(0+128),w
  2534     0E18  1283               	bcf	3,5	;RP0=0, select bank0
  2535     0E19  1303               	bcf	3,6	;RP1=0, select bank0
  2536     0E1A  00DB               	movwf	___fladd@b+2
  2537     0E1B  1683               	bsf	3,5	;RP0=1, select bank1
  2538     0E1C  1303               	bcf	3,6	;RP1=0, select bank1
  2539     0E1D  0831               	movf	(log@x+1)^(0+128),w
  2540     0E1E  1283               	bcf	3,5	;RP0=0, select bank0
  2541     0E1F  1303               	bcf	3,6	;RP1=0, select bank0
  2542     0E20  00DA               	movwf	___fladd@b+1
  2543     0E21  1683               	bsf	3,5	;RP0=1, select bank1
  2544     0E22  1303               	bcf	3,6	;RP1=0, select bank1
  2545     0E23  0830               	movf	log@x^(0+128),w
  2546     0E24  1283               	bcf	3,5	;RP0=0, select bank0
  2547     0E25  1303               	bcf	3,6	;RP1=0, select bank0
  2548     0E26  00D9               	movwf	___fladd@b
  2549     0E27  303F               	movlw	63
  2550     0E28  00A8               	movwf	___flmul@b+3
  2551     0E29  3031               	movlw	49
  2552     0E2A  00A7               	movwf	___flmul@b+2
  2553     0E2B  3072               	movlw	114
  2554     0E2C  00A6               	movwf	___flmul@b+1
  2555     0E2D  3018               	movlw	24
  2556     0E2E  00A5               	movwf	___flmul@b
  2557     0E2F  086D               	movf	log@exponent,w
  2558     0E30  00F0               	movwf	___xxtofl@val
  2559     0E31  086E               	movf	log@exponent+1,w
  2560     0E32  00F1               	movwf	___xxtofl@val+1
  2561     0E33  3000               	movlw	0
  2562     0E34  1BF1               	btfsc	___xxtofl@val+1,7
  2563     0E35  30FF               	movlw	255
  2564     0E36  00F2               	movwf	___xxtofl@val+2
  2565     0E37  00F3               	movwf	___xxtofl@val+3
  2566     0E38  3001               	movlw	1
  2567     0E39  120A  158A  21C5  120A  158A  	fcall	___xxtofl
  2568     0E3E  0873               	movf	?___xxtofl+3,w
  2569     0E3F  1283               	bcf	3,5	;RP0=0, select bank0
  2570     0E40  1303               	bcf	3,6	;RP1=0, select bank0
  2571     0E41  00AC               	movwf	___flmul@a+3
  2572     0E42  0872               	movf	?___xxtofl+2,w
  2573     0E43  00AB               	movwf	___flmul@a+2
  2574     0E44  0871               	movf	?___xxtofl+1,w
  2575     0E45  00AA               	movwf	___flmul@a+1
  2576     0E46  0870               	movf	?___xxtofl,w
  2577     0E47  00A9               	movwf	___flmul@a
  2578     0E48  120A  118A  24AE  120A  158A  	fcall	___flmul
  2579     0E4D  1283               	bcf	3,5	;RP0=0, select bank0
  2580     0E4E  1303               	bcf	3,6	;RP1=0, select bank0
  2581     0E4F  0828               	movf	?___flmul+3,w
  2582     0E50  00E0               	movwf	___fladd@a+3
  2583     0E51  0827               	movf	?___flmul+2,w
  2584     0E52  00DF               	movwf	___fladd@a+2
  2585     0E53  0826               	movf	?___flmul+1,w
  2586     0E54  00DE               	movwf	___fladd@a+1
  2587     0E55  0825               	movf	?___flmul,w
  2588     0E56  00DD               	movwf	___fladd@a
  2589     0E57  120A  118A  2256  120A  158A  	fcall	___fladd
  2590     0E5C  1283               	bcf	3,5	;RP0=0, select bank0
  2591     0E5D  1303               	bcf	3,6	;RP1=0, select bank0
  2592     0E5E  085C               	movf	?___fladd+3,w
  2593     0E5F  1683               	bsf	3,5	;RP0=1, select bank1
  2594     0E60  1303               	bcf	3,6	;RP1=0, select bank1
  2595     0E61  00B3               	movwf	(?_log+3)^(0+128)
  2596     0E62  1283               	bcf	3,5	;RP0=0, select bank0
  2597     0E63  1303               	bcf	3,6	;RP1=0, select bank0
  2598     0E64  085B               	movf	?___fladd+2,w
  2599     0E65  1683               	bsf	3,5	;RP0=1, select bank1
  2600     0E66  1303               	bcf	3,6	;RP1=0, select bank1
  2601     0E67  00B2               	movwf	(?_log+2)^(0+128)
  2602     0E68  1283               	bcf	3,5	;RP0=0, select bank0
  2603     0E69  1303               	bcf	3,6	;RP1=0, select bank0
  2604     0E6A  085A               	movf	?___fladd+1,w
  2605     0E6B  1683               	bsf	3,5	;RP0=1, select bank1
  2606     0E6C  1303               	bcf	3,6	;RP1=0, select bank1
  2607     0E6D  00B1               	movwf	(?_log+1)^(0+128)
  2608     0E6E  1283               	bcf	3,5	;RP0=0, select bank0
  2609     0E6F  1303               	bcf	3,6	;RP1=0, select bank0
  2610     0E70  0859               	movf	?___fladd,w
  2611     0E71  1683               	bsf	3,5	;RP0=1, select bank1
  2612     0E72  1303               	bcf	3,6	;RP1=0, select bank1
  2613     0E73  00B0               	movwf	?_log^(0+128)
  2614     0E74                     l673:
  2615     0E74  0008               	return
  2616     0E75                     __end_of_log:
  2617                           
  2618                           	psect	text6
  2619     08C7                     __ptext6:	
  2620 ;; *************** function _frexp *****************
  2621 ;; Defined at:
  2622 ;;		line 254 in file "C:\Program Files\Microchip\xc8\v2.41\pic\sources\c90\common\frexp.c"
  2623 ;; Parameters:    Size  Location     Type
  2624 ;;  value           4    0[BANK0 ] int 
  2625 ;;  eptr            1    4[BANK0 ] PTR int 
  2626 ;;		 -> log@exponent(2), 
  2627 ;; Auto vars:     Size  Location     Type
  2628 ;;		None
  2629 ;; Return value:  Size  Location     Type
  2630 ;;                  4    0[BANK0 ] PTR int 
  2631 ;; Registers used:
  2632 ;;		wreg, fsr0l, fsr0h, status,2, status,0, btemp+1, pclath, cstack
  2633 ;; Tracked objects:
  2634 ;;		On entry : 0/0
  2635 ;;		On exit  : 0/0
  2636 ;;		Unchanged: 0/0
  2637 ;; Data sizes:     COMMON   BANK0   BANK1   BANK3   BANK2
  2638 ;;      Params:         0       5       0       0       0
  2639 ;;      Locals:         0       0       0       0       0
  2640 ;;      Temps:          2       0       0       0       0
  2641 ;;      Totals:         2       5       0       0       0
  2642 ;;Total ram usage:        7 bytes
  2643 ;; Hardware stack levels used: 1
  2644 ;; Hardware stack levels required when called: 1
  2645 ;; This function calls:
  2646 ;;		___fleq
  2647 ;; This function is called by:
  2648 ;;		_log
  2649 ;; This function uses a non-reentrant model
  2650 ;;
  2651                           
  2652     08C7                     _frexp:	
  2653                           ;psect for function _frexp
  2654                           
  2655     08C7                     l3171:	
  2656                           ;incstack = 0
  2657                           ; Regs used in _frexp: [wreg-fsr0h+status,2+status,0+btemp+1+pclath+cstack]
  2658                           
  2659     08C7  1283               	bcf	3,5	;RP0=0, select bank0
  2660     08C8  1303               	bcf	3,6	;RP1=0, select bank0
  2661     08C9  0823               	movf	frexp@value+3,w
  2662     08CA  00F3               	movwf	___fleq@ff1+3
  2663     08CB  0822               	movf	frexp@value+2,w
  2664     08CC  00F2               	movwf	___fleq@ff1+2
  2665     08CD  0821               	movf	frexp@value+1,w
  2666     08CE  00F1               	movwf	___fleq@ff1+1
  2667     08CF  0820               	movf	frexp@value,w
  2668     08D0  00F0               	movwf	___fleq@ff1
  2669     08D1  3000               	movlw	0
  2670     08D2  00F7               	movwf	___fleq@ff2+3
  2671     08D3  3000               	movlw	0
  2672     08D4  00F6               	movwf	___fleq@ff2+2
  2673     08D5  3000               	movlw	0
  2674     08D6  00F5               	movwf	___fleq@ff2+1
  2675     08D7  3000               	movlw	0
  2676     08D8  00F4               	movwf	___fleq@ff2
  2677     08D9  120A  158A  2079  120A  158A  	fcall	___fleq
  2678     08DE  1C03               	btfss	3,0
  2679     08DF  28E1               	goto	u4711
  2680     08E0  28E2               	goto	u4710
  2681     08E1                     u4711:
  2682     08E1  28F3               	goto	l3179
  2683     08E2                     u4710:
  2684     08E2                     l3173:
  2685     08E2  1283               	bcf	3,5	;RP0=0, select bank0
  2686     08E3  1303               	bcf	3,6	;RP1=0, select bank0
  2687     08E4  0824               	movf	frexp@eptr,w
  2688     08E5  0084               	movwf	4
  2689     08E6  1383               	bcf	3,7	;select IRP bank0
  2690     08E7  0180               	clrf	0
  2691     08E8  0A84               	incf	4,f
  2692     08E9  0180               	clrf	0
  2693     08EA                     l3175:
  2694     08EA  3000               	movlw	0
  2695     08EB  00A3               	movwf	?_frexp+3
  2696     08EC  3000               	movlw	0
  2697     08ED  00A2               	movwf	?_frexp+2
  2698     08EE  3000               	movlw	0
  2699     08EF  00A1               	movwf	?_frexp+1
  2700     08F0  3000               	movlw	0
  2701     08F1  00A0               	movwf	?_frexp
  2702     08F2  2922               	goto	l691
  2703     08F3                     l3179:
  2704     08F3  1283               	bcf	3,5	;RP0=0, select bank0
  2705     08F4  1303               	bcf	3,6	;RP1=0, select bank0
  2706     08F5  0823               	movf	frexp@value+3,w
  2707     08F6  397F               	andlw	127
  2708     08F7  00FC               	movwf	??_frexp
  2709     08F8  01FD               	clrf	??_frexp+1
  2710     08F9  1003               	clrc
  2711     08FA  0DFC               	rlf	??_frexp,f
  2712     08FB  0DFD               	rlf	??_frexp+1,f
  2713     08FC  0824               	movf	frexp@eptr,w
  2714     08FD  0084               	movwf	4
  2715     08FE  087C               	movf	??_frexp,w
  2716     08FF  1383               	bcf	3,7	;select IRP bank0
  2717     0900  0080               	movwf	0
  2718     0901  0A84               	incf	4,f
  2719     0902  087D               	movf	??_frexp+1,w
  2720     0903  0080               	movwf	0
  2721     0904  0D22               	rlf	frexp@value+2,w
  2722     0905  0D22               	rlf	frexp@value+2,w
  2723     0906  3901               	andlw	1
  2724     0907  00FC               	movwf	??_frexp
  2725     0908  01FD               	clrf	??_frexp+1
  2726     0909  0824               	movf	frexp@eptr,w
  2727     090A  0084               	movwf	4
  2728     090B  087C               	movf	??_frexp,w
  2729     090C  0480               	iorwf	0,f
  2730     090D  0A84               	incf	4,f
  2731     090E  087D               	movf	??_frexp+1,w
  2732     090F  0480               	iorwf	0,f
  2733     0910                     l3181:
  2734     0910  0824               	movf	frexp@eptr,w
  2735     0911  0084               	movwf	4
  2736     0912  3082               	movlw	130
  2737     0913  0780               	addwf	0,f
  2738     0914  0F84               	incfsz	4,f
  2739     0915  0800               	movf	0,w
  2740     0916  1803               	skipnc
  2741     0917  0A00               	incf	0,w
  2742     0918  00FF               	movwf	btemp+1
  2743     0919  30FF               	movlw	255
  2744     091A  077F               	addwf	btemp+1,w
  2745     091B  0080               	movwf	0
  2746     091C  0384               	decf	4,f
  2747     091D                     l3183:
  2748     091D  0823               	movf	frexp@value+3,w
  2749     091E  3980               	andlw	-128
  2750     091F  383F               	iorlw	63
  2751     0920  00A3               	movwf	frexp@value+3
  2752     0921                     l3185:
  2753     0921  13A2               	bcf	frexp@value+2,7
  2754     0922                     l3187:
  2755     0922                     l691:
  2756     0922  0008               	return
  2757     0923                     __end_of_frexp:
  2758                           
  2759                           	psect	text7
  2760     0879                     __ptext7:	
  2761 ;; *************** function ___fleq *****************
  2762 ;; Defined at:
  2763 ;;		line 4 in file "C:\Program Files\Microchip\xc8\v2.41\pic\sources\c90\common\fleq.c"
  2764 ;; Parameters:    Size  Location     Type
  2765 ;;  ff1             4    0[COMMON] PTR int 
  2766 ;;  ff2             4    4[COMMON] PTR int 
  2767 ;; Auto vars:     Size  Location     Type
  2768 ;;		None
  2769 ;; Return value:  Size  Location     Type
  2770 ;;		None               void
  2771 ;; Registers used:
  2772 ;;		wreg, status,2, status,0
  2773 ;; Tracked objects:
  2774 ;;		On entry : 0/0
  2775 ;;		On exit  : 0/0
  2776 ;;		Unchanged: 0/0
  2777 ;; Data sizes:     COMMON   BANK0   BANK1   BANK3   BANK2
  2778 ;;      Params:         8       0       0       0       0
  2779 ;;      Locals:         0       0       0       0       0
  2780 ;;      Temps:          4       0       0       0       0
  2781 ;;      Totals:        12       0       0       0       0
  2782 ;;Total ram usage:       12 bytes
  2783 ;; Hardware stack levels used: 1
  2784 ;; This function calls:
  2785 ;;		Nothing
  2786 ;; This function is called by:
  2787 ;;		_log
  2788 ;;		_frexp
  2789 ;; This function uses a non-reentrant model
  2790 ;;
  2791                           
  2792     0879                     ___fleq:	
  2793                           ;psect for function ___fleq
  2794                           
  2795     0879                     l2749:	
  2796                           ;incstack = 0
  2797                           ; Regs used in ___fleq: [wreg+status,2+status,0]
  2798                           
  2799     0879  3000               	movlw	0
  2800     087A  0570               	andwf	___fleq@ff1,w
  2801     087B  00F8               	movwf	??___fleq
  2802     087C  3000               	movlw	0
  2803     087D  0571               	andwf	___fleq@ff1+1,w
  2804     087E  00F9               	movwf	??___fleq+1
  2805     087F  3080               	movlw	128
  2806     0880  0572               	andwf	___fleq@ff1+2,w
  2807     0881  00FA               	movwf	??___fleq+2
  2808     0882  307F               	movlw	127
  2809     0883  0573               	andwf	___fleq@ff1+3,w
  2810     0884  00FB               	movwf	??___fleq+3
  2811     0885  087B               	movf	??___fleq+3,w
  2812     0886  047A               	iorwf	??___fleq+2,w
  2813     0887  0479               	iorwf	??___fleq+1,w
  2814     0888  0478               	iorwf	??___fleq,w
  2815     0889  1D03               	skipz
  2816     088A  288C               	goto	u3641
  2817     088B  288D               	goto	u3640
  2818     088C                     u3641:
  2819     088C  2895               	goto	l382
  2820     088D                     u3640:
  2821     088D                     l2751:
  2822     088D  3000               	movlw	0
  2823     088E  00F3               	movwf	___fleq@ff1+3
  2824     088F  3000               	movlw	0
  2825     0890  00F2               	movwf	___fleq@ff1+2
  2826     0891  3000               	movlw	0
  2827     0892  00F1               	movwf	___fleq@ff1+1
  2828     0893  3000               	movlw	0
  2829     0894  00F0               	movwf	___fleq@ff1
  2830     0895                     l382:
  2831     0895  3000               	movlw	0
  2832     0896  0574               	andwf	___fleq@ff2,w
  2833     0897  00F8               	movwf	??___fleq
  2834     0898  3000               	movlw	0
  2835     0899  0575               	andwf	___fleq@ff2+1,w
  2836     089A  00F9               	movwf	??___fleq+1
  2837     089B  3080               	movlw	128
  2838     089C  0576               	andwf	___fleq@ff2+2,w
  2839     089D  00FA               	movwf	??___fleq+2
  2840     089E  307F               	movlw	127
  2841     089F  0577               	andwf	___fleq@ff2+3,w
  2842     08A0  00FB               	movwf	??___fleq+3
  2843     08A1  087B               	movf	??___fleq+3,w
  2844     08A2  047A               	iorwf	??___fleq+2,w
  2845     08A3  0479               	iorwf	??___fleq+1,w
  2846     08A4  0478               	iorwf	??___fleq,w
  2847     08A5  1D03               	skipz
  2848     08A6  28A8               	goto	u3651
  2849     08A7  28A9               	goto	u3650
  2850     08A8                     u3651:
  2851     08A8  28B1               	goto	l383
  2852     08A9                     u3650:
  2853     08A9                     l2753:
  2854     08A9  3000               	movlw	0
  2855     08AA  00F7               	movwf	___fleq@ff2+3
  2856     08AB  3000               	movlw	0
  2857     08AC  00F6               	movwf	___fleq@ff2+2
  2858     08AD  3000               	movlw	0
  2859     08AE  00F5               	movwf	___fleq@ff2+1
  2860     08AF  3000               	movlw	0
  2861     08B0  00F4               	movwf	___fleq@ff2
  2862     08B1                     l383:
  2863     08B1  0877               	movf	___fleq@ff2+3,w
  2864     08B2  0673               	xorwf	___fleq@ff1+3,w
  2865     08B3  1D03               	skipz
  2866     08B4  28BF               	goto	u3665
  2867     08B5  0876               	movf	___fleq@ff2+2,w
  2868     08B6  0672               	xorwf	___fleq@ff1+2,w
  2869     08B7  1D03               	skipz
  2870     08B8  28BF               	goto	u3665
  2871     08B9  0875               	movf	___fleq@ff2+1,w
  2872     08BA  0671               	xorwf	___fleq@ff1+1,w
  2873     08BB  1D03               	skipz
  2874     08BC  28BF               	goto	u3665
  2875     08BD  0874               	movf	___fleq@ff2,w
  2876     08BE  0670               	xorwf	___fleq@ff1,w
  2877     08BF                     u3665:
  2878     08BF  1903               	skipnz
  2879     08C0  28C2               	goto	u3661
  2880     08C1  28C3               	goto	u3660
  2881     08C2                     u3661:
  2882     08C2  28C5               	goto	l2757
  2883     08C3                     u3660:
  2884     08C3                     l2755:
  2885     08C3  1003               	clrc
  2886     08C4  28C6               	goto	l384
  2887     08C5                     l2757:
  2888     08C5  1403               	setc
  2889     08C6                     l384:
  2890     08C6  0008               	return
  2891     08C7                     __end_of___fleq:
  2892                           
  2893                           	psect	text8
  2894     0A7D                     __ptext8:	
  2895 ;; *************** function _eval_poly *****************
  2896 ;; Defined at:
  2897 ;;		line 4 in file "C:\Program Files\Microchip\xc8\v2.41\pic\sources\c90\common\evalpoly.c"
  2898 ;; Parameters:    Size  Location     Type
  2899 ;;  x               4    0[BANK1 ] PTR int 
  2900 ;;  d               1    4[BANK1 ] PTR const 
  2901 ;;		 -> log@coeff(36), 
  2902 ;;  n               2    5[BANK1 ] int 
  2903 ;; Auto vars:     Size  Location     Type
  2904 ;;  res             4   12[BANK1 ] int 
  2905 ;; Return value:  Size  Location     Type
  2906 ;;                  4    0[BANK1 ] int 
  2907 ;; Registers used:
  2908 ;;		wreg, fsr0l, fsr0h, status,2, status,0, btemp+1, pclath, cstack
  2909 ;; Tracked objects:
  2910 ;;		On entry : 0/0
  2911 ;;		On exit  : 0/0
  2912 ;;		Unchanged: 0/0
  2913 ;; Data sizes:     COMMON   BANK0   BANK1   BANK3   BANK2
  2914 ;;      Params:         0       0       7       0       0
  2915 ;;      Locals:         0       0       4       0       0
  2916 ;;      Temps:          0       0       5       0       0
  2917 ;;      Totals:         0       0      16       0       0
  2918 ;;Total ram usage:       16 bytes
  2919 ;; Hardware stack levels used: 1
  2920 ;; Hardware stack levels required when called: 2
  2921 ;; This function calls:
  2922 ;;		___fladd
  2923 ;;		___flmul
  2924 ;; This function is called by:
  2925 ;;		_log
  2926 ;; This function uses a non-reentrant model
  2927 ;;
  2928                           
  2929     0A7D                     _eval_poly:	
  2930                           ;psect for function _eval_poly
  2931                           
  2932     0A7D                     l3191:	
  2933                           ;incstack = 0
  2934                           ; Regs used in _eval_poly: [wreg-fsr0h+status,2+status,0+btemp+1+pclath+cstack]
  2935                           
  2936     0A7D  1683               	bsf	3,5	;RP0=1, select bank1
  2937     0A7E  1303               	bcf	3,6	;RP1=0, select bank1
  2938     0A7F  0825               	movf	eval_poly@n^(0+128),w
  2939     0A80  00A7               	movwf	??_eval_poly^(0+128)
  2940     0A81  3001               	movlw	1
  2941     0A82                     u4725:
  2942     0A82  1003               	clrc
  2943     0A83  0DA7               	rlf	??_eval_poly^(0+128),f
  2944     0A84  3EFF               	addlw	-1
  2945     0A85  1D03               	skipz
  2946     0A86  2A82               	goto	u4725
  2947     0A87  1003               	clrc
  2948     0A88  0D27               	rlf	??_eval_poly^(0+128),w
  2949     0A89  0724               	addwf	eval_poly@d^(0+128),w
  2950     0A8A  0084               	movwf	4
  2951     0A8B  120A  158A  200A  120A  158A  	fcall	stringdir
  2952     0A90  00A8               	movwf	(??_eval_poly+1)^(0+128)
  2953     0A91  120A  158A  200A  120A  158A  	fcall	stringdir
  2954     0A96  00A9               	movwf	((??_eval_poly+1)^(0+128)+1)
  2955     0A97  120A  158A  200A  120A  158A  	fcall	stringdir
  2956     0A9C  00AA               	movwf	((??_eval_poly+1)^(0+128)+2)
  2957     0A9D  120A  158A  200A  120A  158A  	fcall	stringdir
  2958     0AA2  00AB               	movwf	((??_eval_poly+1)^(0+128)+3)
  2959     0AA3  082B               	movf	(??_eval_poly+4)^(0+128),w
  2960     0AA4  00AF               	movwf	(eval_poly@res+3)^(0+128)
  2961     0AA5  082A               	movf	(??_eval_poly+3)^(0+128),w
  2962     0AA6  00AE               	movwf	(eval_poly@res+2)^(0+128)
  2963     0AA7  0829               	movf	(??_eval_poly+2)^(0+128),w
  2964     0AA8  00AD               	movwf	(eval_poly@res+1)^(0+128)
  2965     0AA9  0828               	movf	(??_eval_poly+1)^(0+128),w
  2966     0AAA  00AC               	movwf	eval_poly@res^(0+128)
  2967     0AAB  2B48               	goto	l3195
  2968     0AAC                     l3193:
  2969     0AAC  30FF               	movlw	255
  2970     0AAD  07A5               	addwf	eval_poly@n^(0+128),f
  2971     0AAE  1803               	skipnc
  2972     0AAF  0AA6               	incf	(eval_poly@n+1)^(0+128),f
  2973     0AB0  30FF               	movlw	255
  2974     0AB1  07A6               	addwf	(eval_poly@n+1)^(0+128),f
  2975     0AB2  0825               	movf	eval_poly@n^(0+128),w
  2976     0AB3  00A7               	movwf	??_eval_poly^(0+128)
  2977     0AB4  3001               	movlw	1
  2978     0AB5                     u4735:
  2979     0AB5  1003               	clrc
  2980     0AB6  0DA7               	rlf	??_eval_poly^(0+128),f
  2981     0AB7  3EFF               	addlw	-1
  2982     0AB8  1D03               	skipz
  2983     0AB9  2AB5               	goto	u4735
  2984     0ABA  1003               	clrc
  2985     0ABB  0D27               	rlf	??_eval_poly^(0+128),w
  2986     0ABC  0724               	addwf	eval_poly@d^(0+128),w
  2987     0ABD  0084               	movwf	4
  2988     0ABE  120A  158A  200A  120A  158A  	fcall	stringdir
  2989     0AC3  00A8               	movwf	(??_eval_poly+1)^(0+128)
  2990     0AC4  120A  158A  200A  120A  158A  	fcall	stringdir
  2991     0AC9  00A9               	movwf	((??_eval_poly+1)^(0+128)+1)
  2992     0ACA  120A  158A  200A  120A  158A  	fcall	stringdir
  2993     0ACF  00AA               	movwf	((??_eval_poly+1)^(0+128)+2)
  2994     0AD0  120A  158A  200A  120A  158A  	fcall	stringdir
  2995     0AD5  00AB               	movwf	((??_eval_poly+1)^(0+128)+3)
  2996     0AD6  082B               	movf	(??_eval_poly+4)^(0+128),w
  2997     0AD7  1283               	bcf	3,5	;RP0=0, select bank0
  2998     0AD8  1303               	bcf	3,6	;RP1=0, select bank0
  2999     0AD9  00DC               	movwf	___fladd@b+3
  3000     0ADA  1683               	bsf	3,5	;RP0=1, select bank1
  3001     0ADB  1303               	bcf	3,6	;RP1=0, select bank1
  3002     0ADC  082A               	movf	(??_eval_poly+3)^(0+128),w
  3003     0ADD  1283               	bcf	3,5	;RP0=0, select bank0
  3004     0ADE  1303               	bcf	3,6	;RP1=0, select bank0
  3005     0ADF  00DB               	movwf	___fladd@b+2
  3006     0AE0  1683               	bsf	3,5	;RP0=1, select bank1
  3007     0AE1  1303               	bcf	3,6	;RP1=0, select bank1
  3008     0AE2  0829               	movf	(??_eval_poly+2)^(0+128),w
  3009     0AE3  1283               	bcf	3,5	;RP0=0, select bank0
  3010     0AE4  1303               	bcf	3,6	;RP1=0, select bank0
  3011     0AE5  00DA               	movwf	___fladd@b+1
  3012     0AE6  1683               	bsf	3,5	;RP0=1, select bank1
  3013     0AE7  1303               	bcf	3,6	;RP1=0, select bank1
  3014     0AE8  0828               	movf	(??_eval_poly+1)^(0+128),w
  3015     0AE9  1283               	bcf	3,5	;RP0=0, select bank0
  3016     0AEA  1303               	bcf	3,6	;RP1=0, select bank0
  3017     0AEB  00D9               	movwf	___fladd@b
  3018     0AEC  1683               	bsf	3,5	;RP0=1, select bank1
  3019     0AED  1303               	bcf	3,6	;RP1=0, select bank1
  3020     0AEE  082F               	movf	(eval_poly@res+3)^(0+128),w
  3021     0AEF  1283               	bcf	3,5	;RP0=0, select bank0
  3022     0AF0  1303               	bcf	3,6	;RP1=0, select bank0
  3023     0AF1  00A8               	movwf	___flmul@b+3
  3024     0AF2  1683               	bsf	3,5	;RP0=1, select bank1
  3025     0AF3  1303               	bcf	3,6	;RP1=0, select bank1
  3026     0AF4  082E               	movf	(eval_poly@res+2)^(0+128),w
  3027     0AF5  1283               	bcf	3,5	;RP0=0, select bank0
  3028     0AF6  1303               	bcf	3,6	;RP1=0, select bank0
  3029     0AF7  00A7               	movwf	___flmul@b+2
  3030     0AF8  1683               	bsf	3,5	;RP0=1, select bank1
  3031     0AF9  1303               	bcf	3,6	;RP1=0, select bank1
  3032     0AFA  082D               	movf	(eval_poly@res+1)^(0+128),w
  3033     0AFB  1283               	bcf	3,5	;RP0=0, select bank0
  3034     0AFC  1303               	bcf	3,6	;RP1=0, select bank0
  3035     0AFD  00A6               	movwf	___flmul@b+1
  3036     0AFE  1683               	bsf	3,5	;RP0=1, select bank1
  3037     0AFF  1303               	bcf	3,6	;RP1=0, select bank1
  3038     0B00  082C               	movf	eval_poly@res^(0+128),w
  3039     0B01  1283               	bcf	3,5	;RP0=0, select bank0
  3040     0B02  1303               	bcf	3,6	;RP1=0, select bank0
  3041     0B03  00A5               	movwf	___flmul@b
  3042     0B04  1683               	bsf	3,5	;RP0=1, select bank1
  3043     0B05  1303               	bcf	3,6	;RP1=0, select bank1
  3044     0B06  0823               	movf	(eval_poly@x+3)^(0+128),w
  3045     0B07  1283               	bcf	3,5	;RP0=0, select bank0
  3046     0B08  1303               	bcf	3,6	;RP1=0, select bank0
  3047     0B09  00AC               	movwf	___flmul@a+3
  3048     0B0A  1683               	bsf	3,5	;RP0=1, select bank1
  3049     0B0B  1303               	bcf	3,6	;RP1=0, select bank1
  3050     0B0C  0822               	movf	(eval_poly@x+2)^(0+128),w
  3051     0B0D  1283               	bcf	3,5	;RP0=0, select bank0
  3052     0B0E  1303               	bcf	3,6	;RP1=0, select bank0
  3053     0B0F  00AB               	movwf	___flmul@a+2
  3054     0B10  1683               	bsf	3,5	;RP0=1, select bank1
  3055     0B11  1303               	bcf	3,6	;RP1=0, select bank1
  3056     0B12  0821               	movf	(eval_poly@x+1)^(0+128),w
  3057     0B13  1283               	bcf	3,5	;RP0=0, select bank0
  3058     0B14  1303               	bcf	3,6	;RP1=0, select bank0
  3059     0B15  00AA               	movwf	___flmul@a+1
  3060     0B16  1683               	bsf	3,5	;RP0=1, select bank1
  3061     0B17  1303               	bcf	3,6	;RP1=0, select bank1
  3062     0B18  0820               	movf	eval_poly@x^(0+128),w
  3063     0B19  1283               	bcf	3,5	;RP0=0, select bank0
  3064     0B1A  1303               	bcf	3,6	;RP1=0, select bank0
  3065     0B1B  00A9               	movwf	___flmul@a
  3066     0B1C  120A  118A  24AE  120A  158A  	fcall	___flmul
  3067     0B21  1283               	bcf	3,5	;RP0=0, select bank0
  3068     0B22  1303               	bcf	3,6	;RP1=0, select bank0
  3069     0B23  0828               	movf	?___flmul+3,w
  3070     0B24  00E0               	movwf	___fladd@a+3
  3071     0B25  0827               	movf	?___flmul+2,w
  3072     0B26  00DF               	movwf	___fladd@a+2
  3073     0B27  0826               	movf	?___flmul+1,w
  3074     0B28  00DE               	movwf	___fladd@a+1
  3075     0B29  0825               	movf	?___flmul,w
  3076     0B2A  00DD               	movwf	___fladd@a
  3077     0B2B  120A  118A  2256  120A  158A  	fcall	___fladd
  3078     0B30  1283               	bcf	3,5	;RP0=0, select bank0
  3079     0B31  1303               	bcf	3,6	;RP1=0, select bank0
  3080     0B32  085C               	movf	?___fladd+3,w
  3081     0B33  1683               	bsf	3,5	;RP0=1, select bank1
  3082     0B34  1303               	bcf	3,6	;RP1=0, select bank1
  3083     0B35  00AF               	movwf	(eval_poly@res+3)^(0+128)
  3084     0B36  1283               	bcf	3,5	;RP0=0, select bank0
  3085     0B37  1303               	bcf	3,6	;RP1=0, select bank0
  3086     0B38  085B               	movf	?___fladd+2,w
  3087     0B39  1683               	bsf	3,5	;RP0=1, select bank1
  3088     0B3A  1303               	bcf	3,6	;RP1=0, select bank1
  3089     0B3B  00AE               	movwf	(eval_poly@res+2)^(0+128)
  3090     0B3C  1283               	bcf	3,5	;RP0=0, select bank0
  3091     0B3D  1303               	bcf	3,6	;RP1=0, select bank0
  3092     0B3E  085A               	movf	?___fladd+1,w
  3093     0B3F  1683               	bsf	3,5	;RP0=1, select bank1
  3094     0B40  1303               	bcf	3,6	;RP1=0, select bank1
  3095     0B41  00AD               	movwf	(eval_poly@res+1)^(0+128)
  3096     0B42  1283               	bcf	3,5	;RP0=0, select bank0
  3097     0B43  1303               	bcf	3,6	;RP1=0, select bank0
  3098     0B44  0859               	movf	?___fladd,w
  3099     0B45  1683               	bsf	3,5	;RP0=1, select bank1
  3100     0B46  1303               	bcf	3,6	;RP1=0, select bank1
  3101     0B47  00AC               	movwf	eval_poly@res^(0+128)
  3102     0B48                     l3195:
  3103     0B48  0825               	movf	eval_poly@n^(0+128),w
  3104     0B49  0426               	iorwf	(eval_poly@n+1)^(0+128),w
  3105     0B4A  1D03               	btfss	3,2
  3106     0B4B  2B4D               	goto	u4741
  3107     0B4C  2B4E               	goto	u4740
  3108     0B4D                     u4741:
  3109     0B4D  2AAC               	goto	l3193
  3110     0B4E                     u4740:
  3111     0B4E                     l3197:
  3112     0B4E  082F               	movf	(eval_poly@res+3)^(0+128),w
  3113     0B4F  00A3               	movwf	(?_eval_poly+3)^(0+128)
  3114     0B50  082E               	movf	(eval_poly@res+2)^(0+128),w
  3115     0B51  00A2               	movwf	(?_eval_poly+2)^(0+128)
  3116     0B52  082D               	movf	(eval_poly@res+1)^(0+128),w
  3117     0B53  00A1               	movwf	(?_eval_poly+1)^(0+128)
  3118     0B54  082C               	movf	eval_poly@res^(0+128),w
  3119     0B55  00A0               	movwf	?_eval_poly^(0+128)
  3120     0B56                     l685:
  3121     0B56  0008               	return
  3122     0B57                     __end_of_eval_poly:
  3123                           
  3124                           	psect	text9
  3125     04AE                     __ptext9:	
  3126 ;; *************** function ___flmul *****************
  3127 ;; Defined at:
  3128 ;;		line 8 in file "C:\Program Files\Microchip\xc8\v2.41\pic\sources\c90\common\sprcmul.c"
  3129 ;; Parameters:    Size  Location     Type
  3130 ;;  b               4    5[BANK0 ] int 
  3131 ;;  a               4    9[BANK0 ] int 
  3132 ;; Auto vars:     Size  Location     Type
  3133 ;;  prod            4   25[BANK0 ] struct .
  3134 ;;  grs             4   20[BANK0 ] unsigned long 
  3135 ;;  temp            2   29[BANK0 ] struct .
  3136 ;;  bexp            1   24[BANK0 ] unsigned char 
  3137 ;;  aexp            1   19[BANK0 ] unsigned char 
  3138 ;;  sign            1   18[BANK0 ] unsigned char 
  3139 ;; Return value:  Size  Location     Type
  3140 ;;                  4    5[BANK0 ] unsigned char 
  3141 ;; Registers used:
  3142 ;;		wreg, status,2, status,0, btemp+1, pclath, cstack
  3143 ;; Tracked objects:
  3144 ;;		On entry : 0/0
  3145 ;;		On exit  : 0/0
  3146 ;;		Unchanged: 0/0
  3147 ;; Data sizes:     COMMON   BANK0   BANK1   BANK3   BANK2
  3148 ;;      Params:         0       8       0       0       0
  3149 ;;      Locals:         0      13       0       0       0
  3150 ;;      Temps:          0       5       0       0       0
  3151 ;;      Totals:         0      26       0       0       0
  3152 ;;Total ram usage:       26 bytes
  3153 ;; Hardware stack levels used: 1
  3154 ;; Hardware stack levels required when called: 1
  3155 ;; This function calls:
  3156 ;;		__Umul8_16
  3157 ;; This function is called by:
  3158 ;;		_log
  3159 ;;		_eval_poly
  3160 ;; This function uses a non-reentrant model
  3161 ;;
  3162                           
  3163     04AE                     ___flmul:	
  3164                           ;psect for function ___flmul
  3165                           
  3166     04AE                     l2961:	
  3167                           ;incstack = 0
  3168                           ; Regs used in ___flmul: [wreg+status,2+status,0+btemp+1+pclath+cstack]
  3169                           
  3170     04AE  1283               	bcf	3,5	;RP0=0, select bank0
  3171     04AF  1303               	bcf	3,6	;RP1=0, select bank0
  3172     04B0  0828               	movf	___flmul@b+3,w
  3173     04B1  3980               	andlw	128
  3174     04B2  00B2               	movwf	___flmul@sign
  3175     04B3                     l2963:
  3176     04B3  0828               	movf	___flmul@b+3,w
  3177     04B4  00AD               	movwf	??___flmul
  3178     04B5  072D               	addwf	??___flmul,w
  3179     04B6  00B8               	movwf	___flmul@bexp
  3180     04B7                     l2965:
  3181     04B7  1FA7               	btfss	___flmul@b+2,7
  3182     04B8  2CBA               	goto	u4131
  3183     04B9  2CBB               	goto	u4130
  3184     04BA                     u4131:
  3185     04BA  2CBC               	goto	l2969
  3186     04BB                     u4130:
  3187     04BB                     l2967:
  3188     04BB  1438               	bsf	___flmul@bexp,0
  3189     04BC                     l2969:
  3190     04BC  0838               	movf	___flmul@bexp,w
  3191     04BD  1903               	btfsc	3,2
  3192     04BE  2CC0               	goto	u4141
  3193     04BF  2CC1               	goto	u4140
  3194     04C0                     u4141:
  3195     04C0  2CD0               	goto	l2977
  3196     04C1                     u4140:
  3197     04C1                     l2971:
  3198     04C1  0A38               	incf	___flmul@bexp,w
  3199     04C2  1D03               	btfss	3,2
  3200     04C3  2CC5               	goto	u4151
  3201     04C4  2CC6               	goto	u4150
  3202     04C5                     u4151:
  3203     04C5  2CCE               	goto	l2975
  3204     04C6                     u4150:
  3205     04C6                     l2973:
  3206     04C6  3000               	movlw	0
  3207     04C7  00A8               	movwf	___flmul@b+3
  3208     04C8  3000               	movlw	0
  3209     04C9  00A7               	movwf	___flmul@b+2
  3210     04CA  3000               	movlw	0
  3211     04CB  00A6               	movwf	___flmul@b+1
  3212     04CC  3000               	movlw	0
  3213     04CD  00A5               	movwf	___flmul@b
  3214     04CE                     l2975:
  3215     04CE  17A7               	bsf	___flmul@b+2,7
  3216     04CF  2CD8               	goto	l2979
  3217     04D0                     l2977:
  3218     04D0  3000               	movlw	0
  3219     04D1  00A8               	movwf	___flmul@b+3
  3220     04D2  3000               	movlw	0
  3221     04D3  00A7               	movwf	___flmul@b+2
  3222     04D4  3000               	movlw	0
  3223     04D5  00A6               	movwf	___flmul@b+1
  3224     04D6  3000               	movlw	0
  3225     04D7  00A5               	movwf	___flmul@b
  3226     04D8                     l2979:
  3227     04D8  082C               	movf	___flmul@a+3,w
  3228     04D9  3980               	andlw	128
  3229     04DA  00FF               	movwf	btemp+1
  3230     04DB  087F               	movf	btemp+1,w
  3231     04DC  06B2               	xorwf	___flmul@sign,f
  3232     04DD                     l2981:
  3233     04DD  082C               	movf	___flmul@a+3,w
  3234     04DE  00AD               	movwf	??___flmul
  3235     04DF  072D               	addwf	??___flmul,w
  3236     04E0  00B3               	movwf	___flmul@aexp
  3237     04E1                     l2983:
  3238     04E1  1FAB               	btfss	___flmul@a+2,7
  3239     04E2  2CE4               	goto	u4161
  3240     04E3  2CE5               	goto	u4160
  3241     04E4                     u4161:
  3242     04E4  2CE6               	goto	l2987
  3243     04E5                     u4160:
  3244     04E5                     l2985:
  3245     04E5  1433               	bsf	___flmul@aexp,0
  3246     04E6                     l2987:
  3247     04E6  0833               	movf	___flmul@aexp,w
  3248     04E7  1903               	btfsc	3,2
  3249     04E8  2CEA               	goto	u4171
  3250     04E9  2CEB               	goto	u4170
  3251     04EA                     u4171:
  3252     04EA  2CFA               	goto	l2995
  3253     04EB                     u4170:
  3254     04EB                     l2989:
  3255     04EB  0A33               	incf	___flmul@aexp,w
  3256     04EC  1D03               	btfss	3,2
  3257     04ED  2CEF               	goto	u4181
  3258     04EE  2CF0               	goto	u4180
  3259     04EF                     u4181:
  3260     04EF  2CF8               	goto	l2993
  3261     04F0                     u4180:
  3262     04F0                     l2991:
  3263     04F0  3000               	movlw	0
  3264     04F1  00AC               	movwf	___flmul@a+3
  3265     04F2  3000               	movlw	0
  3266     04F3  00AB               	movwf	___flmul@a+2
  3267     04F4  3000               	movlw	0
  3268     04F5  00AA               	movwf	___flmul@a+1
  3269     04F6  3000               	movlw	0
  3270     04F7  00A9               	movwf	___flmul@a
  3271     04F8                     l2993:
  3272     04F8  17AB               	bsf	___flmul@a+2,7
  3273     04F9  2D02               	goto	l2997
  3274     04FA                     l2995:
  3275     04FA  3000               	movlw	0
  3276     04FB  00AC               	movwf	___flmul@a+3
  3277     04FC  3000               	movlw	0
  3278     04FD  00AB               	movwf	___flmul@a+2
  3279     04FE  3000               	movlw	0
  3280     04FF  00AA               	movwf	___flmul@a+1
  3281     0500  3000               	movlw	0
  3282     0501  00A9               	movwf	___flmul@a
  3283     0502                     l2997:
  3284     0502  0833               	movf	___flmul@aexp,w
  3285     0503  1903               	btfsc	3,2
  3286     0504  2D06               	goto	u4191
  3287     0505  2D07               	goto	u4190
  3288     0506                     u4191:
  3289     0506  2D0C               	goto	l3001
  3290     0507                     u4190:
  3291     0507                     l2999:
  3292     0507  0838               	movf	___flmul@bexp,w
  3293     0508  1D03               	btfss	3,2
  3294     0509  2D0B               	goto	u4201
  3295     050A  2D0C               	goto	u4200
  3296     050B                     u4201:
  3297     050B  2D15               	goto	l3005
  3298     050C                     u4200:
  3299     050C                     l3001:
  3300     050C  3000               	movlw	0
  3301     050D  00A8               	movwf	?___flmul+3
  3302     050E  3000               	movlw	0
  3303     050F  00A7               	movwf	?___flmul+2
  3304     0510  3000               	movlw	0
  3305     0511  00A6               	movwf	?___flmul+1
  3306     0512  3000               	movlw	0
  3307     0513  00A5               	movwf	?___flmul
  3308     0514  2FF2               	goto	l602
  3309     0515                     l3005:
  3310     0515  0825               	movf	___flmul@b,w
  3311     0516  00F0               	movwf	__Umul8_16@multiplicand
  3312     0517  082B               	movf	___flmul@a+2,w
  3313     0518  160A  118A  26C5  120A  118A  	fcall	__Umul8_16
  3314     051D  0871               	movf	?__Umul8_16+1,w
  3315     051E  1283               	bcf	3,5	;RP0=0, select bank0
  3316     051F  1303               	bcf	3,6	;RP1=0, select bank0
  3317     0520  00BE               	movwf	___flmul@temp+1
  3318     0521  0870               	movf	?__Umul8_16,w
  3319     0522  00BD               	movwf	___flmul@temp
  3320     0523                     l3007:
  3321     0523  083D               	movf	___flmul@temp,w
  3322     0524  00AD               	movwf	??___flmul
  3323     0525  01AE               	clrf	??___flmul+1
  3324     0526  01AF               	clrf	??___flmul+2
  3325     0527  01B0               	clrf	??___flmul+3
  3326     0528  0830               	movf	??___flmul+3,w
  3327     0529  00B7               	movwf	___flmul@grs+3
  3328     052A  082F               	movf	??___flmul+2,w
  3329     052B  00B6               	movwf	___flmul@grs+2
  3330     052C  082E               	movf	??___flmul+1,w
  3331     052D  00B5               	movwf	___flmul@grs+1
  3332     052E  082D               	movf	??___flmul,w
  3333     052F  00B4               	movwf	___flmul@grs
  3334     0530                     l3009:
  3335     0530  083E               	movf	___flmul@temp+1,w
  3336     0531  00AD               	movwf	??___flmul
  3337     0532  01AE               	clrf	??___flmul+1
  3338     0533  01AF               	clrf	??___flmul+2
  3339     0534  01B0               	clrf	??___flmul+3
  3340     0535  0830               	movf	??___flmul+3,w
  3341     0536  00BC               	movwf	___flmul@prod+3
  3342     0537  082F               	movf	??___flmul+2,w
  3343     0538  00BB               	movwf	___flmul@prod+2
  3344     0539  082E               	movf	??___flmul+1,w
  3345     053A  00BA               	movwf	___flmul@prod+1
  3346     053B  082D               	movf	??___flmul,w
  3347     053C  00B9               	movwf	___flmul@prod
  3348     053D  0826               	movf	___flmul@b+1,w
  3349     053E  00F0               	movwf	__Umul8_16@multiplicand
  3350     053F  082A               	movf	___flmul@a+1,w
  3351     0540  160A  118A  26C5  120A  118A  	fcall	__Umul8_16
  3352     0545  0871               	movf	?__Umul8_16+1,w
  3353     0546  1283               	bcf	3,5	;RP0=0, select bank0
  3354     0547  1303               	bcf	3,6	;RP1=0, select bank0
  3355     0548  00BE               	movwf	___flmul@temp+1
  3356     0549  0870               	movf	?__Umul8_16,w
  3357     054A  00BD               	movwf	___flmul@temp
  3358     054B                     l3011:
  3359     054B  083D               	movf	___flmul@temp,w
  3360     054C  00AD               	movwf	??___flmul
  3361     054D  01AE               	clrf	??___flmul+1
  3362     054E  01AF               	clrf	??___flmul+2
  3363     054F  01B0               	clrf	??___flmul+3
  3364     0550  082D               	movf	??___flmul,w
  3365     0551  07B4               	addwf	___flmul@grs,f
  3366     0552  082E               	movf	??___flmul+1,w
  3367     0553  1103               	clrz
  3368     0554  1803               	skipnc
  3369     0555  3E01               	addlw	1
  3370     0556  1903               	skipnz
  3371     0557  2D59               	goto	u4211
  3372     0558  07B5               	addwf	___flmul@grs+1,f
  3373     0559                     u4211:
  3374     0559  082F               	movf	??___flmul+2,w
  3375     055A  1103               	clrz
  3376     055B  1803               	skipnc
  3377     055C  3E01               	addlw	1
  3378     055D  1903               	skipnz
  3379     055E  2D60               	goto	u4212
  3380     055F  07B6               	addwf	___flmul@grs+2,f
  3381     0560                     u4212:
  3382     0560  0830               	movf	??___flmul+3,w
  3383     0561  1103               	clrz
  3384     0562  1803               	skipnc
  3385     0563  3E01               	addlw	1
  3386     0564  1903               	skipnz
  3387     0565  2D67               	goto	u4213
  3388     0566  07B7               	addwf	___flmul@grs+3,f
  3389     0567                     u4213:
  3390     0567                     l3013:
  3391     0567  083E               	movf	___flmul@temp+1,w
  3392     0568  00AD               	movwf	??___flmul
  3393     0569  01AE               	clrf	??___flmul+1
  3394     056A  01AF               	clrf	??___flmul+2
  3395     056B  01B0               	clrf	??___flmul+3
  3396     056C  082D               	movf	??___flmul,w
  3397     056D  07B9               	addwf	___flmul@prod,f
  3398     056E  082E               	movf	??___flmul+1,w
  3399     056F  1103               	clrz
  3400     0570  1803               	skipnc
  3401     0571  3E01               	addlw	1
  3402     0572  1903               	skipnz
  3403     0573  2D75               	goto	u4221
  3404     0574  07BA               	addwf	___flmul@prod+1,f
  3405     0575                     u4221:
  3406     0575  082F               	movf	??___flmul+2,w
  3407     0576  1103               	clrz
  3408     0577  1803               	skipnc
  3409     0578  3E01               	addlw	1
  3410     0579  1903               	skipnz
  3411     057A  2D7C               	goto	u4222
  3412     057B  07BB               	addwf	___flmul@prod+2,f
  3413     057C                     u4222:
  3414     057C  0830               	movf	??___flmul+3,w
  3415     057D  1103               	clrz
  3416     057E  1803               	skipnc
  3417     057F  3E01               	addlw	1
  3418     0580  1903               	skipnz
  3419     0581  2D83               	goto	u4223
  3420     0582  07BC               	addwf	___flmul@prod+3,f
  3421     0583                     u4223:
  3422     0583  0827               	movf	___flmul@b+2,w
  3423     0584  00F0               	movwf	__Umul8_16@multiplicand
  3424     0585  0829               	movf	___flmul@a,w
  3425     0586  160A  118A  26C5  120A  118A  	fcall	__Umul8_16
  3426     058B  0871               	movf	?__Umul8_16+1,w
  3427     058C  1283               	bcf	3,5	;RP0=0, select bank0
  3428     058D  1303               	bcf	3,6	;RP1=0, select bank0
  3429     058E  00BE               	movwf	___flmul@temp+1
  3430     058F  0870               	movf	?__Umul8_16,w
  3431     0590  00BD               	movwf	___flmul@temp
  3432     0591                     l3015:
  3433     0591  083D               	movf	___flmul@temp,w
  3434     0592  00AD               	movwf	??___flmul
  3435     0593  01AE               	clrf	??___flmul+1
  3436     0594  01AF               	clrf	??___flmul+2
  3437     0595  01B0               	clrf	??___flmul+3
  3438     0596  082D               	movf	??___flmul,w
  3439     0597  07B4               	addwf	___flmul@grs,f
  3440     0598  082E               	movf	??___flmul+1,w
  3441     0599  1103               	clrz
  3442     059A  1803               	skipnc
  3443     059B  3E01               	addlw	1
  3444     059C  1903               	skipnz
  3445     059D  2D9F               	goto	u4231
  3446     059E  07B5               	addwf	___flmul@grs+1,f
  3447     059F                     u4231:
  3448     059F  082F               	movf	??___flmul+2,w
  3449     05A0  1103               	clrz
  3450     05A1  1803               	skipnc
  3451     05A2  3E01               	addlw	1
  3452     05A3  1903               	skipnz
  3453     05A4  2DA6               	goto	u4232
  3454     05A5  07B6               	addwf	___flmul@grs+2,f
  3455     05A6                     u4232:
  3456     05A6  0830               	movf	??___flmul+3,w
  3457     05A7  1103               	clrz
  3458     05A8  1803               	skipnc
  3459     05A9  3E01               	addlw	1
  3460     05AA  1903               	skipnz
  3461     05AB  2DAD               	goto	u4233
  3462     05AC  07B7               	addwf	___flmul@grs+3,f
  3463     05AD                     u4233:
  3464     05AD                     l3017:
  3465     05AD  083E               	movf	___flmul@temp+1,w
  3466     05AE  00AD               	movwf	??___flmul
  3467     05AF  01AE               	clrf	??___flmul+1
  3468     05B0  01AF               	clrf	??___flmul+2
  3469     05B1  01B0               	clrf	??___flmul+3
  3470     05B2  082D               	movf	??___flmul,w
  3471     05B3  07B9               	addwf	___flmul@prod,f
  3472     05B4  082E               	movf	??___flmul+1,w
  3473     05B5  1103               	clrz
  3474     05B6  1803               	skipnc
  3475     05B7  3E01               	addlw	1
  3476     05B8  1903               	skipnz
  3477     05B9  2DBB               	goto	u4241
  3478     05BA  07BA               	addwf	___flmul@prod+1,f
  3479     05BB                     u4241:
  3480     05BB  082F               	movf	??___flmul+2,w
  3481     05BC  1103               	clrz
  3482     05BD  1803               	skipnc
  3483     05BE  3E01               	addlw	1
  3484     05BF  1903               	skipnz
  3485     05C0  2DC2               	goto	u4242
  3486     05C1  07BB               	addwf	___flmul@prod+2,f
  3487     05C2                     u4242:
  3488     05C2  0830               	movf	??___flmul+3,w
  3489     05C3  1103               	clrz
  3490     05C4  1803               	skipnc
  3491     05C5  3E01               	addlw	1
  3492     05C6  1903               	skipnz
  3493     05C7  2DC9               	goto	u4243
  3494     05C8  07BC               	addwf	___flmul@prod+3,f
  3495     05C9                     u4243:
  3496     05C9                     l3019:
  3497     05C9  3008               	movlw	8
  3498     05CA  00AD               	movwf	??___flmul
  3499     05CB                     u4255:
  3500     05CB  1003               	clrc
  3501     05CC  0DB4               	rlf	___flmul@grs,f
  3502     05CD  0DB5               	rlf	___flmul@grs+1,f
  3503     05CE  0DB6               	rlf	___flmul@grs+2,f
  3504     05CF  0DB7               	rlf	___flmul@grs+3,f
  3505     05D0  0BAD               	decfsz	??___flmul,f
  3506     05D1  2DCB               	goto	u4255
  3507     05D2                     l3021:
  3508     05D2  0826               	movf	___flmul@b+1,w
  3509     05D3  00F0               	movwf	__Umul8_16@multiplicand
  3510     05D4  0829               	movf	___flmul@a,w
  3511     05D5  160A  118A  26C5  120A  118A  	fcall	__Umul8_16
  3512     05DA  0871               	movf	?__Umul8_16+1,w
  3513     05DB  1283               	bcf	3,5	;RP0=0, select bank0
  3514     05DC  1303               	bcf	3,6	;RP1=0, select bank0
  3515     05DD  00BE               	movwf	___flmul@temp+1
  3516     05DE  0870               	movf	?__Umul8_16,w
  3517     05DF  00BD               	movwf	___flmul@temp
  3518     05E0                     l3023:
  3519     05E0  083D               	movf	___flmul@temp,w
  3520     05E1  00AD               	movwf	??___flmul
  3521     05E2  083E               	movf	___flmul@temp+1,w
  3522     05E3  00AE               	movwf	??___flmul+1
  3523     05E4  01AF               	clrf	??___flmul+2
  3524     05E5  01B0               	clrf	??___flmul+3
  3525     05E6  082D               	movf	??___flmul,w
  3526     05E7  07B4               	addwf	___flmul@grs,f
  3527     05E8  082E               	movf	??___flmul+1,w
  3528     05E9  1103               	clrz
  3529     05EA  1803               	skipnc
  3530     05EB  3E01               	addlw	1
  3531     05EC  1903               	skipnz
  3532     05ED  2DEF               	goto	u4261
  3533     05EE  07B5               	addwf	___flmul@grs+1,f
  3534     05EF                     u4261:
  3535     05EF  082F               	movf	??___flmul+2,w
  3536     05F0  1103               	clrz
  3537     05F1  1803               	skipnc
  3538     05F2  3E01               	addlw	1
  3539     05F3  1903               	skipnz
  3540     05F4  2DF6               	goto	u4262
  3541     05F5  07B6               	addwf	___flmul@grs+2,f
  3542     05F6                     u4262:
  3543     05F6  0830               	movf	??___flmul+3,w
  3544     05F7  1103               	clrz
  3545     05F8  1803               	skipnc
  3546     05F9  3E01               	addlw	1
  3547     05FA  1903               	skipnz
  3548     05FB  2DFD               	goto	u4263
  3549     05FC  07B7               	addwf	___flmul@grs+3,f
  3550     05FD                     u4263:
  3551     05FD                     l3025:
  3552     05FD  0825               	movf	___flmul@b,w
  3553     05FE  00F0               	movwf	__Umul8_16@multiplicand
  3554     05FF  082A               	movf	___flmul@a+1,w
  3555     0600  160A  118A  26C5  120A  118A  	fcall	__Umul8_16
  3556     0605  0871               	movf	?__Umul8_16+1,w
  3557     0606  1283               	bcf	3,5	;RP0=0, select bank0
  3558     0607  1303               	bcf	3,6	;RP1=0, select bank0
  3559     0608  00BE               	movwf	___flmul@temp+1
  3560     0609  0870               	movf	?__Umul8_16,w
  3561     060A  00BD               	movwf	___flmul@temp
  3562     060B                     l3027:
  3563     060B  083D               	movf	___flmul@temp,w
  3564     060C  00AD               	movwf	??___flmul
  3565     060D  083E               	movf	___flmul@temp+1,w
  3566     060E  00AE               	movwf	??___flmul+1
  3567     060F  01AF               	clrf	??___flmul+2
  3568     0610  01B0               	clrf	??___flmul+3
  3569     0611  082D               	movf	??___flmul,w
  3570     0612  07B4               	addwf	___flmul@grs,f
  3571     0613  082E               	movf	??___flmul+1,w
  3572     0614  1103               	clrz
  3573     0615  1803               	skipnc
  3574     0616  3E01               	addlw	1
  3575     0617  1903               	skipnz
  3576     0618  2E1A               	goto	u4271
  3577     0619  07B5               	addwf	___flmul@grs+1,f
  3578     061A                     u4271:
  3579     061A  082F               	movf	??___flmul+2,w
  3580     061B  1103               	clrz
  3581     061C  1803               	skipnc
  3582     061D  3E01               	addlw	1
  3583     061E  1903               	skipnz
  3584     061F  2E21               	goto	u4272
  3585     0620  07B6               	addwf	___flmul@grs+2,f
  3586     0621                     u4272:
  3587     0621  0830               	movf	??___flmul+3,w
  3588     0622  1103               	clrz
  3589     0623  1803               	skipnc
  3590     0624  3E01               	addlw	1
  3591     0625  1903               	skipnz
  3592     0626  2E28               	goto	u4273
  3593     0627  07B7               	addwf	___flmul@grs+3,f
  3594     0628                     u4273:
  3595     0628                     l3029:
  3596     0628  3008               	movlw	8
  3597     0629  00AD               	movwf	??___flmul
  3598     062A                     u4285:
  3599     062A  1003               	clrc
  3600     062B  0DB4               	rlf	___flmul@grs,f
  3601     062C  0DB5               	rlf	___flmul@grs+1,f
  3602     062D  0DB6               	rlf	___flmul@grs+2,f
  3603     062E  0DB7               	rlf	___flmul@grs+3,f
  3604     062F  0BAD               	decfsz	??___flmul,f
  3605     0630  2E2A               	goto	u4285
  3606     0631  0825               	movf	___flmul@b,w
  3607     0632  00F0               	movwf	__Umul8_16@multiplicand
  3608     0633  0829               	movf	___flmul@a,w
  3609     0634  160A  118A  26C5  120A  118A  	fcall	__Umul8_16
  3610     0639  0871               	movf	?__Umul8_16+1,w
  3611     063A  1283               	bcf	3,5	;RP0=0, select bank0
  3612     063B  1303               	bcf	3,6	;RP1=0, select bank0
  3613     063C  00BE               	movwf	___flmul@temp+1
  3614     063D  0870               	movf	?__Umul8_16,w
  3615     063E  00BD               	movwf	___flmul@temp
  3616     063F                     l3031:
  3617     063F  083D               	movf	___flmul@temp,w
  3618     0640  00AD               	movwf	??___flmul
  3619     0641  083E               	movf	___flmul@temp+1,w
  3620     0642  00AE               	movwf	??___flmul+1
  3621     0643  01AF               	clrf	??___flmul+2
  3622     0644  01B0               	clrf	??___flmul+3
  3623     0645  082D               	movf	??___flmul,w
  3624     0646  07B4               	addwf	___flmul@grs,f
  3625     0647  082E               	movf	??___flmul+1,w
  3626     0648  1103               	clrz
  3627     0649  1803               	skipnc
  3628     064A  3E01               	addlw	1
  3629     064B  1903               	skipnz
  3630     064C  2E4E               	goto	u4291
  3631     064D  07B5               	addwf	___flmul@grs+1,f
  3632     064E                     u4291:
  3633     064E  082F               	movf	??___flmul+2,w
  3634     064F  1103               	clrz
  3635     0650  1803               	skipnc
  3636     0651  3E01               	addlw	1
  3637     0652  1903               	skipnz
  3638     0653  2E55               	goto	u4292
  3639     0654  07B6               	addwf	___flmul@grs+2,f
  3640     0655                     u4292:
  3641     0655  0830               	movf	??___flmul+3,w
  3642     0656  1103               	clrz
  3643     0657  1803               	skipnc
  3644     0658  3E01               	addlw	1
  3645     0659  1903               	skipnz
  3646     065A  2E5C               	goto	u4293
  3647     065B  07B7               	addwf	___flmul@grs+3,f
  3648     065C                     u4293:
  3649     065C                     l3033:
  3650     065C  0826               	movf	___flmul@b+1,w
  3651     065D  00F0               	movwf	__Umul8_16@multiplicand
  3652     065E  082B               	movf	___flmul@a+2,w
  3653     065F  160A  118A  26C5  120A  118A  	fcall	__Umul8_16
  3654     0664  0871               	movf	?__Umul8_16+1,w
  3655     0665  1283               	bcf	3,5	;RP0=0, select bank0
  3656     0666  1303               	bcf	3,6	;RP1=0, select bank0
  3657     0667  00BE               	movwf	___flmul@temp+1
  3658     0668  0870               	movf	?__Umul8_16,w
  3659     0669  00BD               	movwf	___flmul@temp
  3660     066A  083D               	movf	___flmul@temp,w
  3661     066B  00AD               	movwf	??___flmul
  3662     066C  083E               	movf	___flmul@temp+1,w
  3663     066D  00AE               	movwf	??___flmul+1
  3664     066E  01AF               	clrf	??___flmul+2
  3665     066F  01B0               	clrf	??___flmul+3
  3666     0670  082D               	movf	??___flmul,w
  3667     0671  07B9               	addwf	___flmul@prod,f
  3668     0672  082E               	movf	??___flmul+1,w
  3669     0673  1103               	clrz
  3670     0674  1803               	skipnc
  3671     0675  3E01               	addlw	1
  3672     0676  1903               	skipnz
  3673     0677  2E79               	goto	u4301
  3674     0678  07BA               	addwf	___flmul@prod+1,f
  3675     0679                     u4301:
  3676     0679  082F               	movf	??___flmul+2,w
  3677     067A  1103               	clrz
  3678     067B  1803               	skipnc
  3679     067C  3E01               	addlw	1
  3680     067D  1903               	skipnz
  3681     067E  2E80               	goto	u4302
  3682     067F  07BB               	addwf	___flmul@prod+2,f
  3683     0680                     u4302:
  3684     0680  0830               	movf	??___flmul+3,w
  3685     0681  1103               	clrz
  3686     0682  1803               	skipnc
  3687     0683  3E01               	addlw	1
  3688     0684  1903               	skipnz
  3689     0685  2E87               	goto	u4303
  3690     0686  07BC               	addwf	___flmul@prod+3,f
  3691     0687                     u4303:
  3692     0687                     l3035:
  3693     0687  0827               	movf	___flmul@b+2,w
  3694     0688  00F0               	movwf	__Umul8_16@multiplicand
  3695     0689  082A               	movf	___flmul@a+1,w
  3696     068A  160A  118A  26C5  120A  118A  	fcall	__Umul8_16
  3697     068F  0871               	movf	?__Umul8_16+1,w
  3698     0690  1283               	bcf	3,5	;RP0=0, select bank0
  3699     0691  1303               	bcf	3,6	;RP1=0, select bank0
  3700     0692  00BE               	movwf	___flmul@temp+1
  3701     0693  0870               	movf	?__Umul8_16,w
  3702     0694  00BD               	movwf	___flmul@temp
  3703     0695                     l3037:
  3704     0695  083D               	movf	___flmul@temp,w
  3705     0696  00AD               	movwf	??___flmul
  3706     0697  083E               	movf	___flmul@temp+1,w
  3707     0698  00AE               	movwf	??___flmul+1
  3708     0699  01AF               	clrf	??___flmul+2
  3709     069A  01B0               	clrf	??___flmul+3
  3710     069B  082D               	movf	??___flmul,w
  3711     069C  07B9               	addwf	___flmul@prod,f
  3712     069D  082E               	movf	??___flmul+1,w
  3713     069E  1103               	clrz
  3714     069F  1803               	skipnc
  3715     06A0  3E01               	addlw	1
  3716     06A1  1903               	skipnz
  3717     06A2  2EA4               	goto	u4311
  3718     06A3  07BA               	addwf	___flmul@prod+1,f
  3719     06A4                     u4311:
  3720     06A4  082F               	movf	??___flmul+2,w
  3721     06A5  1103               	clrz
  3722     06A6  1803               	skipnc
  3723     06A7  3E01               	addlw	1
  3724     06A8  1903               	skipnz
  3725     06A9  2EAB               	goto	u4312
  3726     06AA  07BB               	addwf	___flmul@prod+2,f
  3727     06AB                     u4312:
  3728     06AB  0830               	movf	??___flmul+3,w
  3729     06AC  1103               	clrz
  3730     06AD  1803               	skipnc
  3731     06AE  3E01               	addlw	1
  3732     06AF  1903               	skipnz
  3733     06B0  2EB2               	goto	u4313
  3734     06B1  07BC               	addwf	___flmul@prod+3,f
  3735     06B2                     u4313:
  3736     06B2  0827               	movf	___flmul@b+2,w
  3737     06B3  00F0               	movwf	__Umul8_16@multiplicand
  3738     06B4  082B               	movf	___flmul@a+2,w
  3739     06B5  160A  118A  26C5  120A  118A  	fcall	__Umul8_16
  3740     06BA  0871               	movf	?__Umul8_16+1,w
  3741     06BB  1283               	bcf	3,5	;RP0=0, select bank0
  3742     06BC  1303               	bcf	3,6	;RP1=0, select bank0
  3743     06BD  00BE               	movwf	___flmul@temp+1
  3744     06BE  0870               	movf	?__Umul8_16,w
  3745     06BF  00BD               	movwf	___flmul@temp
  3746     06C0                     l3039:
  3747     06C0  083D               	movf	___flmul@temp,w
  3748     06C1  00AD               	movwf	??___flmul
  3749     06C2  083E               	movf	___flmul@temp+1,w
  3750     06C3  00AE               	movwf	??___flmul+1
  3751     06C4  01AF               	clrf	??___flmul+2
  3752     06C5  01B0               	clrf	??___flmul+3
  3753     06C6  3008               	movlw	8
  3754     06C7                     u4325:
  3755     06C7  1003               	clrc
  3756     06C8  0DAD               	rlf	??___flmul,f
  3757     06C9  0DAE               	rlf	??___flmul+1,f
  3758     06CA  0DAF               	rlf	??___flmul+2,f
  3759     06CB  0DB0               	rlf	??___flmul+3,f
  3760     06CC                     u4320:
  3761     06CC  3EFF               	addlw	-1
  3762     06CD  1D03               	skipz
  3763     06CE  2EC7               	goto	u4325
  3764     06CF  082D               	movf	??___flmul,w
  3765     06D0  07B9               	addwf	___flmul@prod,f
  3766     06D1  082E               	movf	??___flmul+1,w
  3767     06D2  1103               	clrz
  3768     06D3  1803               	skipnc
  3769     06D4  3E01               	addlw	1
  3770     06D5  1903               	skipnz
  3771     06D6  2ED8               	goto	u4331
  3772     06D7  07BA               	addwf	___flmul@prod+1,f
  3773     06D8                     u4331:
  3774     06D8  082F               	movf	??___flmul+2,w
  3775     06D9  1103               	clrz
  3776     06DA  1803               	skipnc
  3777     06DB  3E01               	addlw	1
  3778     06DC  1903               	skipnz
  3779     06DD  2EDF               	goto	u4332
  3780     06DE  07BB               	addwf	___flmul@prod+2,f
  3781     06DF                     u4332:
  3782     06DF  0830               	movf	??___flmul+3,w
  3783     06E0  1103               	clrz
  3784     06E1  1803               	skipnc
  3785     06E2  3E01               	addlw	1
  3786     06E3  1903               	skipnz
  3787     06E4  2EE6               	goto	u4333
  3788     06E5  07BC               	addwf	___flmul@prod+3,f
  3789     06E6                     u4333:
  3790     06E6                     l3041:
  3791     06E6  0834               	movf	___flmul@grs,w
  3792     06E7  00AD               	movwf	??___flmul
  3793     06E8  0835               	movf	___flmul@grs+1,w
  3794     06E9  00AE               	movwf	??___flmul+1
  3795     06EA  0836               	movf	___flmul@grs+2,w
  3796     06EB  00AF               	movwf	??___flmul+2
  3797     06EC  0837               	movf	___flmul@grs+3,w
  3798     06ED  00B0               	movwf	??___flmul+3
  3799     06EE  3018               	movlw	24
  3800     06EF                     u4345:
  3801     06EF  1003               	clrc
  3802     06F0  0CB0               	rrf	??___flmul+3,f
  3803     06F1  0CAF               	rrf	??___flmul+2,f
  3804     06F2  0CAE               	rrf	??___flmul+1,f
  3805     06F3  0CAD               	rrf	??___flmul,f
  3806     06F4                     u4340:
  3807     06F4  3EFF               	addlw	-1
  3808     06F5  1D03               	skipz
  3809     06F6  2EEF               	goto	u4345
  3810     06F7  082D               	movf	??___flmul,w
  3811     06F8  07B9               	addwf	___flmul@prod,f
  3812     06F9  082E               	movf	??___flmul+1,w
  3813     06FA  1103               	clrz
  3814     06FB  1803               	skipnc
  3815     06FC  3E01               	addlw	1
  3816     06FD  1903               	skipnz
  3817     06FE  2F00               	goto	u4351
  3818     06FF  07BA               	addwf	___flmul@prod+1,f
  3819     0700                     u4351:
  3820     0700  082F               	movf	??___flmul+2,w
  3821     0701  1103               	clrz
  3822     0702  1803               	skipnc
  3823     0703  3E01               	addlw	1
  3824     0704  1903               	skipnz
  3825     0705  2F07               	goto	u4352
  3826     0706  07BB               	addwf	___flmul@prod+2,f
  3827     0707                     u4352:
  3828     0707  0830               	movf	??___flmul+3,w
  3829     0708  1103               	clrz
  3830     0709  1803               	skipnc
  3831     070A  3E01               	addlw	1
  3832     070B  1903               	skipnz
  3833     070C  2F0E               	goto	u4353
  3834     070D  07BC               	addwf	___flmul@prod+3,f
  3835     070E                     u4353:
  3836     070E                     l3043:
  3837     070E  3008               	movlw	8
  3838     070F  00AD               	movwf	??___flmul
  3839     0710                     u4365:
  3840     0710  1003               	clrc
  3841     0711  0DB4               	rlf	___flmul@grs,f
  3842     0712  0DB5               	rlf	___flmul@grs+1,f
  3843     0713  0DB6               	rlf	___flmul@grs+2,f
  3844     0714  0DB7               	rlf	___flmul@grs+3,f
  3845     0715  0BAD               	decfsz	??___flmul,f
  3846     0716  2F10               	goto	u4365
  3847     0717                     l3045:
  3848     0717  0838               	movf	___flmul@bexp,w
  3849     0718  0733               	addwf	___flmul@aexp,w
  3850     0719  00AD               	movwf	??___flmul
  3851     071A  01AE               	clrf	??___flmul+1
  3852     071B  0DAE               	rlf	??___flmul+1,f
  3853     071C  082D               	movf	??___flmul,w
  3854     071D  3E82               	addlw	130
  3855     071E  00BD               	movwf	___flmul@temp
  3856     071F  082E               	movf	??___flmul+1,w
  3857     0720  1803               	skipnc
  3858     0721  3E01               	addlw	1
  3859     0722  3EFF               	addlw	255
  3860     0723  00BE               	movwf	___flmul@temp+1
  3861     0724  2F42               	goto	l3057
  3862     0725                     l3047:
  3863     0725  3001               	movlw	1
  3864     0726  00AD               	movwf	??___flmul
  3865     0727                     u4375:
  3866     0727  1003               	clrc
  3867     0728  0DB9               	rlf	___flmul@prod,f
  3868     0729  0DBA               	rlf	___flmul@prod+1,f
  3869     072A  0DBB               	rlf	___flmul@prod+2,f
  3870     072B  0DBC               	rlf	___flmul@prod+3,f
  3871     072C  0BAD               	decfsz	??___flmul,f
  3872     072D  2F27               	goto	u4375
  3873     072E                     l3049:
  3874     072E  1FB7               	btfss	___flmul@grs+3,7
  3875     072F  2F31               	goto	u4381
  3876     0730  2F32               	goto	u4380
  3877     0731                     u4381:
  3878     0731  2F33               	goto	l3053
  3879     0732                     u4380:
  3880     0732                     l3051:
  3881     0732  1439               	bsf	___flmul@prod,0
  3882     0733                     l3053:
  3883     0733  3001               	movlw	1
  3884     0734  00AD               	movwf	??___flmul
  3885     0735                     u4395:
  3886     0735  1003               	clrc
  3887     0736  0DB4               	rlf	___flmul@grs,f
  3888     0737  0DB5               	rlf	___flmul@grs+1,f
  3889     0738  0DB6               	rlf	___flmul@grs+2,f
  3890     0739  0DB7               	rlf	___flmul@grs+3,f
  3891     073A  0BAD               	decfsz	??___flmul,f
  3892     073B  2F35               	goto	u4395
  3893     073C                     l3055:
  3894     073C  30FF               	movlw	255
  3895     073D  07BD               	addwf	___flmul@temp,f
  3896     073E  1803               	skipnc
  3897     073F  0ABE               	incf	___flmul@temp+1,f
  3898     0740  30FF               	movlw	255
  3899     0741  07BE               	addwf	___flmul@temp+1,f
  3900     0742                     l3057:
  3901     0742  1FBB               	btfss	___flmul@prod+2,7
  3902     0743  2F45               	goto	u4401
  3903     0744  2F46               	goto	u4400
  3904     0745                     u4401:
  3905     0745  2F25               	goto	l3047
  3906     0746                     u4400:
  3907     0746                     l3059:
  3908     0746  01B3               	clrf	___flmul@aexp
  3909     0747                     l3061:
  3910     0747  1FB7               	btfss	___flmul@grs+3,7
  3911     0748  2F4A               	goto	u4411
  3912     0749  2F4B               	goto	u4410
  3913     074A                     u4411:
  3914     074A  2F67               	goto	l3069
  3915     074B                     u4410:
  3916     074B                     l3063:
  3917     074B  30FF               	movlw	255
  3918     074C  0534               	andwf	___flmul@grs,w
  3919     074D  00AD               	movwf	??___flmul
  3920     074E  30FF               	movlw	255
  3921     074F  0535               	andwf	___flmul@grs+1,w
  3922     0750  00AE               	movwf	??___flmul+1
  3923     0751  30FF               	movlw	255
  3924     0752  0536               	andwf	___flmul@grs+2,w
  3925     0753  00AF               	movwf	??___flmul+2
  3926     0754  307F               	movlw	127
  3927     0755  0537               	andwf	___flmul@grs+3,w
  3928     0756  00B0               	movwf	??___flmul+3
  3929     0757  0830               	movf	??___flmul+3,w
  3930     0758  042F               	iorwf	??___flmul+2,w
  3931     0759  042E               	iorwf	??___flmul+1,w
  3932     075A  042D               	iorwf	??___flmul,w
  3933     075B  1903               	skipnz
  3934     075C  2F5E               	goto	u4421
  3935     075D  2F5F               	goto	u4420
  3936     075E                     u4421:
  3937     075E  2F62               	goto	l608
  3938     075F                     u4420:
  3939     075F                     l3065:
  3940     075F  01B3               	clrf	___flmul@aexp
  3941     0760  0AB3               	incf	___flmul@aexp,f
  3942     0761  2F67               	goto	l3069
  3943     0762                     l608:
  3944     0762  1C39               	btfss	___flmul@prod,0
  3945     0763  2F65               	goto	u4431
  3946     0764  2F66               	goto	u4430
  3947     0765                     u4431:
  3948     0765  2F67               	goto	l3069
  3949     0766                     u4430:
  3950     0766  2F5F               	goto	l3065
  3951     0767                     l3069:
  3952     0767  0833               	movf	___flmul@aexp,w
  3953     0768  1903               	btfsc	3,2
  3954     0769  2F6B               	goto	u4441
  3955     076A  2F6C               	goto	u4440
  3956     076B                     u4441:
  3957     076B  2F9D               	goto	l3079
  3958     076C                     u4440:
  3959     076C                     l3071:
  3960     076C  3001               	movlw	1
  3961     076D  07B9               	addwf	___flmul@prod,f
  3962     076E  3000               	movlw	0
  3963     076F  1803               	skipnc
  3964     0770  3001               	movlw	1
  3965     0771  07BA               	addwf	___flmul@prod+1,f
  3966     0772  3000               	movlw	0
  3967     0773  1803               	skipnc
  3968     0774  3001               	movlw	1
  3969     0775  07BB               	addwf	___flmul@prod+2,f
  3970     0776  3000               	movlw	0
  3971     0777  1803               	skipnc
  3972     0778  3001               	movlw	1
  3973     0779  07BC               	addwf	___flmul@prod+3,f
  3974     077A                     l3073:
  3975     077A  1C3C               	btfss	___flmul@prod+3,0
  3976     077B  2F7D               	goto	u4451
  3977     077C  2F7E               	goto	u4450
  3978     077D                     u4451:
  3979     077D  2F9D               	goto	l3079
  3980     077E                     u4450:
  3981     077E                     l3075:
  3982     077E  0839               	movf	___flmul@prod,w
  3983     077F  00AD               	movwf	??___flmul
  3984     0780  083A               	movf	___flmul@prod+1,w
  3985     0781  00AE               	movwf	??___flmul+1
  3986     0782  083B               	movf	___flmul@prod+2,w
  3987     0783  00AF               	movwf	??___flmul+2
  3988     0784  083C               	movf	___flmul@prod+3,w
  3989     0785  00B0               	movwf	??___flmul+3
  3990     0786  3001               	movlw	1
  3991     0787  00B1               	movwf	??___flmul+4
  3992     0788                     u4465:
  3993     0788  0D30               	rlf	??___flmul+3,w
  3994     0789  0CB0               	rrf	??___flmul+3,f
  3995     078A  0CAF               	rrf	??___flmul+2,f
  3996     078B  0CAE               	rrf	??___flmul+1,f
  3997     078C  0CAD               	rrf	??___flmul,f
  3998     078D                     u4460:
  3999     078D  0BB1               	decfsz	??___flmul+4,f
  4000     078E  2F88               	goto	u4465
  4001     078F  0830               	movf	??___flmul+3,w
  4002     0790  00BC               	movwf	___flmul@prod+3
  4003     0791  082F               	movf	??___flmul+2,w
  4004     0792  00BB               	movwf	___flmul@prod+2
  4005     0793  082E               	movf	??___flmul+1,w
  4006     0794  00BA               	movwf	___flmul@prod+1
  4007     0795  082D               	movf	??___flmul,w
  4008     0796  00B9               	movwf	___flmul@prod
  4009     0797                     l3077:
  4010     0797  3001               	movlw	1
  4011     0798  07BD               	addwf	___flmul@temp,f
  4012     0799  1803               	skipnc
  4013     079A  0ABE               	incf	___flmul@temp+1,f
  4014     079B  3000               	movlw	0
  4015     079C  07BE               	addwf	___flmul@temp+1,f
  4016     079D                     l3079:
  4017     079D  083E               	movf	___flmul@temp+1,w
  4018     079E  3A80               	xorlw	128
  4019     079F  00FF               	movwf	btemp+1
  4020     07A0  3080               	movlw	128
  4021     07A1  027F               	subwf	btemp+1,w
  4022     07A2  1D03               	skipz
  4023     07A3  2FA6               	goto	u4475
  4024     07A4  30FF               	movlw	255
  4025     07A5  023D               	subwf	___flmul@temp,w
  4026     07A6                     u4475:
  4027     07A6  1C03               	skipc
  4028     07A7  2FA9               	goto	u4471
  4029     07A8  2FAA               	goto	u4470
  4030     07A9                     u4471:
  4031     07A9  2FB5               	goto	l3083
  4032     07AA                     u4470:
  4033     07AA                     l3081:
  4034     07AA  307F               	movlw	127
  4035     07AB  1283               	bcf	3,5	;RP0=0, select bank0
  4036     07AC  1303               	bcf	3,6	;RP1=0, select bank0
  4037     07AD  00BC               	movwf	___flmul@prod+3
  4038     07AE  3080               	movlw	128
  4039     07AF  00BB               	movwf	___flmul@prod+2
  4040     07B0  3000               	movlw	0
  4041     07B1  00BA               	movwf	___flmul@prod+1
  4042     07B2  3000               	movlw	0
  4043     07B3  00B9               	movwf	___flmul@prod
  4044     07B4  2FE6               	goto	l3097
  4045     07B5                     l3083:
  4046     07B5  1283               	bcf	3,5	;RP0=0, select bank0
  4047     07B6  1303               	bcf	3,6	;RP1=0, select bank0
  4048     07B7  083E               	movf	___flmul@temp+1,w
  4049     07B8  3A80               	xorlw	128
  4050     07B9  00FF               	movwf	btemp+1
  4051     07BA  3080               	movlw	128
  4052     07BB  027F               	subwf	btemp+1,w
  4053     07BC  1D03               	skipz
  4054     07BD  2FC0               	goto	u4485
  4055     07BE  3001               	movlw	1
  4056     07BF  023D               	subwf	___flmul@temp,w
  4057     07C0                     u4485:
  4058     07C0  1803               	skipnc
  4059     07C1  2FC3               	goto	u4481
  4060     07C2  2FC4               	goto	u4480
  4061     07C3                     u4481:
  4062     07C3  2FD0               	goto	l3089
  4063     07C4                     u4480:
  4064     07C4                     l3085:
  4065     07C4  3000               	movlw	0
  4066     07C5  1283               	bcf	3,5	;RP0=0, select bank0
  4067     07C6  1303               	bcf	3,6	;RP1=0, select bank0
  4068     07C7  00BC               	movwf	___flmul@prod+3
  4069     07C8  3000               	movlw	0
  4070     07C9  00BB               	movwf	___flmul@prod+2
  4071     07CA  3000               	movlw	0
  4072     07CB  00BA               	movwf	___flmul@prod+1
  4073     07CC  3000               	movlw	0
  4074     07CD  00B9               	movwf	___flmul@prod
  4075     07CE                     l3087:
  4076     07CE  01B2               	clrf	___flmul@sign
  4077     07CF  2FE6               	goto	l3097
  4078     07D0                     l3089:
  4079     07D0  1283               	bcf	3,5	;RP0=0, select bank0
  4080     07D1  1303               	bcf	3,6	;RP1=0, select bank0
  4081     07D2  083D               	movf	___flmul@temp,w
  4082     07D3  00B8               	movwf	___flmul@bexp
  4083     07D4  30FF               	movlw	255
  4084     07D5  05B9               	andwf	___flmul@prod,f
  4085     07D6  30FF               	movlw	255
  4086     07D7  05BA               	andwf	___flmul@prod+1,f
  4087     07D8  307F               	movlw	127
  4088     07D9  05BB               	andwf	___flmul@prod+2,f
  4089     07DA  3000               	movlw	0
  4090     07DB  05BC               	andwf	___flmul@prod+3,f
  4091     07DC                     l3091:
  4092     07DC  1C38               	btfss	___flmul@bexp,0
  4093     07DD  2FDF               	goto	u4491
  4094     07DE  2FE0               	goto	u4490
  4095     07DF                     u4491:
  4096     07DF  2FE1               	goto	l3095
  4097     07E0                     u4490:
  4098     07E0                     l3093:
  4099     07E0  17BB               	bsf	___flmul@prod+2,7
  4100     07E1                     l3095:
  4101     07E1  0838               	movf	___flmul@bexp,w
  4102     07E2  00AD               	movwf	??___flmul
  4103     07E3  1003               	clrc
  4104     07E4  0C2D               	rrf	??___flmul,w
  4105     07E5  00BC               	movwf	___flmul@prod+3
  4106     07E6                     l3097:
  4107     07E6  0832               	movf	___flmul@sign,w
  4108     07E7  00FF               	movwf	btemp+1
  4109     07E8  087F               	movf	btemp+1,w
  4110     07E9  04BC               	iorwf	___flmul@prod+3,f
  4111     07EA                     l3099:
  4112     07EA  083C               	movf	___flmul@prod+3,w
  4113     07EB  00A8               	movwf	?___flmul+3
  4114     07EC  083B               	movf	___flmul@prod+2,w
  4115     07ED  00A7               	movwf	?___flmul+2
  4116     07EE  083A               	movf	___flmul@prod+1,w
  4117     07EF  00A6               	movwf	?___flmul+1
  4118     07F0  0839               	movf	___flmul@prod,w
  4119     07F1  00A5               	movwf	?___flmul
  4120     07F2                     l602:
  4121     07F2  0008               	return
  4122     07F3                     __end_of___flmul:
  4123                           
  4124                           	psect	text10
  4125     16C5                     __ptext10:	
  4126 ;; *************** function __Umul8_16 *****************
  4127 ;; Defined at:
  4128 ;;		line 4 in file "C:\Program Files\Microchip\xc8\v2.41\pic\sources\c90\common\Umul8_16.c"
  4129 ;; Parameters:    Size  Location     Type
  4130 ;;  multiplier      1    wreg     unsigned char 
  4131 ;;  multiplicand    1    0[COMMON] unsigned char 
  4132 ;; Auto vars:     Size  Location     Type
  4133 ;;  multiplier      1    8[COMMON] unsigned char 
  4134 ;;  word_mpld       2    6[COMMON] unsigned int 
  4135 ;;  product         2    4[COMMON] unsigned int 
  4136 ;; Return value:  Size  Location     Type
  4137 ;;                  2    0[COMMON] unsigned int 
  4138 ;; Registers used:
  4139 ;;		wreg, status,2, status,0
  4140 ;; Tracked objects:
  4141 ;;		On entry : 0/0
  4142 ;;		On exit  : 0/0
  4143 ;;		Unchanged: 0/0
  4144 ;; Data sizes:     COMMON   BANK0   BANK1   BANK3   BANK2
  4145 ;;      Params:         2       0       0       0       0
  4146 ;;      Locals:         5       0       0       0       0
  4147 ;;      Temps:          2       0       0       0       0
  4148 ;;      Totals:         9       0       0       0       0
  4149 ;;Total ram usage:        9 bytes
  4150 ;; Hardware stack levels used: 1
  4151 ;; This function calls:
  4152 ;;		Nothing
  4153 ;; This function is called by:
  4154 ;;		___flmul
  4155 ;; This function uses a non-reentrant model
  4156 ;;
  4157                           
  4158     16C5                     __Umul8_16:	
  4159                           ;psect for function __Umul8_16
  4160                           
  4161                           
  4162                           ;incstack = 0
  4163                           ; Regs used in __Umul8_16: [wreg+status,2+status,0]
  4164                           ;__Umul8_16@multiplier stored from wreg
  4165     16C5  00F8               	movwf	__Umul8_16@multiplier
  4166     16C6                     l2735:
  4167     16C6  01F4               	clrf	__Umul8_16@product
  4168     16C7  01F5               	clrf	__Umul8_16@product+1
  4169     16C8                     l2737:
  4170     16C8  0870               	movf	__Umul8_16@multiplicand,w
  4171     16C9  00F2               	movwf	??__Umul8_16
  4172     16CA  01F3               	clrf	??__Umul8_16+1
  4173     16CB  0872               	movf	??__Umul8_16,w
  4174     16CC  00F6               	movwf	__Umul8_16@word_mpld
  4175     16CD  0873               	movf	??__Umul8_16+1,w
  4176     16CE  00F7               	movwf	__Umul8_16@word_mpld+1
  4177     16CF                     l2739:
  4178     16CF  1C78               	btfss	__Umul8_16@multiplier,0
  4179     16D0  2ED2               	goto	u3611
  4180     16D1  2ED3               	goto	u3610
  4181     16D2                     u3611:
  4182     16D2  2ED9               	goto	l621
  4183     16D3                     u3610:
  4184     16D3                     l2741:
  4185     16D3  0876               	movf	__Umul8_16@word_mpld,w
  4186     16D4  07F4               	addwf	__Umul8_16@product,f
  4187     16D5  1803               	skipnc
  4188     16D6  0AF5               	incf	__Umul8_16@product+1,f
  4189     16D7  0877               	movf	__Umul8_16@word_mpld+1,w
  4190     16D8  07F5               	addwf	__Umul8_16@product+1,f
  4191     16D9                     l621:
  4192     16D9  3001               	movlw	1
  4193     16DA                     u3625:
  4194     16DA  1003               	clrc
  4195     16DB  0DF6               	rlf	__Umul8_16@word_mpld,f
  4196     16DC  0DF7               	rlf	__Umul8_16@word_mpld+1,f
  4197     16DD  3EFF               	addlw	-1
  4198     16DE  1D03               	skipz
  4199     16DF  2EDA               	goto	u3625
  4200     16E0  1003               	clrc
  4201     16E1  0CF8               	rrf	__Umul8_16@multiplier,f
  4202     16E2                     l2743:
  4203     16E2  0878               	movf	__Umul8_16@multiplier,w
  4204     16E3  1D03               	btfss	3,2
  4205     16E4  2EE6               	goto	u3631
  4206     16E5  2EE7               	goto	u3630
  4207     16E6                     u3631:
  4208     16E6  2ECF               	goto	l2739
  4209     16E7                     u3630:
  4210     16E7                     l2745:
  4211     16E7  0875               	movf	__Umul8_16@product+1,w
  4212     16E8  00F1               	movwf	?__Umul8_16+1
  4213     16E9  0874               	movf	__Umul8_16@product,w
  4214     16EA  00F0               	movwf	?__Umul8_16
  4215     16EB                     l623:
  4216     16EB  0008               	return
  4217     16EC                     __end_of__Umul8_16:
  4218                           
  4219                           	psect	text11
  4220     0256                     __ptext11:	
  4221 ;; *************** function ___fladd *****************
  4222 ;; Defined at:
  4223 ;;		line 10 in file "C:\Program Files\Microchip\xc8\v2.41\pic\sources\c90\common\sprcadd.c"
  4224 ;; Parameters:    Size  Location     Type
  4225 ;;  b               4   57[BANK0 ] unsigned int 
  4226 ;;  a               4   61[BANK0 ] unsigned int 
  4227 ;; Auto vars:     Size  Location     Type
  4228 ;;  grs             1   76[BANK0 ] unsigned char 
  4229 ;;  bexp            1   75[BANK0 ] unsigned char 
  4230 ;;  aexp            1   74[BANK0 ] unsigned char 
  4231 ;;  signs           1   73[BANK0 ] unsigned char 
  4232 ;; Return value:  Size  Location     Type
  4233 ;;                  4   57[BANK0 ] unsigned char 
  4234 ;; Registers used:
  4235 ;;		wreg, status,2, status,0, btemp+1
  4236 ;; Tracked objects:
  4237 ;;		On entry : 0/0
  4238 ;;		On exit  : 0/0
  4239 ;;		Unchanged: 0/0
  4240 ;; Data sizes:     COMMON   BANK0   BANK1   BANK3   BANK2
  4241 ;;      Params:         0       8       0       0       0
  4242 ;;      Locals:         0       4       0       0       0
  4243 ;;      Temps:          0       8       0       0       0
  4244 ;;      Totals:         0      20       0       0       0
  4245 ;;Total ram usage:       20 bytes
  4246 ;; Hardware stack levels used: 1
  4247 ;; This function calls:
  4248 ;;		Nothing
  4249 ;; This function is called by:
  4250 ;;		_convertir_temperature
  4251 ;;		_log
  4252 ;;		_eval_poly
  4253 ;; This function uses a non-reentrant model
  4254 ;;
  4255                           
  4256     0256                     ___fladd:	
  4257                           ;psect for function ___fladd
  4258                           
  4259     0256                     l2761:	
  4260                           ;incstack = 0
  4261                           ; Regs used in ___fladd: [wreg+status,2+status,0+btemp+1]
  4262                           
  4263     0256  1283               	bcf	3,5	;RP0=0, select bank0
  4264     0257  1303               	bcf	3,6	;RP1=0, select bank0
  4265     0258  085C               	movf	___fladd@b+3,w
  4266     0259  3980               	andlw	128
  4267     025A  00E9               	movwf	___fladd@signs
  4268     025B                     l2763:
  4269     025B  085C               	movf	___fladd@b+3,w
  4270     025C  00E1               	movwf	??___fladd
  4271     025D  0761               	addwf	??___fladd,w
  4272     025E  00EB               	movwf	___fladd@bexp
  4273     025F                     l2765:
  4274     025F  1FDB               	btfss	___fladd@b+2,7
  4275     0260  2A62               	goto	u3671
  4276     0261  2A63               	goto	u3670
  4277     0262                     u3671:
  4278     0262  2A64               	goto	l2769
  4279     0263                     u3670:
  4280     0263                     l2767:
  4281     0263  146B               	bsf	___fladd@bexp,0
  4282     0264                     l2769:
  4283     0264  086B               	movf	___fladd@bexp,w
  4284     0265  1903               	btfsc	3,2
  4285     0266  2A68               	goto	u3681
  4286     0267  2A69               	goto	u3680
  4287     0268                     u3681:
  4288     0268  2A79               	goto	l2779
  4289     0269                     u3680:
  4290     0269                     l2771:
  4291     0269  0A6B               	incf	___fladd@bexp,w
  4292     026A  1D03               	btfss	3,2
  4293     026B  2A6D               	goto	u3691
  4294     026C  2A6E               	goto	u3690
  4295     026D                     u3691:
  4296     026D  2A76               	goto	l2775
  4297     026E                     u3690:
  4298     026E                     l2773:
  4299     026E  3000               	movlw	0
  4300     026F  00DC               	movwf	___fladd@b+3
  4301     0270  3000               	movlw	0
  4302     0271  00DB               	movwf	___fladd@b+2
  4303     0272  3000               	movlw	0
  4304     0273  00DA               	movwf	___fladd@b+1
  4305     0274  3000               	movlw	0
  4306     0275  00D9               	movwf	___fladd@b
  4307     0276                     l2775:
  4308     0276  17DB               	bsf	___fladd@b+2,7
  4309     0277                     l2777:
  4310     0277  01DC               	clrf	___fladd@b+3
  4311     0278  2A81               	goto	l2781
  4312     0279                     l2779:
  4313     0279  3000               	movlw	0
  4314     027A  00DC               	movwf	___fladd@b+3
  4315     027B  3000               	movlw	0
  4316     027C  00DB               	movwf	___fladd@b+2
  4317     027D  3000               	movlw	0
  4318     027E  00DA               	movwf	___fladd@b+1
  4319     027F  3000               	movlw	0
  4320     0280  00D9               	movwf	___fladd@b
  4321     0281                     l2781:
  4322     0281  0860               	movf	___fladd@a+3,w
  4323     0282  3980               	andlw	128
  4324     0283  00EA               	movwf	___fladd@aexp
  4325     0284                     l2783:
  4326     0284  086A               	movf	___fladd@aexp,w
  4327     0285  0669               	xorwf	___fladd@signs,w
  4328     0286  1903               	skipnz
  4329     0287  2A89               	goto	u3701
  4330     0288  2A8A               	goto	u3700
  4331     0289                     u3701:
  4332     0289  2A8B               	goto	l2787
  4333     028A                     u3700:
  4334     028A                     l2785:
  4335     028A  1769               	bsf	___fladd@signs,6
  4336     028B                     l2787:
  4337     028B  0860               	movf	___fladd@a+3,w
  4338     028C  00E1               	movwf	??___fladd
  4339     028D  0761               	addwf	??___fladd,w
  4340     028E  00EA               	movwf	___fladd@aexp
  4341     028F                     l2789:
  4342     028F  1FDF               	btfss	___fladd@a+2,7
  4343     0290  2A92               	goto	u3711
  4344     0291  2A93               	goto	u3710
  4345     0292                     u3711:
  4346     0292  2A94               	goto	l2793
  4347     0293                     u3710:
  4348     0293                     l2791:
  4349     0293  146A               	bsf	___fladd@aexp,0
  4350     0294                     l2793:
  4351     0294  086A               	movf	___fladd@aexp,w
  4352     0295  1903               	btfsc	3,2
  4353     0296  2A98               	goto	u3721
  4354     0297  2A99               	goto	u3720
  4355     0298                     u3721:
  4356     0298  2AA9               	goto	l2803
  4357     0299                     u3720:
  4358     0299                     l2795:
  4359     0299  0A6A               	incf	___fladd@aexp,w
  4360     029A  1D03               	btfss	3,2
  4361     029B  2A9D               	goto	u3731
  4362     029C  2A9E               	goto	u3730
  4363     029D                     u3731:
  4364     029D  2AA6               	goto	l2799
  4365     029E                     u3730:
  4366     029E                     l2797:
  4367     029E  3000               	movlw	0
  4368     029F  00E0               	movwf	___fladd@a+3
  4369     02A0  3000               	movlw	0
  4370     02A1  00DF               	movwf	___fladd@a+2
  4371     02A2  3000               	movlw	0
  4372     02A3  00DE               	movwf	___fladd@a+1
  4373     02A4  3000               	movlw	0
  4374     02A5  00DD               	movwf	___fladd@a
  4375     02A6                     l2799:
  4376     02A6  17DF               	bsf	___fladd@a+2,7
  4377     02A7                     l2801:
  4378     02A7  01E0               	clrf	___fladd@a+3
  4379     02A8  2AB1               	goto	l506
  4380     02A9                     l2803:
  4381     02A9  3000               	movlw	0
  4382     02AA  00E0               	movwf	___fladd@a+3
  4383     02AB  3000               	movlw	0
  4384     02AC  00DF               	movwf	___fladd@a+2
  4385     02AD  3000               	movlw	0
  4386     02AE  00DE               	movwf	___fladd@a+1
  4387     02AF  3000               	movlw	0
  4388     02B0  00DD               	movwf	___fladd@a
  4389     02B1                     l506:
  4390     02B1  086B               	movf	___fladd@bexp,w
  4391     02B2  026A               	subwf	___fladd@aexp,w
  4392     02B3  1803               	skipnc
  4393     02B4  2AB6               	goto	u3741
  4394     02B5  2AB7               	goto	u3740
  4395     02B6                     u3741:
  4396     02B6  2ADD               	goto	l2839
  4397     02B7                     u3740:
  4398     02B7                     l2805:
  4399     02B7  1F69               	btfss	___fladd@signs,6
  4400     02B8  2ABA               	goto	u3751
  4401     02B9  2ABB               	goto	u3750
  4402     02BA                     u3751:
  4403     02BA  2ABF               	goto	l2809
  4404     02BB                     u3750:
  4405     02BB                     l2807:
  4406     02BB  3080               	movlw	128
  4407     02BC  00FF               	movwf	btemp+1
  4408     02BD  087F               	movf	btemp+1,w
  4409     02BE  06E9               	xorwf	___fladd@signs,f
  4410     02BF                     l2809:
  4411     02BF  086B               	movf	___fladd@bexp,w
  4412     02C0  00EC               	movwf	___fladd@grs
  4413     02C1                     l2811:
  4414     02C1  086A               	movf	___fladd@aexp,w
  4415     02C2  00EB               	movwf	___fladd@bexp
  4416     02C3                     l2813:
  4417     02C3  086C               	movf	___fladd@grs,w
  4418     02C4  00EA               	movwf	___fladd@aexp
  4419     02C5                     l2815:
  4420     02C5  0859               	movf	___fladd@b,w
  4421     02C6  00EC               	movwf	___fladd@grs
  4422     02C7                     l2817:
  4423     02C7  085D               	movf	___fladd@a,w
  4424     02C8  00D9               	movwf	___fladd@b
  4425     02C9                     l2819:
  4426     02C9  086C               	movf	___fladd@grs,w
  4427     02CA  00DD               	movwf	___fladd@a
  4428     02CB                     l2821:
  4429     02CB  085A               	movf	___fladd@b+1,w
  4430     02CC  00EC               	movwf	___fladd@grs
  4431     02CD                     l2823:
  4432     02CD  085E               	movf	___fladd@a+1,w
  4433     02CE  00DA               	movwf	___fladd@b+1
  4434     02CF                     l2825:
  4435     02CF  086C               	movf	___fladd@grs,w
  4436     02D0  00DE               	movwf	___fladd@a+1
  4437     02D1                     l2827:
  4438     02D1  085B               	movf	___fladd@b+2,w
  4439     02D2  00EC               	movwf	___fladd@grs
  4440     02D3                     l2829:
  4441     02D3  085F               	movf	___fladd@a+2,w
  4442     02D4  00DB               	movwf	___fladd@b+2
  4443     02D5                     l2831:
  4444     02D5  086C               	movf	___fladd@grs,w
  4445     02D6  00DF               	movwf	___fladd@a+2
  4446     02D7                     l2833:
  4447     02D7  085C               	movf	___fladd@b+3,w
  4448     02D8  00EC               	movwf	___fladd@grs
  4449     02D9                     l2835:
  4450     02D9  0860               	movf	___fladd@a+3,w
  4451     02DA  00DC               	movwf	___fladd@b+3
  4452     02DB                     l2837:
  4453     02DB  086C               	movf	___fladd@grs,w
  4454     02DC  00E0               	movwf	___fladd@a+3
  4455     02DD                     l2839:
  4456     02DD  01EC               	clrf	___fladd@grs
  4457     02DE                     l2841:
  4458     02DE  086A               	movf	___fladd@aexp,w
  4459     02DF  00E1               	movwf	??___fladd
  4460     02E0  01E2               	clrf	??___fladd+1
  4461     02E1  0862               	movf	??___fladd+1,w
  4462     02E2  00E4               	movwf	??___fladd+3
  4463     02E3  086B               	movf	___fladd@bexp,w
  4464     02E4  0261               	subwf	??___fladd,w
  4465     02E5  00E3               	movwf	??___fladd+2
  4466     02E6  1C03               	skipc
  4467     02E7  03E4               	decf	??___fladd+3,f
  4468     02E8  0864               	movf	??___fladd+3,w
  4469     02E9  3A80               	xorlw	128
  4470     02EA  00FF               	movwf	btemp+1
  4471     02EB  3080               	movlw	128
  4472     02EC  027F               	subwf	btemp+1,w
  4473     02ED  1D03               	skipz
  4474     02EE  2AF1               	goto	u3765
  4475     02EF  301A               	movlw	26
  4476     02F0  0263               	subwf	??___fladd+2,w
  4477     02F1                     u3765:
  4478     02F1  1C03               	skipc
  4479     02F2  2AF4               	goto	u3761
  4480     02F3  2AF5               	goto	u3760
  4481     02F4                     u3761:
  4482     02F4  2B2C               	goto	l2857
  4483     02F5                     u3760:
  4484     02F5                     l2843:
  4485     02F5  1283               	bcf	3,5	;RP0=0, select bank0
  4486     02F6  1303               	bcf	3,6	;RP1=0, select bank0
  4487     02F7  085C               	movf	___fladd@b+3,w
  4488     02F8  045B               	iorwf	___fladd@b+2,w
  4489     02F9  045A               	iorwf	___fladd@b+1,w
  4490     02FA  0459               	iorwf	___fladd@b,w
  4491     02FB  1D03               	skipz
  4492     02FC  2AFE               	goto	u3771
  4493     02FD  2B00               	goto	u3770
  4494     02FE                     u3771:
  4495     02FE  3001               	movlw	1
  4496     02FF  2B01               	goto	u3780
  4497     0300                     u3770:
  4498     0300  3000               	movlw	0
  4499     0301                     u3780:
  4500     0301  00EC               	movwf	___fladd@grs
  4501     0302  3000               	movlw	0
  4502     0303  00DC               	movwf	___fladd@b+3
  4503     0304  3000               	movlw	0
  4504     0305  00DB               	movwf	___fladd@b+2
  4505     0306  3000               	movlw	0
  4506     0307  00DA               	movwf	___fladd@b+1
  4507     0308  3000               	movlw	0
  4508     0309  00D9               	movwf	___fladd@b
  4509     030A  086A               	movf	___fladd@aexp,w
  4510     030B  00EB               	movwf	___fladd@bexp
  4511     030C  2B34               	goto	l510
  4512     030D                     l512:
  4513     030D  1C6C               	btfss	___fladd@grs,0
  4514     030E  2B10               	goto	u3791
  4515     030F  2B11               	goto	u3790
  4516     0310                     u3791:
  4517     0310  2B18               	goto	l2847
  4518     0311                     u3790:
  4519     0311                     l2845:
  4520     0311  086C               	movf	___fladd@grs,w
  4521     0312  00E1               	movwf	??___fladd
  4522     0313  1003               	clrc
  4523     0314  0C61               	rrf	??___fladd,w
  4524     0315  3801               	iorlw	1
  4525     0316  00EC               	movwf	___fladd@grs
  4526     0317  2B1A               	goto	l2849
  4527     0318                     l2847:
  4528     0318  1003               	clrc
  4529     0319  0CEC               	rrf	___fladd@grs,f
  4530     031A                     l2849:
  4531     031A  1C59               	btfss	___fladd@b,0
  4532     031B  2B1D               	goto	u3801
  4533     031C  2B1E               	goto	u3800
  4534     031D                     u3801:
  4535     031D  2B1F               	goto	l2853
  4536     031E                     u3800:
  4537     031E                     l2851:
  4538     031E  17EC               	bsf	___fladd@grs,7
  4539     031F                     l2853:
  4540     031F  3001               	movlw	1
  4541     0320  00E1               	movwf	??___fladd
  4542     0321                     u3815:
  4543     0321  0D5C               	rlf	___fladd@b+3,w
  4544     0322  0CDC               	rrf	___fladd@b+3,f
  4545     0323  0CDB               	rrf	___fladd@b+2,f
  4546     0324  0CDA               	rrf	___fladd@b+1,f
  4547     0325  0CD9               	rrf	___fladd@b,f
  4548     0326  0BE1               	decfsz	??___fladd& (0+127),f
  4549     0327  2B21               	goto	u3815
  4550     0328                     l2855:
  4551     0328  3001               	movlw	1
  4552     0329  00FF               	movwf	btemp+1
  4553     032A  087F               	movf	btemp+1,w
  4554     032B  07EB               	addwf	___fladd@bexp,f
  4555     032C                     l2857:
  4556     032C  1283               	bcf	3,5	;RP0=0, select bank0
  4557     032D  1303               	bcf	3,6	;RP1=0, select bank0
  4558     032E  086A               	movf	___fladd@aexp,w
  4559     032F  026B               	subwf	___fladd@bexp,w
  4560     0330  1C03               	skipc
  4561     0331  2B33               	goto	u3821
  4562     0332  2B34               	goto	u3820
  4563     0333                     u3821:
  4564     0333  2B0D               	goto	l512
  4565     0334                     u3820:
  4566     0334                     l510:
  4567     0334  1B69               	btfsc	___fladd@signs,6
  4568     0335  2B37               	goto	u3831
  4569     0336  2B38               	goto	u3830
  4570     0337                     u3831:
  4571     0337  2B81               	goto	l2883
  4572     0338                     u3830:
  4573     0338                     l2859:
  4574     0338  086B               	movf	___fladd@bexp,w
  4575     0339  1D03               	btfss	3,2
  4576     033A  2B3C               	goto	u3841
  4577     033B  2B3D               	goto	u3840
  4578     033C                     u3841:
  4579     033C  2B46               	goto	l2865
  4580     033D                     u3840:
  4581     033D                     l2861:
  4582     033D  3000               	movlw	0
  4583     033E  00DC               	movwf	?___fladd+3
  4584     033F  3000               	movlw	0
  4585     0340  00DB               	movwf	?___fladd+2
  4586     0341  3000               	movlw	0
  4587     0342  00DA               	movwf	?___fladd+1
  4588     0343  3000               	movlw	0
  4589     0344  00D9               	movwf	?___fladd
  4590     0345  2CAD               	goto	l519
  4591     0346                     l2865:
  4592     0346  085D               	movf	___fladd@a,w
  4593     0347  07D9               	addwf	___fladd@b,f
  4594     0348  085E               	movf	___fladd@a+1,w
  4595     0349  1103               	clrz
  4596     034A  1803               	skipnc
  4597     034B  3E01               	addlw	1
  4598     034C  1903               	skipnz
  4599     034D  2B4F               	goto	u3851
  4600     034E  07DA               	addwf	___fladd@b+1,f
  4601     034F                     u3851:
  4602     034F  085F               	movf	___fladd@a+2,w
  4603     0350  1103               	clrz
  4604     0351  1803               	skipnc
  4605     0352  3E01               	addlw	1
  4606     0353  1903               	skipnz
  4607     0354  2B56               	goto	u3852
  4608     0355  07DB               	addwf	___fladd@b+2,f
  4609     0356                     u3852:
  4610     0356  0860               	movf	___fladd@a+3,w
  4611     0357  1103               	clrz
  4612     0358  1803               	skipnc
  4613     0359  3E01               	addlw	1
  4614     035A  1903               	skipnz
  4615     035B  2B5D               	goto	u3853
  4616     035C  07DC               	addwf	___fladd@b+3,f
  4617     035D                     u3853:
  4618     035D                     l2867:
  4619     035D  1C5C               	btfss	___fladd@b+3,0
  4620     035E  2B60               	goto	u3861
  4621     035F  2B61               	goto	u3860
  4622     0360                     u3861:
  4623     0360  2C35               	goto	l2919
  4624     0361                     u3860:
  4625     0361                     l2869:
  4626     0361  1C6C               	btfss	___fladd@grs,0
  4627     0362  2B64               	goto	u3871
  4628     0363  2B65               	goto	u3870
  4629     0364                     u3871:
  4630     0364  2B6C               	goto	l2873
  4631     0365                     u3870:
  4632     0365                     l2871:
  4633     0365  086C               	movf	___fladd@grs,w
  4634     0366  00E1               	movwf	??___fladd
  4635     0367  1003               	clrc
  4636     0368  0C61               	rrf	??___fladd,w
  4637     0369  3801               	iorlw	1
  4638     036A  00EC               	movwf	___fladd@grs
  4639     036B  2B6E               	goto	l2875
  4640     036C                     l2873:
  4641     036C  1003               	clrc
  4642     036D  0CEC               	rrf	___fladd@grs,f
  4643     036E                     l2875:
  4644     036E  1C59               	btfss	___fladd@b,0
  4645     036F  2B71               	goto	u3881
  4646     0370  2B72               	goto	u3880
  4647     0371                     u3881:
  4648     0371  2B73               	goto	l2879
  4649     0372                     u3880:
  4650     0372                     l2877:
  4651     0372  17EC               	bsf	___fladd@grs,7
  4652     0373                     l2879:
  4653     0373  3001               	movlw	1
  4654     0374  00E1               	movwf	??___fladd
  4655     0375                     u3895:
  4656     0375  0D5C               	rlf	___fladd@b+3,w
  4657     0376  0CDC               	rrf	___fladd@b+3,f
  4658     0377  0CDB               	rrf	___fladd@b+2,f
  4659     0378  0CDA               	rrf	___fladd@b+1,f
  4660     0379  0CD9               	rrf	___fladd@b,f
  4661     037A  0BE1               	decfsz	??___fladd& (0+127),f
  4662     037B  2B75               	goto	u3895
  4663     037C                     l2881:
  4664     037C  3001               	movlw	1
  4665     037D  00FF               	movwf	btemp+1
  4666     037E  087F               	movf	btemp+1,w
  4667     037F  07EB               	addwf	___fladd@bexp,f
  4668     0380  2C35               	goto	l2919
  4669     0381                     l2883:
  4670     0381  085C               	movf	___fladd@b+3,w
  4671     0382  3A80               	xorlw	128
  4672     0383  00FF               	movwf	btemp+1
  4673     0384  0860               	movf	___fladd@a+3,w
  4674     0385  3A80               	xorlw	128
  4675     0386  027F               	subwf	btemp+1,w
  4676     0387  1D03               	skipz
  4677     0388  2B93               	goto	u3903
  4678     0389  085F               	movf	___fladd@a+2,w
  4679     038A  025B               	subwf	___fladd@b+2,w
  4680     038B  1D03               	skipz
  4681     038C  2B93               	goto	u3903
  4682     038D  085E               	movf	___fladd@a+1,w
  4683     038E  025A               	subwf	___fladd@b+1,w
  4684     038F  1D03               	skipz
  4685     0390  2B93               	goto	u3903
  4686     0391  085D               	movf	___fladd@a,w
  4687     0392  0259               	subwf	___fladd@b,w
  4688     0393                     u3903:
  4689     0393  1803               	skipnc
  4690     0394  2B96               	goto	u3901
  4691     0395  2B97               	goto	u3900
  4692     0396                     u3901:
  4693     0396  2BEF               	goto	l2895
  4694     0397                     u3900:
  4695     0397                     l2885:
  4696     0397  30FF               	movlw	255
  4697     0398  00E1               	movwf	??___fladd
  4698     0399  30FF               	movlw	255
  4699     039A  00E2               	movwf	??___fladd+1
  4700     039B  30FF               	movlw	255
  4701     039C  00E3               	movwf	??___fladd+2
  4702     039D  30FF               	movlw	255
  4703     039E  00E4               	movwf	??___fladd+3
  4704     039F  085D               	movf	___fladd@a,w
  4705     03A0  00E5               	movwf	??___fladd+4
  4706     03A1  085E               	movf	___fladd@a+1,w
  4707     03A2  00E6               	movwf	??___fladd+5
  4708     03A3  085F               	movf	___fladd@a+2,w
  4709     03A4  00E7               	movwf	??___fladd+6
  4710     03A5  0860               	movf	___fladd@a+3,w
  4711     03A6  00E8               	movwf	??___fladd+7
  4712     03A7  0859               	movf	___fladd@b,w
  4713     03A8  02E5               	subwf	??___fladd+4,f
  4714     03A9  085A               	movf	___fladd@b+1,w
  4715     03AA  1C03               	skipc
  4716     03AB  0F5A               	incfsz	___fladd@b+1,w
  4717     03AC  2BAE               	goto	u3911
  4718     03AD  2BAF               	goto	u3912
  4719     03AE                     u3911:
  4720     03AE  02E6               	subwf	??___fladd+5,f
  4721     03AF                     u3912:
  4722     03AF  085B               	movf	___fladd@b+2,w
  4723     03B0  1C03               	skipc
  4724     03B1  0F5B               	incfsz	___fladd@b+2,w
  4725     03B2  2BB4               	goto	u3913
  4726     03B3  2BB5               	goto	u3914
  4727     03B4                     u3913:
  4728     03B4  02E7               	subwf	??___fladd+6,f
  4729     03B5                     u3914:
  4730     03B5  085C               	movf	___fladd@b+3,w
  4731     03B6  1C03               	skipc
  4732     03B7  0F5C               	incfsz	___fladd@b+3,w
  4733     03B8  2BBA               	goto	u3915
  4734     03B9  2BBB               	goto	u3916
  4735     03BA                     u3915:
  4736     03BA  02E8               	subwf	??___fladd+7,f
  4737     03BB                     u3916:
  4738     03BB  0865               	movf	??___fladd+4,w
  4739     03BC  07E1               	addwf	??___fladd,f
  4740     03BD  0866               	movf	??___fladd+5,w
  4741     03BE  1803               	skipnc
  4742     03BF  0F66               	incfsz	??___fladd+5,w
  4743     03C0  2BC2               	goto	u3920
  4744     03C1  2BC3               	goto	u3921
  4745     03C2                     u3920:
  4746     03C2  07E2               	addwf	??___fladd+1,f
  4747     03C3                     u3921:
  4748     03C3  0867               	movf	??___fladd+6,w
  4749     03C4  1803               	skipnc
  4750     03C5  0F67               	incfsz	??___fladd+6,w
  4751     03C6  2BC8               	goto	u3922
  4752     03C7  2BC9               	goto	u3923
  4753     03C8                     u3922:
  4754     03C8  07E3               	addwf	??___fladd+2,f
  4755     03C9                     u3923:
  4756     03C9  0868               	movf	??___fladd+7,w
  4757     03CA  1803               	skipnc
  4758     03CB  0A68               	incf	??___fladd+7,w
  4759     03CC  07E4               	addwf	??___fladd+3,f
  4760     03CD  0864               	movf	??___fladd+3,w
  4761     03CE  00DC               	movwf	___fladd@b+3
  4762     03CF  0863               	movf	??___fladd+2,w
  4763     03D0  00DB               	movwf	___fladd@b+2
  4764     03D1  0862               	movf	??___fladd+1,w
  4765     03D2  00DA               	movwf	___fladd@b+1
  4766     03D3  0861               	movf	??___fladd,w
  4767     03D4  00D9               	movwf	___fladd@b
  4768     03D5                     l2887:
  4769     03D5  3080               	movlw	128
  4770     03D6  00FF               	movwf	btemp+1
  4771     03D7  087F               	movf	btemp+1,w
  4772     03D8  06E9               	xorwf	___fladd@signs,f
  4773     03D9                     l2889:
  4774     03D9  09EC               	comf	___fladd@grs,f
  4775     03DA  0AEC               	incf	___fladd@grs,f
  4776     03DB                     l2891:
  4777     03DB  086C               	movf	___fladd@grs,w
  4778     03DC  1D03               	btfss	3,2
  4779     03DD  2BDF               	goto	u3931
  4780     03DE  2BE0               	goto	u3930
  4781     03DF                     u3931:
  4782     03DF  2BFD               	goto	l527
  4783     03E0                     u3930:
  4784     03E0                     l2893:
  4785     03E0  3001               	movlw	1
  4786     03E1  07D9               	addwf	___fladd@b,f
  4787     03E2  3000               	movlw	0
  4788     03E3  1803               	skipnc
  4789     03E4  3001               	movlw	1
  4790     03E5  07DA               	addwf	___fladd@b+1,f
  4791     03E6  3000               	movlw	0
  4792     03E7  1803               	skipnc
  4793     03E8  3001               	movlw	1
  4794     03E9  07DB               	addwf	___fladd@b+2,f
  4795     03EA  3000               	movlw	0
  4796     03EB  1803               	skipnc
  4797     03EC  3001               	movlw	1
  4798     03ED  07DC               	addwf	___fladd@b+3,f
  4799     03EE  2BFD               	goto	l527
  4800     03EF                     l2895:
  4801     03EF  085D               	movf	___fladd@a,w
  4802     03F0  02D9               	subwf	___fladd@b,f
  4803     03F1  085E               	movf	___fladd@a+1,w
  4804     03F2  1C03               	skipc
  4805     03F3  0F5E               	incfsz	___fladd@a+1,w
  4806     03F4  02DA               	subwf	___fladd@b+1,f
  4807     03F5  085F               	movf	___fladd@a+2,w
  4808     03F6  1C03               	skipc
  4809     03F7  0F5F               	incfsz	___fladd@a+2,w
  4810     03F8  02DB               	subwf	___fladd@b+2,f
  4811     03F9  0860               	movf	___fladd@a+3,w
  4812     03FA  1C03               	skipc
  4813     03FB  0F60               	incfsz	___fladd@a+3,w
  4814     03FC  02DC               	subwf	___fladd@b+3,f
  4815     03FD                     l527:
  4816     03FD  085C               	movf	___fladd@b+3,w
  4817     03FE  045B               	iorwf	___fladd@b+2,w
  4818     03FF  045A               	iorwf	___fladd@b+1,w
  4819     0400  0459               	iorwf	___fladd@b,w
  4820     0401  1D03               	skipz
  4821     0402  2C04               	goto	u3941
  4822     0403  2C05               	goto	u3940
  4823     0404                     u3941:
  4824     0404  2C31               	goto	l2917
  4825     0405                     u3940:
  4826     0405                     l2897:
  4827     0405  086C               	movf	___fladd@grs,w
  4828     0406  1D03               	btfss	3,2
  4829     0407  2C09               	goto	u3951
  4830     0408  2C0A               	goto	u3950
  4831     0409                     u3951:
  4832     0409  2C31               	goto	l2917
  4833     040A                     u3950:
  4834     040A                     l2899:
  4835     040A  3000               	movlw	0
  4836     040B  00DC               	movwf	?___fladd+3
  4837     040C  3000               	movlw	0
  4838     040D  00DB               	movwf	?___fladd+2
  4839     040E  3000               	movlw	0
  4840     040F  00DA               	movwf	?___fladd+1
  4841     0410  3000               	movlw	0
  4842     0411  00D9               	movwf	?___fladd
  4843     0412  2CAD               	goto	l519
  4844     0413                     l2903:
  4845     0413  3001               	movlw	1
  4846     0414  00E1               	movwf	??___fladd
  4847     0415                     u3965:
  4848     0415  1003               	clrc
  4849     0416  0DD9               	rlf	___fladd@b,f
  4850     0417  0DDA               	rlf	___fladd@b+1,f
  4851     0418  0DDB               	rlf	___fladd@b+2,f
  4852     0419  0DDC               	rlf	___fladd@b+3,f
  4853     041A  0BE1               	decfsz	??___fladd,f
  4854     041B  2C15               	goto	u3965
  4855     041C                     l2905:
  4856     041C  1FEC               	btfss	___fladd@grs,7
  4857     041D  2C1F               	goto	u3971
  4858     041E  2C20               	goto	u3970
  4859     041F                     u3971:
  4860     041F  2C21               	goto	l531
  4861     0420                     u3970:
  4862     0420                     l2907:
  4863     0420  1459               	bsf	___fladd@b,0
  4864     0421                     l531:
  4865     0421  1C6C               	btfss	___fladd@grs,0
  4866     0422  2C24               	goto	u3981
  4867     0423  2C25               	goto	u3980
  4868     0424                     u3981:
  4869     0424  2C28               	goto	l2911
  4870     0425                     u3980:
  4871     0425                     l2909:
  4872     0425  1403               	setc
  4873     0426  0DEC               	rlf	___fladd@grs,f
  4874     0427  2C2A               	goto	l2913
  4875     0428                     l2911:
  4876     0428  1003               	clrc
  4877     0429  0DEC               	rlf	___fladd@grs,f
  4878     042A                     l2913:
  4879     042A  086B               	movf	___fladd@bexp,w
  4880     042B  1903               	btfsc	3,2
  4881     042C  2C2E               	goto	u3991
  4882     042D  2C2F               	goto	u3990
  4883     042E                     u3991:
  4884     042E  2C31               	goto	l2917
  4885     042F                     u3990:
  4886     042F                     l2915:
  4887     042F  3001               	movlw	1
  4888     0430  02EB               	subwf	___fladd@bexp,f
  4889     0431                     l2917:
  4890     0431  1FDB               	btfss	___fladd@b+2,7
  4891     0432  2C34               	goto	u4001
  4892     0433  2C35               	goto	u4000
  4893     0434                     u4001:
  4894     0434  2C13               	goto	l2903
  4895     0435                     u4000:
  4896     0435                     l2919:
  4897     0435  01EA               	clrf	___fladd@aexp
  4898     0436                     l2921:
  4899     0436  1FEC               	btfss	___fladd@grs,7
  4900     0437  2C39               	goto	u4011
  4901     0438  2C3A               	goto	u4010
  4902     0439                     u4011:
  4903     0439  2C48               	goto	l2929
  4904     043A                     u4010:
  4905     043A                     l2923:
  4906     043A  086C               	movf	___fladd@grs,w
  4907     043B  397F               	andlw	127
  4908     043C  1903               	btfsc	3,2
  4909     043D  2C3F               	goto	u4021
  4910     043E  2C40               	goto	u4020
  4911     043F                     u4021:
  4912     043F  2C43               	goto	l537
  4913     0440                     u4020:
  4914     0440                     l2925:
  4915     0440  01EA               	clrf	___fladd@aexp
  4916     0441  0AEA               	incf	___fladd@aexp,f
  4917     0442  2C48               	goto	l2929
  4918     0443                     l537:
  4919     0443  1C59               	btfss	___fladd@b,0
  4920     0444  2C46               	goto	u4031
  4921     0445  2C47               	goto	u4030
  4922     0446                     u4031:
  4923     0446  2C48               	goto	l2929
  4924     0447                     u4030:
  4925     0447  2C40               	goto	l2925
  4926     0448                     l2929:
  4927     0448  086A               	movf	___fladd@aexp,w
  4928     0449  1903               	btfsc	3,2
  4929     044A  2C4C               	goto	u4041
  4930     044B  2C4D               	goto	u4040
  4931     044C                     u4041:
  4932     044C  2C81               	goto	l2939
  4933     044D                     u4040:
  4934     044D                     l2931:
  4935     044D  3001               	movlw	1
  4936     044E  07D9               	addwf	___fladd@b,f
  4937     044F  3000               	movlw	0
  4938     0450  1803               	skipnc
  4939     0451  3001               	movlw	1
  4940     0452  07DA               	addwf	___fladd@b+1,f
  4941     0453  3000               	movlw	0
  4942     0454  1803               	skipnc
  4943     0455  3001               	movlw	1
  4944     0456  07DB               	addwf	___fladd@b+2,f
  4945     0457  3000               	movlw	0
  4946     0458  1803               	skipnc
  4947     0459  3001               	movlw	1
  4948     045A  07DC               	addwf	___fladd@b+3,f
  4949     045B                     l2933:
  4950     045B  1C5C               	btfss	___fladd@b+3,0
  4951     045C  2C5E               	goto	u4051
  4952     045D  2C5F               	goto	u4050
  4953     045E                     u4051:
  4954     045E  2C81               	goto	l2939
  4955     045F                     u4050:
  4956     045F                     l2935:
  4957     045F  0859               	movf	___fladd@b,w
  4958     0460  00E1               	movwf	??___fladd
  4959     0461  085A               	movf	___fladd@b+1,w
  4960     0462  00E2               	movwf	??___fladd+1
  4961     0463  085B               	movf	___fladd@b+2,w
  4962     0464  00E3               	movwf	??___fladd+2
  4963     0465  085C               	movf	___fladd@b+3,w
  4964     0466  00E4               	movwf	??___fladd+3
  4965     0467  3001               	movlw	1
  4966     0468  00E5               	movwf	??___fladd+4
  4967     0469                     u4065:
  4968     0469  0D64               	rlf	??___fladd+3,w
  4969     046A  0CE4               	rrf	??___fladd+3,f
  4970     046B  0CE3               	rrf	??___fladd+2,f
  4971     046C  0CE2               	rrf	??___fladd+1,f
  4972     046D  0CE1               	rrf	??___fladd,f
  4973     046E                     u4060:
  4974     046E  0BE5               	decfsz	??___fladd+4,f
  4975     046F  2C69               	goto	u4065
  4976     0470  0864               	movf	??___fladd+3,w
  4977     0471  00DC               	movwf	___fladd@b+3
  4978     0472  0863               	movf	??___fladd+2,w
  4979     0473  00DB               	movwf	___fladd@b+2
  4980     0474  0862               	movf	??___fladd+1,w
  4981     0475  00DA               	movwf	___fladd@b+1
  4982     0476  0861               	movf	??___fladd,w
  4983     0477  00D9               	movwf	___fladd@b
  4984     0478  0A6B               	incf	___fladd@bexp,w
  4985     0479  1903               	btfsc	3,2
  4986     047A  2C7C               	goto	u4071
  4987     047B  2C7D               	goto	u4070
  4988     047C                     u4071:
  4989     047C  2C81               	goto	l2939
  4990     047D                     u4070:
  4991     047D                     l2937:
  4992     047D  3001               	movlw	1
  4993     047E  00FF               	movwf	btemp+1
  4994     047F  087F               	movf	btemp+1,w
  4995     0480  07EB               	addwf	___fladd@bexp,f
  4996     0481                     l2939:
  4997     0481  0A6B               	incf	___fladd@bexp,w
  4998     0482  1903               	btfsc	3,2
  4999     0483  2C85               	goto	u4081
  5000     0484  2C86               	goto	u4080
  5001     0485                     u4081:
  5002     0485  2C8B               	goto	l2943
  5003     0486                     u4080:
  5004     0486                     l2941:
  5005     0486  086B               	movf	___fladd@bexp,w
  5006     0487  1D03               	btfss	3,2
  5007     0488  2C8A               	goto	u4091
  5008     0489  2C8B               	goto	u4090
  5009     048A                     u4091:
  5010     048A  2C99               	goto	l2949
  5011     048B                     u4090:
  5012     048B                     l2943:
  5013     048B  3000               	movlw	0
  5014     048C  00DC               	movwf	___fladd@b+3
  5015     048D  3000               	movlw	0
  5016     048E  00DB               	movwf	___fladd@b+2
  5017     048F  3000               	movlw	0
  5018     0490  00DA               	movwf	___fladd@b+1
  5019     0491  3000               	movlw	0
  5020     0492  00D9               	movwf	___fladd@b
  5021     0493                     l2945:
  5022     0493  086B               	movf	___fladd@bexp,w
  5023     0494  1D03               	btfss	3,2
  5024     0495  2C97               	goto	u4101
  5025     0496  2C98               	goto	u4100
  5026     0497                     u4101:
  5027     0497  2C99               	goto	l2949
  5028     0498                     u4100:
  5029     0498                     l2947:
  5030     0498  01E9               	clrf	___fladd@signs
  5031     0499                     l2949:
  5032     0499  1C6B               	btfss	___fladd@bexp,0
  5033     049A  2C9C               	goto	u4111
  5034     049B  2C9D               	goto	u4110
  5035     049C                     u4111:
  5036     049C  2C9F               	goto	l2953
  5037     049D                     u4110:
  5038     049D                     l2951:
  5039     049D  17DB               	bsf	___fladd@b+2,7
  5040     049E  2CA3               	goto	l2955
  5041     049F                     l2953:
  5042     049F  307F               	movlw	127
  5043     04A0  00FF               	movwf	btemp+1
  5044     04A1  087F               	movf	btemp+1,w
  5045     04A2  05DB               	andwf	___fladd@b+2,f
  5046     04A3                     l2955:
  5047     04A3  086B               	movf	___fladd@bexp,w
  5048     04A4  00E1               	movwf	??___fladd
  5049     04A5  1003               	clrc
  5050     04A6  0C61               	rrf	??___fladd,w
  5051     04A7  00DC               	movwf	___fladd@b+3
  5052     04A8                     l2957:
  5053     04A8  1FE9               	btfss	___fladd@signs,7
  5054     04A9  2CAB               	goto	u4121
  5055     04AA  2CAC               	goto	u4120
  5056     04AB                     u4121:
  5057     04AB  2CAD               	goto	l549
  5058     04AC                     u4120:
  5059     04AC                     l2959:
  5060     04AC  17DC               	bsf	___fladd@b+3,7
  5061     04AD                     l549:
  5062     04AD                     l519:
  5063     04AD  0008               	return
  5064     04AE                     __end_of___fladd:
  5065                           
  5066                           	psect	text12
  5067     09C5                     __ptext12:	
  5068 ;; *************** function ___xxtofl *****************
  5069 ;; Defined at:
  5070 ;;		line 10 in file "C:\Program Files\Microchip\xc8\v2.41\pic\sources\c90\common\xxtofl.c"
  5071 ;; Parameters:    Size  Location     Type
  5072 ;;  sign            1    wreg     unsigned char 
  5073 ;;  val             4    0[COMMON] long 
  5074 ;; Auto vars:     Size  Location     Type
  5075 ;;  sign            1    8[COMMON] unsigned char 
  5076 ;;  arg             4   10[COMMON] unsigned long 
  5077 ;;  exp             1    9[COMMON] unsigned char 
  5078 ;; Return value:  Size  Location     Type
  5079 ;;                  4    0[COMMON] unsigned char 
  5080 ;; Registers used:
  5081 ;;		wreg, status,2, status,0, btemp+1
  5082 ;; Tracked objects:
  5083 ;;		On entry : 0/0
  5084 ;;		On exit  : 0/0
  5085 ;;		Unchanged: 0/0
  5086 ;; Data sizes:     COMMON   BANK0   BANK1   BANK3   BANK2
  5087 ;;      Params:         4       0       0       0       0
  5088 ;;      Locals:         6       0       0       0       0
  5089 ;;      Temps:          4       0       0       0       0
  5090 ;;      Totals:        14       0       0       0       0
  5091 ;;Total ram usage:       14 bytes
  5092 ;; Hardware stack levels used: 1
  5093 ;; This function calls:
  5094 ;;		Nothing
  5095 ;; This function is called by:
  5096 ;;		_convertir_temperature
  5097 ;;		_log
  5098 ;; This function uses a non-reentrant model
  5099 ;;
  5100                           
  5101     09C5                     ___xxtofl:	
  5102                           ;psect for function ___xxtofl
  5103                           
  5104                           
  5105                           ;incstack = 0
  5106                           ; Regs used in ___xxtofl: [wreg+status,2+status,0+btemp+1]
  5107                           ;___xxtofl@sign stored from wreg
  5108     09C5  00F8               	movwf	___xxtofl@sign
  5109     09C6                     l3123:
  5110     09C6  0878               	movf	___xxtofl@sign,w
  5111     09C7  1903               	btfsc	3,2
  5112     09C8  29CA               	goto	u4571
  5113     09C9  29CB               	goto	u4570
  5114     09CA                     u4571:
  5115     09CA  29DF               	goto	l3129
  5116     09CB                     u4570:
  5117     09CB                     l3125:
  5118     09CB  1FF3               	btfss	___xxtofl@val+3,7
  5119     09CC  29CE               	goto	u4581
  5120     09CD  29CF               	goto	u4580
  5121     09CE                     u4581:
  5122     09CE  29DF               	goto	l3129
  5123     09CF                     u4580:
  5124     09CF                     l3127:
  5125     09CF  0970               	comf	___xxtofl@val,w
  5126     09D0  00FA               	movwf	___xxtofl@arg
  5127     09D1  0971               	comf	___xxtofl@val+1,w
  5128     09D2  00FB               	movwf	___xxtofl@arg+1
  5129     09D3  0972               	comf	___xxtofl@val+2,w
  5130     09D4  00FC               	movwf	___xxtofl@arg+2
  5131     09D5  0973               	comf	___xxtofl@val+3,w
  5132     09D6  00FD               	movwf	___xxtofl@arg+3
  5133     09D7  0AFA               	incf	___xxtofl@arg,f
  5134     09D8  1903               	skipnz
  5135     09D9  0AFB               	incf	___xxtofl@arg+1,f
  5136     09DA  1903               	skipnz
  5137     09DB  0AFC               	incf	___xxtofl@arg+2,f
  5138     09DC  1903               	skipnz
  5139     09DD  0AFD               	incf	___xxtofl@arg+3,f
  5140     09DE  29E7               	goto	l646
  5141     09DF                     l3129:
  5142     09DF  0873               	movf	___xxtofl@val+3,w
  5143     09E0  00FD               	movwf	___xxtofl@arg+3
  5144     09E1  0872               	movf	___xxtofl@val+2,w
  5145     09E2  00FC               	movwf	___xxtofl@arg+2
  5146     09E3  0871               	movf	___xxtofl@val+1,w
  5147     09E4  00FB               	movwf	___xxtofl@arg+1
  5148     09E5  0870               	movf	___xxtofl@val,w
  5149     09E6  00FA               	movwf	___xxtofl@arg
  5150     09E7                     l646:
  5151     09E7  0873               	movf	___xxtofl@val+3,w
  5152     09E8  0472               	iorwf	___xxtofl@val+2,w
  5153     09E9  0471               	iorwf	___xxtofl@val+1,w
  5154     09EA  0470               	iorwf	___xxtofl@val,w
  5155     09EB  1D03               	skipz
  5156     09EC  29EE               	goto	u4591
  5157     09ED  29EF               	goto	u4590
  5158     09EE                     u4591:
  5159     09EE  29F8               	goto	l3135
  5160     09EF                     u4590:
  5161     09EF                     l3131:
  5162     09EF  3000               	movlw	0
  5163     09F0  00F3               	movwf	?___xxtofl+3
  5164     09F1  3000               	movlw	0
  5165     09F2  00F2               	movwf	?___xxtofl+2
  5166     09F3  3000               	movlw	0
  5167     09F4  00F1               	movwf	?___xxtofl+1
  5168     09F5  3000               	movlw	0
  5169     09F6  00F0               	movwf	?___xxtofl
  5170     09F7  2A7C               	goto	l648
  5171     09F8                     l3135:
  5172     09F8  3096               	movlw	150
  5173     09F9  00F9               	movwf	___xxtofl@exp
  5174     09FA  2A08               	goto	l3141
  5175     09FB                     l3137:
  5176     09FB  3001               	movlw	1
  5177     09FC  00FF               	movwf	btemp+1
  5178     09FD  087F               	movf	btemp+1,w
  5179     09FE  07F9               	addwf	___xxtofl@exp,f
  5180     09FF                     l3139:
  5181     09FF  3001               	movlw	1
  5182     0A00                     u4605:
  5183     0A00  1003               	clrc
  5184     0A01  0CFD               	rrf	___xxtofl@arg+3,f
  5185     0A02  0CFC               	rrf	___xxtofl@arg+2,f
  5186     0A03  0CFB               	rrf	___xxtofl@arg+1,f
  5187     0A04  0CFA               	rrf	___xxtofl@arg,f
  5188     0A05  3EFF               	addlw	-1
  5189     0A06  1D03               	skipz
  5190     0A07  2A00               	goto	u4605
  5191     0A08                     l3141:
  5192     0A08  30FE               	movlw	254
  5193     0A09  057D               	andwf	___xxtofl@arg+3,w
  5194     0A0A  1D03               	btfss	3,2
  5195     0A0B  2A0D               	goto	u4611
  5196     0A0C  2A0E               	goto	u4610
  5197     0A0D                     u4611:
  5198     0A0D  29FB               	goto	l3137
  5199     0A0E                     u4610:
  5200     0A0E  2A2A               	goto	l3149
  5201     0A0F                     l3143:
  5202     0A0F  3001               	movlw	1
  5203     0A10  00FF               	movwf	btemp+1
  5204     0A11  087F               	movf	btemp+1,w
  5205     0A12  07F9               	addwf	___xxtofl@exp,f
  5206     0A13                     l3145:
  5207     0A13  3001               	movlw	1
  5208     0A14  07FA               	addwf	___xxtofl@arg,f
  5209     0A15  3000               	movlw	0
  5210     0A16  1803               	skipnc
  5211     0A17  3001               	movlw	1
  5212     0A18  07FB               	addwf	___xxtofl@arg+1,f
  5213     0A19  3000               	movlw	0
  5214     0A1A  1803               	skipnc
  5215     0A1B  3001               	movlw	1
  5216     0A1C  07FC               	addwf	___xxtofl@arg+2,f
  5217     0A1D  3000               	movlw	0
  5218     0A1E  1803               	skipnc
  5219     0A1F  3001               	movlw	1
  5220     0A20  07FD               	addwf	___xxtofl@arg+3,f
  5221     0A21                     l3147:
  5222     0A21  3001               	movlw	1
  5223     0A22                     u4625:
  5224     0A22  1003               	clrc
  5225     0A23  0CFD               	rrf	___xxtofl@arg+3,f
  5226     0A24  0CFC               	rrf	___xxtofl@arg+2,f
  5227     0A25  0CFB               	rrf	___xxtofl@arg+1,f
  5228     0A26  0CFA               	rrf	___xxtofl@arg,f
  5229     0A27  3EFF               	addlw	-1
  5230     0A28  1D03               	skipz
  5231     0A29  2A22               	goto	u4625
  5232     0A2A                     l3149:
  5233     0A2A  30FF               	movlw	255
  5234     0A2B  057D               	andwf	___xxtofl@arg+3,w
  5235     0A2C  1D03               	btfss	3,2
  5236     0A2D  2A2F               	goto	u4631
  5237     0A2E  2A30               	goto	u4630
  5238     0A2F                     u4631:
  5239     0A2F  2A0F               	goto	l3143
  5240     0A30                     u4630:
  5241     0A30  2A3C               	goto	l3153
  5242     0A31                     l3151:
  5243     0A31  3001               	movlw	1
  5244     0A32  02F9               	subwf	___xxtofl@exp,f
  5245     0A33  3001               	movlw	1
  5246     0A34  00F4               	movwf	??___xxtofl
  5247     0A35                     u4645:
  5248     0A35  1003               	clrc
  5249     0A36  0DFA               	rlf	___xxtofl@arg,f
  5250     0A37  0DFB               	rlf	___xxtofl@arg+1,f
  5251     0A38  0DFC               	rlf	___xxtofl@arg+2,f
  5252     0A39  0DFD               	rlf	___xxtofl@arg+3,f
  5253     0A3A  0BF4               	decfsz	??___xxtofl,f
  5254     0A3B  2A35               	goto	u4645
  5255     0A3C                     l3153:
  5256     0A3C  1BFC               	btfsc	___xxtofl@arg+2,7
  5257     0A3D  2A3F               	goto	u4651
  5258     0A3E  2A40               	goto	u4650
  5259     0A3F                     u4651:
  5260     0A3F  2A46               	goto	l659
  5261     0A40                     u4650:
  5262     0A40                     l3155:
  5263     0A40  3002               	movlw	2
  5264     0A41  0279               	subwf	___xxtofl@exp,w
  5265     0A42  1803               	skipnc
  5266     0A43  2A45               	goto	u4661
  5267     0A44  2A46               	goto	u4660
  5268     0A45                     u4661:
  5269     0A45  2A31               	goto	l3151
  5270     0A46                     u4660:
  5271     0A46                     l659:
  5272     0A46  1879               	btfsc	___xxtofl@exp,0
  5273     0A47  2A49               	goto	u4671
  5274     0A48  2A4A               	goto	u4670
  5275     0A49                     u4671:
  5276     0A49  2A52               	goto	l660
  5277     0A4A                     u4670:
  5278     0A4A                     l3157:
  5279     0A4A  30FF               	movlw	255
  5280     0A4B  05FA               	andwf	___xxtofl@arg,f
  5281     0A4C  30FF               	movlw	255
  5282     0A4D  05FB               	andwf	___xxtofl@arg+1,f
  5283     0A4E  307F               	movlw	127
  5284     0A4F  05FC               	andwf	___xxtofl@arg+2,f
  5285     0A50  30FF               	movlw	255
  5286     0A51  05FD               	andwf	___xxtofl@arg+3,f
  5287     0A52                     l660:
  5288     0A52  1003               	clrc
  5289     0A53  0CF9               	rrf	___xxtofl@exp,f
  5290     0A54                     l3159:
  5291     0A54  0879               	movf	___xxtofl@exp,w
  5292     0A55  00F4               	movwf	??___xxtofl
  5293     0A56  01F5               	clrf	??___xxtofl+1
  5294     0A57  01F6               	clrf	??___xxtofl+2
  5295     0A58  01F7               	clrf	??___xxtofl+3
  5296     0A59  3018               	movlw	24
  5297     0A5A                     u4685:
  5298     0A5A  1003               	clrc
  5299     0A5B  0DF4               	rlf	??___xxtofl,f
  5300     0A5C  0DF5               	rlf	??___xxtofl+1,f
  5301     0A5D  0DF6               	rlf	??___xxtofl+2,f
  5302     0A5E  0DF7               	rlf	??___xxtofl+3,f
  5303     0A5F                     u4680:
  5304     0A5F  3EFF               	addlw	-1
  5305     0A60  1D03               	skipz
  5306     0A61  2A5A               	goto	u4685
  5307     0A62  0874               	movf	??___xxtofl,w
  5308     0A63  04FA               	iorwf	___xxtofl@arg,f
  5309     0A64  0875               	movf	??___xxtofl+1,w
  5310     0A65  04FB               	iorwf	___xxtofl@arg+1,f
  5311     0A66  0876               	movf	??___xxtofl+2,w
  5312     0A67  04FC               	iorwf	___xxtofl@arg+2,f
  5313     0A68  0877               	movf	??___xxtofl+3,w
  5314     0A69  04FD               	iorwf	___xxtofl@arg+3,f
  5315     0A6A                     l3161:
  5316     0A6A  0878               	movf	___xxtofl@sign,w
  5317     0A6B  1903               	btfsc	3,2
  5318     0A6C  2A6E               	goto	u4691
  5319     0A6D  2A6F               	goto	u4690
  5320     0A6E                     u4691:
  5321     0A6E  2A74               	goto	l3167
  5322     0A6F                     u4690:
  5323     0A6F                     l3163:
  5324     0A6F  1FF3               	btfss	___xxtofl@val+3,7
  5325     0A70  2A72               	goto	u4701
  5326     0A71  2A73               	goto	u4700
  5327     0A72                     u4701:
  5328     0A72  2A74               	goto	l3167
  5329     0A73                     u4700:
  5330     0A73                     l3165:
  5331     0A73  17FD               	bsf	___xxtofl@arg+3,7
  5332     0A74                     l3167:
  5333     0A74  087D               	movf	___xxtofl@arg+3,w
  5334     0A75  00F3               	movwf	?___xxtofl+3
  5335     0A76  087C               	movf	___xxtofl@arg+2,w
  5336     0A77  00F2               	movwf	?___xxtofl+2
  5337     0A78  087B               	movf	___xxtofl@arg+1,w
  5338     0A79  00F1               	movwf	?___xxtofl+1
  5339     0A7A  087A               	movf	___xxtofl@arg,w
  5340     0A7B  00F0               	movwf	?___xxtofl
  5341     0A7C                     l648:
  5342     0A7C  0008               	return
  5343     0A7D                     __end_of___xxtofl:
  5344                           
  5345                           	psect	text13
  5346     0923                     __ptext13:	
  5347 ;; *************** function ___flge *****************
  5348 ;; Defined at:
  5349 ;;		line 4 in file "C:\Program Files\Microchip\xc8\v2.41\pic\sources\c90\common\flge.c"
  5350 ;; Parameters:    Size  Location     Type
  5351 ;;  ff1             4    0[COMMON] unsigned char 
  5352 ;;  ff2             4    4[COMMON] unsigned char 
  5353 ;; Auto vars:     Size  Location     Type
  5354 ;;		None
  5355 ;; Return value:  Size  Location     Type
  5356 ;;		None               void
  5357 ;; Registers used:
  5358 ;;		wreg, status,2, status,0
  5359 ;; Tracked objects:
  5360 ;;		On entry : 0/0
  5361 ;;		On exit  : 0/0
  5362 ;;		Unchanged: 0/0
  5363 ;; Data sizes:     COMMON   BANK0   BANK1   BANK3   BANK2
  5364 ;;      Params:         8       0       0       0       0
  5365 ;;      Locals:         0       0       0       0       0
  5366 ;;      Temps:          4       0       0       0       0
  5367 ;;      Totals:        12       0       0       0       0
  5368 ;;Total ram usage:       12 bytes
  5369 ;; Hardware stack levels used: 1
  5370 ;; This function calls:
  5371 ;;		Nothing
  5372 ;; This function is called by:
  5373 ;;		_log
  5374 ;; This function uses a non-reentrant model
  5375 ;;
  5376                           
  5377     0923                     ___flge:	
  5378                           ;psect for function ___flge
  5379                           
  5380     0923                     l3103:	
  5381                           ;incstack = 0
  5382                           ; Regs used in ___flge: [wreg+status,2+status,0]
  5383                           
  5384     0923  3000               	movlw	0
  5385     0924  0570               	andwf	___flge@ff1,w
  5386     0925  00F8               	movwf	??___flge
  5387     0926  3000               	movlw	0
  5388     0927  0571               	andwf	___flge@ff1+1,w
  5389     0928  00F9               	movwf	??___flge+1
  5390     0929  3080               	movlw	128
  5391     092A  0572               	andwf	___flge@ff1+2,w
  5392     092B  00FA               	movwf	??___flge+2
  5393     092C  307F               	movlw	127
  5394     092D  0573               	andwf	___flge@ff1+3,w
  5395     092E  00FB               	movwf	??___flge+3
  5396     092F  087B               	movf	??___flge+3,w
  5397     0930  047A               	iorwf	??___flge+2,w
  5398     0931  0479               	iorwf	??___flge+1,w
  5399     0932  0478               	iorwf	??___flge,w
  5400     0933  1D03               	skipz
  5401     0934  2936               	goto	u4501
  5402     0935  2937               	goto	u4500
  5403     0936                     u4501:
  5404     0936  293F               	goto	l387
  5405     0937                     u4500:
  5406     0937                     l3105:
  5407     0937  3000               	movlw	0
  5408     0938  00F3               	movwf	___flge@ff1+3
  5409     0939  3000               	movlw	0
  5410     093A  00F2               	movwf	___flge@ff1+2
  5411     093B  3000               	movlw	0
  5412     093C  00F1               	movwf	___flge@ff1+1
  5413     093D  3000               	movlw	0
  5414     093E  00F0               	movwf	___flge@ff1
  5415     093F                     l387:
  5416     093F  3000               	movlw	0
  5417     0940  0574               	andwf	___flge@ff2,w
  5418     0941  00F8               	movwf	??___flge
  5419     0942  3000               	movlw	0
  5420     0943  0575               	andwf	___flge@ff2+1,w
  5421     0944  00F9               	movwf	??___flge+1
  5422     0945  3080               	movlw	128
  5423     0946  0576               	andwf	___flge@ff2+2,w
  5424     0947  00FA               	movwf	??___flge+2
  5425     0948  307F               	movlw	127
  5426     0949  0577               	andwf	___flge@ff2+3,w
  5427     094A  00FB               	movwf	??___flge+3
  5428     094B  087B               	movf	??___flge+3,w
  5429     094C  047A               	iorwf	??___flge+2,w
  5430     094D  0479               	iorwf	??___flge+1,w
  5431     094E  0478               	iorwf	??___flge,w
  5432     094F  1D03               	skipz
  5433     0950  2952               	goto	u4511
  5434     0951  2953               	goto	u4510
  5435     0952                     u4511:
  5436     0952  295B               	goto	l3109
  5437     0953                     u4510:
  5438     0953                     l3107:
  5439     0953  3000               	movlw	0
  5440     0954  00F7               	movwf	___flge@ff2+3
  5441     0955  3000               	movlw	0
  5442     0956  00F6               	movwf	___flge@ff2+2
  5443     0957  3000               	movlw	0
  5444     0958  00F5               	movwf	___flge@ff2+1
  5445     0959  3000               	movlw	0
  5446     095A  00F4               	movwf	___flge@ff2
  5447     095B                     l3109:
  5448     095B  1FF3               	btfss	___flge@ff1+3,7
  5449     095C  295E               	goto	u4521
  5450     095D  295F               	goto	u4520
  5451     095E                     u4521:
  5452     095E  2983               	goto	l3113
  5453     095F                     u4520:
  5454     095F                     l3111:
  5455     095F  3000               	movlw	0
  5456     0960  00F8               	movwf	??___flge
  5457     0961  3000               	movlw	0
  5458     0962  00F9               	movwf	??___flge+1
  5459     0963  3000               	movlw	0
  5460     0964  00FA               	movwf	??___flge+2
  5461     0965  3080               	movlw	128
  5462     0966  00FB               	movwf	??___flge+3
  5463     0967  0870               	movf	___flge@ff1,w
  5464     0968  02F8               	subwf	??___flge,f
  5465     0969  0871               	movf	___flge@ff1+1,w
  5466     096A  1C03               	skipc
  5467     096B  0F71               	incfsz	___flge@ff1+1,w
  5468     096C  296E               	goto	u4531
  5469     096D  296F               	goto	u4532
  5470     096E                     u4531:
  5471     096E  02F9               	subwf	??___flge+1,f
  5472     096F                     u4532:
  5473     096F  0872               	movf	___flge@ff1+2,w
  5474     0970  1C03               	skipc
  5475     0971  0F72               	incfsz	___flge@ff1+2,w
  5476     0972  2974               	goto	u4533
  5477     0973  2975               	goto	u4534
  5478     0974                     u4533:
  5479     0974  02FA               	subwf	??___flge+2,f
  5480     0975                     u4534:
  5481     0975  0873               	movf	___flge@ff1+3,w
  5482     0976  1C03               	skipc
  5483     0977  0F73               	incfsz	___flge@ff1+3,w
  5484     0978  297A               	goto	u4535
  5485     0979  297B               	goto	u4536
  5486     097A                     u4535:
  5487     097A  02FB               	subwf	??___flge+3,f
  5488     097B                     u4536:
  5489     097B  087B               	movf	??___flge+3,w
  5490     097C  00F3               	movwf	___flge@ff1+3
  5491     097D  087A               	movf	??___flge+2,w
  5492     097E  00F2               	movwf	___flge@ff1+2
  5493     097F  0879               	movf	??___flge+1,w
  5494     0980  00F1               	movwf	___flge@ff1+1
  5495     0981  0878               	movf	??___flge,w
  5496     0982  00F0               	movwf	___flge@ff1
  5497     0983                     l3113:
  5498     0983  1FF7               	btfss	___flge@ff2+3,7
  5499     0984  2986               	goto	u4541
  5500     0985  2987               	goto	u4540
  5501     0986                     u4541:
  5502     0986  29AB               	goto	l390
  5503     0987                     u4540:
  5504     0987                     l3115:
  5505     0987  3000               	movlw	0
  5506     0988  00F8               	movwf	??___flge
  5507     0989  3000               	movlw	0
  5508     098A  00F9               	movwf	??___flge+1
  5509     098B  3000               	movlw	0
  5510     098C  00FA               	movwf	??___flge+2
  5511     098D  3080               	movlw	128
  5512     098E  00FB               	movwf	??___flge+3
  5513     098F  0874               	movf	___flge@ff2,w
  5514     0990  02F8               	subwf	??___flge,f
  5515     0991  0875               	movf	___flge@ff2+1,w
  5516     0992  1C03               	skipc
  5517     0993  0F75               	incfsz	___flge@ff2+1,w
  5518     0994  2996               	goto	u4551
  5519     0995  2997               	goto	u4552
  5520     0996                     u4551:
  5521     0996  02F9               	subwf	??___flge+1,f
  5522     0997                     u4552:
  5523     0997  0876               	movf	___flge@ff2+2,w
  5524     0998  1C03               	skipc
  5525     0999  0F76               	incfsz	___flge@ff2+2,w
  5526     099A  299C               	goto	u4553
  5527     099B  299D               	goto	u4554
  5528     099C                     u4553:
  5529     099C  02FA               	subwf	??___flge+2,f
  5530     099D                     u4554:
  5531     099D  0877               	movf	___flge@ff2+3,w
  5532     099E  1C03               	skipc
  5533     099F  0F77               	incfsz	___flge@ff2+3,w
  5534     09A0  29A2               	goto	u4555
  5535     09A1  29A3               	goto	u4556
  5536     09A2                     u4555:
  5537     09A2  02FB               	subwf	??___flge+3,f
  5538     09A3                     u4556:
  5539     09A3  087B               	movf	??___flge+3,w
  5540     09A4  00F7               	movwf	___flge@ff2+3
  5541     09A5  087A               	movf	??___flge+2,w
  5542     09A6  00F6               	movwf	___flge@ff2+2
  5543     09A7  0879               	movf	??___flge+1,w
  5544     09A8  00F5               	movwf	___flge@ff2+1
  5545     09A9  0878               	movf	??___flge,w
  5546     09AA  00F4               	movwf	___flge@ff2
  5547     09AB                     l390:
  5548     09AB  3080               	movlw	128
  5549     09AC  06F3               	xorwf	___flge@ff1+3,f
  5550     09AD  3080               	movlw	128
  5551     09AE  06F7               	xorwf	___flge@ff2+3,f
  5552     09AF  0877               	movf	___flge@ff2+3,w
  5553     09B0  0273               	subwf	___flge@ff1+3,w
  5554     09B1  1D03               	skipz
  5555     09B2  29BD               	goto	u4565
  5556     09B3  0876               	movf	___flge@ff2+2,w
  5557     09B4  0272               	subwf	___flge@ff1+2,w
  5558     09B5  1D03               	skipz
  5559     09B6  29BD               	goto	u4565
  5560     09B7  0875               	movf	___flge@ff2+1,w
  5561     09B8  0271               	subwf	___flge@ff1+1,w
  5562     09B9  1D03               	skipz
  5563     09BA  29BD               	goto	u4565
  5564     09BB  0874               	movf	___flge@ff2,w
  5565     09BC  0270               	subwf	___flge@ff1,w
  5566     09BD                     u4565:
  5567     09BD  1803               	skipnc
  5568     09BE  29C0               	goto	u4561
  5569     09BF  29C1               	goto	u4560
  5570     09C0                     u4561:
  5571     09C0  29C3               	goto	l3119
  5572     09C1                     u4560:
  5573     09C1                     l3117:
  5574     09C1  1003               	clrc
  5575     09C2  29C4               	goto	l391
  5576     09C3                     l3119:
  5577     09C3  1403               	setc
  5578     09C4                     l391:
  5579     09C4  0008               	return
  5580     09C5                     __end_of___flge:
  5581                           
  5582                           	psect	text14
  5583     0011                     __ptext14:	
  5584 ;; *************** function ___fltol *****************
  5585 ;; Defined at:
  5586 ;;		line 43 in file "C:\Program Files\Microchip\xc8\v2.41\pic\sources\c90\common\fltol.c"
  5587 ;; Parameters:    Size  Location     Type
  5588 ;;  f1              4    0[COMMON] unsigned char 
  5589 ;; Auto vars:     Size  Location     Type
  5590 ;;  exp1            1    9[COMMON] unsigned char 
  5591 ;;  sign1           1    8[COMMON] unsigned char 
  5592 ;; Return value:  Size  Location     Type
  5593 ;;                  4    0[COMMON] long 
  5594 ;; Registers used:
  5595 ;;		wreg, status,2, status,0, btemp+1
  5596 ;; Tracked objects:
  5597 ;;		On entry : 0/0
  5598 ;;		On exit  : 0/0
  5599 ;;		Unchanged: 0/0
  5600 ;; Data sizes:     COMMON   BANK0   BANK1   BANK3   BANK2
  5601 ;;      Params:         4       0       0       0       0
  5602 ;;      Locals:         2       0       0       0       0
  5603 ;;      Temps:          4       0       0       0       0
  5604 ;;      Totals:        10       0       0       0       0
  5605 ;;Total ram usage:       10 bytes
  5606 ;; Hardware stack levels used: 1
  5607 ;; This function calls:
  5608 ;;		Nothing
  5609 ;; This function is called by:
  5610 ;;		_convertir_temperature
  5611 ;; This function uses a non-reentrant model
  5612 ;;
  5613                           
  5614     0011                     ___fltol:	
  5615                           ;psect for function ___fltol
  5616                           
  5617     0011                     l2297:	
  5618                           ;incstack = 0
  5619                           ; Regs used in ___fltol: [wreg+status,2+status,0+btemp+1]
  5620                           
  5621     0011  1003               	clrc
  5622     0012  0D72               	rlf	___fltol@f1+2,w
  5623     0013  0D73               	rlf	___fltol@f1+3,w
  5624     0014  00F9               	movwf	___fltol@exp1
  5625     0015  0879               	movf	___fltol@exp1,w
  5626     0016  1D03               	btfss	3,2
  5627     0017  2819               	goto	u3001
  5628     0018  281A               	goto	u3000
  5629     0019                     u3001:
  5630     0019  2823               	goto	l2303
  5631     001A                     u3000:
  5632     001A                     l2299:
  5633     001A  3000               	movlw	0
  5634     001B  00F3               	movwf	?___fltol+3
  5635     001C  3000               	movlw	0
  5636     001D  00F2               	movwf	?___fltol+2
  5637     001E  3000               	movlw	0
  5638     001F  00F1               	movwf	?___fltol+1
  5639     0020  3000               	movlw	0
  5640     0021  00F0               	movwf	?___fltol
  5641     0022  2886               	goto	l399
  5642     0023                     l2303:
  5643     0023  0870               	movf	___fltol@f1,w
  5644     0024  00F4               	movwf	??___fltol
  5645     0025  0871               	movf	___fltol@f1+1,w
  5646     0026  00F5               	movwf	??___fltol+1
  5647     0027  0872               	movf	___fltol@f1+2,w
  5648     0028  00F6               	movwf	??___fltol+2
  5649     0029  0873               	movf	___fltol@f1+3,w
  5650     002A  00F7               	movwf	??___fltol+3
  5651     002B  301F               	movlw	31
  5652     002C                     u3015:
  5653     002C  1003               	clrc
  5654     002D  0CF7               	rrf	??___fltol+3,f
  5655     002E  0CF6               	rrf	??___fltol+2,f
  5656     002F  0CF5               	rrf	??___fltol+1,f
  5657     0030  0CF4               	rrf	??___fltol,f
  5658     0031                     u3010:
  5659     0031  3EFF               	addlw	-1
  5660     0032  1D03               	skipz
  5661     0033  282C               	goto	u3015
  5662     0034  0874               	movf	??___fltol,w
  5663     0035  00F8               	movwf	___fltol@sign1
  5664     0036                     l2305:
  5665     0036  17F2               	bsf	___fltol@f1+2,7
  5666     0037                     l2307:
  5667     0037  30FF               	movlw	255
  5668     0038  05F0               	andwf	___fltol@f1,f
  5669     0039  30FF               	movlw	255
  5670     003A  05F1               	andwf	___fltol@f1+1,f
  5671     003B  30FF               	movlw	255
  5672     003C  05F2               	andwf	___fltol@f1+2,f
  5673     003D  3000               	movlw	0
  5674     003E  05F3               	andwf	___fltol@f1+3,f
  5675     003F                     l2309:
  5676     003F  3096               	movlw	150
  5677     0040  02F9               	subwf	___fltol@exp1,f
  5678     0041                     l2311:
  5679     0041  1FF9               	btfss	___fltol@exp1,7
  5680     0042  2844               	goto	u3021
  5681     0043  2845               	goto	u3020
  5682     0044                     u3021:
  5683     0044  285F               	goto	l2323
  5684     0045                     u3020:
  5685     0045                     l2313:
  5686     0045  0879               	movf	___fltol@exp1,w
  5687     0046  3A80               	xorlw	128
  5688     0047  3E97               	addlw	151
  5689     0048  1803               	skipnc
  5690     0049  284B               	goto	u3031
  5691     004A  284C               	goto	u3030
  5692     004B                     u3031:
  5693     004B  284D               	goto	l2319
  5694     004C                     u3030:
  5695     004C  281A               	goto	l2299
  5696     004D                     l2319:
  5697     004D  3001               	movlw	1
  5698     004E                     u3045:
  5699     004E  1003               	clrc
  5700     004F  0CF3               	rrf	___fltol@f1+3,f
  5701     0050  0CF2               	rrf	___fltol@f1+2,f
  5702     0051  0CF1               	rrf	___fltol@f1+1,f
  5703     0052  0CF0               	rrf	___fltol@f1,f
  5704     0053  3EFF               	addlw	-1
  5705     0054  1D03               	skipz
  5706     0055  284E               	goto	u3045
  5707     0056                     l2321:
  5708     0056  3001               	movlw	1
  5709     0057  00FF               	movwf	btemp+1
  5710     0058  087F               	movf	btemp+1,w
  5711     0059  07F9               	addwf	___fltol@exp1,f
  5712     005A  1D03               	btfss	3,2
  5713     005B  285D               	goto	u3051
  5714     005C  285E               	goto	u3050
  5715     005D                     u3051:
  5716     005D  284D               	goto	l2319
  5717     005E                     u3050:
  5718     005E  2876               	goto	l2331
  5719     005F                     l2323:
  5720     005F  3020               	movlw	32
  5721     0060  0279               	subwf	___fltol@exp1,w
  5722     0061  1C03               	skipc
  5723     0062  2864               	goto	u3061
  5724     0063  2865               	goto	u3060
  5725     0064                     u3061:
  5726     0064  2871               	goto	l406
  5727     0065                     u3060:
  5728     0065  281A               	goto	l2299
  5729     0066                     l2329:
  5730     0066  3001               	movlw	1
  5731     0067  00F4               	movwf	??___fltol
  5732     0068                     u3075:
  5733     0068  1003               	clrc
  5734     0069  0DF0               	rlf	___fltol@f1,f
  5735     006A  0DF1               	rlf	___fltol@f1+1,f
  5736     006B  0DF2               	rlf	___fltol@f1+2,f
  5737     006C  0DF3               	rlf	___fltol@f1+3,f
  5738     006D  0BF4               	decfsz	??___fltol,f
  5739     006E  2868               	goto	u3075
  5740     006F  3001               	movlw	1
  5741     0070  02F9               	subwf	___fltol@exp1,f
  5742     0071                     l406:
  5743     0071  0879               	movf	___fltol@exp1,w
  5744     0072  1D03               	btfss	3,2
  5745     0073  2875               	goto	u3081
  5746     0074  2876               	goto	u3080
  5747     0075                     u3081:
  5748     0075  2866               	goto	l2329
  5749     0076                     u3080:
  5750     0076                     l2331:
  5751     0076  0878               	movf	___fltol@sign1,w
  5752     0077  1903               	btfsc	3,2
  5753     0078  287A               	goto	u3091
  5754     0079  287B               	goto	u3090
  5755     007A                     u3091:
  5756     007A  2886               	goto	l409
  5757     007B                     u3090:
  5758     007B                     l2333:
  5759     007B  09F0               	comf	___fltol@f1,f
  5760     007C  09F1               	comf	___fltol@f1+1,f
  5761     007D  09F2               	comf	___fltol@f1+2,f
  5762     007E  09F3               	comf	___fltol@f1+3,f
  5763     007F  0AF0               	incf	___fltol@f1,f
  5764     0080  1903               	skipnz
  5765     0081  0AF1               	incf	___fltol@f1+1,f
  5766     0082  1903               	skipnz
  5767     0083  0AF2               	incf	___fltol@f1+2,f
  5768     0084  1903               	skipnz
  5769     0085  0AF3               	incf	___fltol@f1+3,f
  5770     0086                     l409:
  5771     0086                     l399:
  5772     0086  0008               	return
  5773     0087                     __end_of___fltol:
  5774                           
  5775                           	psect	text15
  5776     0087                     __ptext15:	
  5777 ;; *************** function ___fldiv *****************
  5778 ;; Defined at:
  5779 ;;		line 8 in file "C:\Program Files\Microchip\xc8\v2.41\pic\sources\c90\common\sprcdiv.c"
  5780 ;; Parameters:    Size  Location     Type
  5781 ;;  a               4   31[BANK0 ] long 
  5782 ;;  b               4   35[BANK0 ] long 
  5783 ;; Auto vars:     Size  Location     Type
  5784 ;;  grs             4   51[BANK0 ] unsigned long 
  5785 ;;  rem             4   44[BANK0 ] unsigned long 
  5786 ;;  new_exp         2   49[BANK0 ] int 
  5787 ;;  aexp            1   56[BANK0 ] unsigned char 
  5788 ;;  bexp            1   55[BANK0 ] unsigned char 
  5789 ;;  sign            1   48[BANK0 ] unsigned char 
  5790 ;; Return value:  Size  Location     Type
  5791 ;;                  4   31[BANK0 ] unsigned char 
  5792 ;; Registers used:
  5793 ;;		wreg, status,2, status,0, btemp+1
  5794 ;; Tracked objects:
  5795 ;;		On entry : 0/0
  5796 ;;		On exit  : 0/0
  5797 ;;		Unchanged: 0/0
  5798 ;; Data sizes:     COMMON   BANK0   BANK1   BANK3   BANK2
  5799 ;;      Params:         0       8       0       0       0
  5800 ;;      Locals:         0      13       0       0       0
  5801 ;;      Temps:          0       5       0       0       0
  5802 ;;      Totals:         0      26       0       0       0
  5803 ;;Total ram usage:       26 bytes
  5804 ;; Hardware stack levels used: 1
  5805 ;; This function calls:
  5806 ;;		Nothing
  5807 ;; This function is called by:
  5808 ;;		_convertir_temperature
  5809 ;; This function uses a non-reentrant model
  5810 ;;
  5811                           
  5812     0087                     ___fldiv:	
  5813                           ;psect for function ___fldiv
  5814                           
  5815     0087                     l2383:	
  5816                           ;incstack = 0
  5817                           ; Regs used in ___fldiv: [wreg+status,2+status,0+btemp+1]
  5818                           
  5819     0087  1283               	bcf	3,5	;RP0=0, select bank0
  5820     0088  1303               	bcf	3,6	;RP1=0, select bank0
  5821     0089  0846               	movf	___fldiv@b+3,w
  5822     008A  3980               	andlw	128
  5823     008B  00D0               	movwf	___fldiv@sign
  5824     008C                     l2385:
  5825     008C  0846               	movf	___fldiv@b+3,w
  5826     008D  00C7               	movwf	??___fldiv
  5827     008E  0747               	addwf	??___fldiv,w
  5828     008F  00D7               	movwf	___fldiv@bexp
  5829     0090                     l2387:
  5830     0090  1FC5               	btfss	___fldiv@b+2,7
  5831     0091  2893               	goto	u3231
  5832     0092  2894               	goto	u3230
  5833     0093                     u3231:
  5834     0093  2895               	goto	l2391
  5835     0094                     u3230:
  5836     0094                     l2389:
  5837     0094  1457               	bsf	___fldiv@bexp,0
  5838     0095                     l2391:
  5839     0095  0857               	movf	___fldiv@bexp,w
  5840     0096  1903               	btfsc	3,2
  5841     0097  2899               	goto	u3241
  5842     0098  289A               	goto	u3240
  5843     0099                     u3241:
  5844     0099  28AA               	goto	l2401
  5845     009A                     u3240:
  5846     009A                     l2393:
  5847     009A  0A57               	incf	___fldiv@bexp,w
  5848     009B  1D03               	btfss	3,2
  5849     009C  289E               	goto	u3251
  5850     009D  289F               	goto	u3250
  5851     009E                     u3251:
  5852     009E  28A7               	goto	l2397
  5853     009F                     u3250:
  5854     009F                     l2395:
  5855     009F  3000               	movlw	0
  5856     00A0  00C6               	movwf	___fldiv@b+3
  5857     00A1  3000               	movlw	0
  5858     00A2  00C5               	movwf	___fldiv@b+2
  5859     00A3  3000               	movlw	0
  5860     00A4  00C4               	movwf	___fldiv@b+1
  5861     00A5  3000               	movlw	0
  5862     00A6  00C3               	movwf	___fldiv@b
  5863     00A7                     l2397:
  5864     00A7  17C5               	bsf	___fldiv@b+2,7
  5865     00A8                     l2399:
  5866     00A8  01C6               	clrf	___fldiv@b+3
  5867     00A9  28B2               	goto	l2403
  5868     00AA                     l2401:
  5869     00AA  3000               	movlw	0
  5870     00AB  00C6               	movwf	___fldiv@b+3
  5871     00AC  3000               	movlw	0
  5872     00AD  00C5               	movwf	___fldiv@b+2
  5873     00AE  3000               	movlw	0
  5874     00AF  00C4               	movwf	___fldiv@b+1
  5875     00B0  3000               	movlw	0
  5876     00B1  00C3               	movwf	___fldiv@b
  5877     00B2                     l2403:
  5878     00B2  0842               	movf	___fldiv@a+3,w
  5879     00B3  3980               	andlw	128
  5880     00B4  00FF               	movwf	btemp+1
  5881     00B5  087F               	movf	btemp+1,w
  5882     00B6  06D0               	xorwf	___fldiv@sign,f
  5883     00B7                     l2405:
  5884     00B7  0842               	movf	___fldiv@a+3,w
  5885     00B8  00C7               	movwf	??___fldiv
  5886     00B9  0747               	addwf	??___fldiv,w
  5887     00BA  00D8               	movwf	___fldiv@aexp
  5888     00BB                     l2407:
  5889     00BB  1FC1               	btfss	___fldiv@a+2,7
  5890     00BC  28BE               	goto	u3261
  5891     00BD  28BF               	goto	u3260
  5892     00BE                     u3261:
  5893     00BE  28C0               	goto	l2411
  5894     00BF                     u3260:
  5895     00BF                     l2409:
  5896     00BF  1458               	bsf	___fldiv@aexp,0
  5897     00C0                     l2411:
  5898     00C0  0858               	movf	___fldiv@aexp,w
  5899     00C1  1903               	btfsc	3,2
  5900     00C2  28C4               	goto	u3271
  5901     00C3  28C5               	goto	u3270
  5902     00C4                     u3271:
  5903     00C4  28D5               	goto	l2421
  5904     00C5                     u3270:
  5905     00C5                     l2413:
  5906     00C5  0A58               	incf	___fldiv@aexp,w
  5907     00C6  1D03               	btfss	3,2
  5908     00C7  28C9               	goto	u3281
  5909     00C8  28CA               	goto	u3280
  5910     00C9                     u3281:
  5911     00C9  28D2               	goto	l2417
  5912     00CA                     u3280:
  5913     00CA                     l2415:
  5914     00CA  3000               	movlw	0
  5915     00CB  00C2               	movwf	___fldiv@a+3
  5916     00CC  3000               	movlw	0
  5917     00CD  00C1               	movwf	___fldiv@a+2
  5918     00CE  3000               	movlw	0
  5919     00CF  00C0               	movwf	___fldiv@a+1
  5920     00D0  3000               	movlw	0
  5921     00D1  00BF               	movwf	___fldiv@a
  5922     00D2                     l2417:
  5923     00D2  17C1               	bsf	___fldiv@a+2,7
  5924     00D3                     l2419:
  5925     00D3  01C2               	clrf	___fldiv@a+3
  5926     00D4  28DD               	goto	l562
  5927     00D5                     l2421:
  5928     00D5  3000               	movlw	0
  5929     00D6  00C2               	movwf	___fldiv@a+3
  5930     00D7  3000               	movlw	0
  5931     00D8  00C1               	movwf	___fldiv@a+2
  5932     00D9  3000               	movlw	0
  5933     00DA  00C0               	movwf	___fldiv@a+1
  5934     00DB  3000               	movlw	0
  5935     00DC  00BF               	movwf	___fldiv@a
  5936     00DD                     l562:
  5937     00DD  0842               	movf	___fldiv@a+3,w
  5938     00DE  0441               	iorwf	___fldiv@a+2,w
  5939     00DF  0440               	iorwf	___fldiv@a+1,w
  5940     00E0  043F               	iorwf	___fldiv@a,w
  5941     00E1  1D03               	skipz
  5942     00E2  28E4               	goto	u3291
  5943     00E3  28E5               	goto	u3290
  5944     00E4                     u3291:
  5945     00E4  28FE               	goto	l2431
  5946     00E5                     u3290:
  5947     00E5                     l2423:
  5948     00E5  3000               	movlw	0
  5949     00E6  00C6               	movwf	___fldiv@b+3
  5950     00E7  3000               	movlw	0
  5951     00E8  00C5               	movwf	___fldiv@b+2
  5952     00E9  3000               	movlw	0
  5953     00EA  00C4               	movwf	___fldiv@b+1
  5954     00EB  3000               	movlw	0
  5955     00EC  00C3               	movwf	___fldiv@b
  5956     00ED  3080               	movlw	128
  5957     00EE  04C5               	iorwf	___fldiv@b+2,f
  5958     00EF  307F               	movlw	127
  5959     00F0  04C6               	iorwf	___fldiv@b+3,f
  5960     00F1                     l2425:
  5961     00F1  0850               	movf	___fldiv@sign,w
  5962     00F2  00FF               	movwf	btemp+1
  5963     00F3  087F               	movf	btemp+1,w
  5964     00F4  04C6               	iorwf	___fldiv@b+3,f
  5965     00F5                     l2427:
  5966     00F5  0846               	movf	___fldiv@b+3,w
  5967     00F6  00C2               	movwf	?___fldiv+3
  5968     00F7  0845               	movf	___fldiv@b+2,w
  5969     00F8  00C1               	movwf	?___fldiv+2
  5970     00F9  0844               	movf	___fldiv@b+1,w
  5971     00FA  00C0               	movwf	?___fldiv+1
  5972     00FB  0843               	movf	___fldiv@b,w
  5973     00FC  00BF               	movwf	?___fldiv
  5974     00FD  2A55               	goto	l564
  5975     00FE                     l2431:
  5976     00FE  0857               	movf	___fldiv@bexp,w
  5977     00FF  1D03               	btfss	3,2
  5978     0100  2902               	goto	u3301
  5979     0101  2903               	goto	u3300
  5980     0102                     u3301:
  5981     0102  290C               	goto	l2437
  5982     0103                     u3300:
  5983     0103                     l2433:
  5984     0103  3000               	movlw	0
  5985     0104  00C2               	movwf	?___fldiv+3
  5986     0105  3000               	movlw	0
  5987     0106  00C1               	movwf	?___fldiv+2
  5988     0107  3000               	movlw	0
  5989     0108  00C0               	movwf	?___fldiv+1
  5990     0109  3000               	movlw	0
  5991     010A  00BF               	movwf	?___fldiv
  5992     010B  2A55               	goto	l564
  5993     010C                     l2437:
  5994     010C  0857               	movf	___fldiv@bexp,w
  5995     010D  00C7               	movwf	??___fldiv
  5996     010E  01C8               	clrf	??___fldiv+1
  5997     010F  0848               	movf	??___fldiv+1,w
  5998     0110  00CA               	movwf	??___fldiv+3
  5999     0111  0858               	movf	___fldiv@aexp,w
  6000     0112  0247               	subwf	??___fldiv,w
  6001     0113  00C9               	movwf	??___fldiv+2
  6002     0114  1C03               	skipc
  6003     0115  03CA               	decf	??___fldiv+3,f
  6004     0116  0849               	movf	??___fldiv+2,w
  6005     0117  3E7F               	addlw	127
  6006     0118  00D1               	movwf	___fldiv@new_exp
  6007     0119  084A               	movf	??___fldiv+3,w
  6008     011A  1803               	skipnc
  6009     011B  3E01               	addlw	1
  6010     011C  3E00               	addlw	0
  6011     011D  00D2               	movwf	___fldiv@new_exp+1
  6012     011E                     l2439:
  6013     011E  0846               	movf	___fldiv@b+3,w
  6014     011F  00CF               	movwf	___fldiv@rem+3
  6015     0120  0845               	movf	___fldiv@b+2,w
  6016     0121  00CE               	movwf	___fldiv@rem+2
  6017     0122  0844               	movf	___fldiv@b+1,w
  6018     0123  00CD               	movwf	___fldiv@rem+1
  6019     0124  0843               	movf	___fldiv@b,w
  6020     0125  00CC               	movwf	___fldiv@rem
  6021     0126                     l2441:
  6022     0126  3000               	movlw	0
  6023     0127  00C6               	movwf	___fldiv@b+3
  6024     0128  3000               	movlw	0
  6025     0129  00C5               	movwf	___fldiv@b+2
  6026     012A  3000               	movlw	0
  6027     012B  00C4               	movwf	___fldiv@b+1
  6028     012C  3000               	movlw	0
  6029     012D  00C3               	movwf	___fldiv@b
  6030     012E                     l2443:
  6031     012E  3000               	movlw	0
  6032     012F  00D6               	movwf	___fldiv@grs+3
  6033     0130  3000               	movlw	0
  6034     0131  00D5               	movwf	___fldiv@grs+2
  6035     0132  3000               	movlw	0
  6036     0133  00D4               	movwf	___fldiv@grs+1
  6037     0134  3000               	movlw	0
  6038     0135  00D3               	movwf	___fldiv@grs
  6039     0136                     l2445:
  6040     0136  01D8               	clrf	___fldiv@aexp
  6041     0137  2982               	goto	l2465
  6042     0138                     l2447:
  6043     0138  0858               	movf	___fldiv@aexp,w
  6044     0139  1903               	btfsc	3,2
  6045     013A  293C               	goto	u3311
  6046     013B  293D               	goto	u3310
  6047     013C                     u3311:
  6048     013C  295D               	goto	l2457
  6049     013D                     u3310:
  6050     013D                     l2449:
  6051     013D  3001               	movlw	1
  6052     013E  00C7               	movwf	??___fldiv
  6053     013F                     u3325:
  6054     013F  1003               	clrc
  6055     0140  0DCC               	rlf	___fldiv@rem,f
  6056     0141  0DCD               	rlf	___fldiv@rem+1,f
  6057     0142  0DCE               	rlf	___fldiv@rem+2,f
  6058     0143  0DCF               	rlf	___fldiv@rem+3,f
  6059     0144  0BC7               	decfsz	??___fldiv,f
  6060     0145  293F               	goto	u3325
  6061     0146  3001               	movlw	1
  6062     0147  00C7               	movwf	??___fldiv
  6063     0148                     u3335:
  6064     0148  1003               	clrc
  6065     0149  0DC3               	rlf	___fldiv@b,f
  6066     014A  0DC4               	rlf	___fldiv@b+1,f
  6067     014B  0DC5               	rlf	___fldiv@b+2,f
  6068     014C  0DC6               	rlf	___fldiv@b+3,f
  6069     014D  0BC7               	decfsz	??___fldiv,f
  6070     014E  2948               	goto	u3335
  6071     014F                     l2451:
  6072     014F  1FD6               	btfss	___fldiv@grs+3,7
  6073     0150  2952               	goto	u3341
  6074     0151  2953               	goto	u3340
  6075     0152                     u3341:
  6076     0152  2954               	goto	l2455
  6077     0153                     u3340:
  6078     0153                     l2453:
  6079     0153  1443               	bsf	___fldiv@b,0
  6080     0154                     l2455:
  6081     0154  3001               	movlw	1
  6082     0155  00C7               	movwf	??___fldiv
  6083     0156                     u3355:
  6084     0156  1003               	clrc
  6085     0157  0DD3               	rlf	___fldiv@grs,f
  6086     0158  0DD4               	rlf	___fldiv@grs+1,f
  6087     0159  0DD5               	rlf	___fldiv@grs+2,f
  6088     015A  0DD6               	rlf	___fldiv@grs+3,f
  6089     015B  0BC7               	decfsz	??___fldiv,f
  6090     015C  2956               	goto	u3355
  6091     015D                     l2457:
  6092     015D  0842               	movf	___fldiv@a+3,w
  6093     015E  024F               	subwf	___fldiv@rem+3,w
  6094     015F  1D03               	skipz
  6095     0160  296B               	goto	u3365
  6096     0161  0841               	movf	___fldiv@a+2,w
  6097     0162  024E               	subwf	___fldiv@rem+2,w
  6098     0163  1D03               	skipz
  6099     0164  296B               	goto	u3365
  6100     0165  0840               	movf	___fldiv@a+1,w
  6101     0166  024D               	subwf	___fldiv@rem+1,w
  6102     0167  1D03               	skipz
  6103     0168  296B               	goto	u3365
  6104     0169  083F               	movf	___fldiv@a,w
  6105     016A  024C               	subwf	___fldiv@rem,w
  6106     016B                     u3365:
  6107     016B  1C03               	skipc
  6108     016C  296E               	goto	u3361
  6109     016D  296F               	goto	u3360
  6110     016E                     u3361:
  6111     016E  297E               	goto	l2463
  6112     016F                     u3360:
  6113     016F                     l2459:
  6114     016F  1756               	bsf	___fldiv@grs+3,6
  6115     0170                     l2461:
  6116     0170  083F               	movf	___fldiv@a,w
  6117     0171  02CC               	subwf	___fldiv@rem,f
  6118     0172  0840               	movf	___fldiv@a+1,w
  6119     0173  1C03               	skipc
  6120     0174  0F40               	incfsz	___fldiv@a+1,w
  6121     0175  02CD               	subwf	___fldiv@rem+1,f
  6122     0176  0841               	movf	___fldiv@a+2,w
  6123     0177  1C03               	skipc
  6124     0178  0F41               	incfsz	___fldiv@a+2,w
  6125     0179  02CE               	subwf	___fldiv@rem+2,f
  6126     017A  0842               	movf	___fldiv@a+3,w
  6127     017B  1C03               	skipc
  6128     017C  0F42               	incfsz	___fldiv@a+3,w
  6129     017D  02CF               	subwf	___fldiv@rem+3,f
  6130     017E                     l2463:
  6131     017E  3001               	movlw	1
  6132     017F  00FF               	movwf	btemp+1
  6133     0180  087F               	movf	btemp+1,w
  6134     0181  07D8               	addwf	___fldiv@aexp,f
  6135     0182                     l2465:
  6136     0182  301A               	movlw	26
  6137     0183  0258               	subwf	___fldiv@aexp,w
  6138     0184  1C03               	skipc
  6139     0185  2987               	goto	u3371
  6140     0186  2988               	goto	u3370
  6141     0187                     u3371:
  6142     0187  2938               	goto	l2447
  6143     0188                     u3370:
  6144     0188                     l2467:
  6145     0188  084F               	movf	___fldiv@rem+3,w
  6146     0189  044E               	iorwf	___fldiv@rem+2,w
  6147     018A  044D               	iorwf	___fldiv@rem+1,w
  6148     018B  044C               	iorwf	___fldiv@rem,w
  6149     018C  1903               	skipnz
  6150     018D  298F               	goto	u3381
  6151     018E  2990               	goto	u3380
  6152     018F                     u3381:
  6153     018F  29AF               	goto	l2481
  6154     0190                     u3380:
  6155     0190                     l2469:
  6156     0190  1453               	bsf	___fldiv@grs,0
  6157     0191  29AF               	goto	l2481
  6158     0192                     l2471:
  6159     0192  3001               	movlw	1
  6160     0193  00C7               	movwf	??___fldiv
  6161     0194                     u3395:
  6162     0194  1003               	clrc
  6163     0195  0DC3               	rlf	___fldiv@b,f
  6164     0196  0DC4               	rlf	___fldiv@b+1,f
  6165     0197  0DC5               	rlf	___fldiv@b+2,f
  6166     0198  0DC6               	rlf	___fldiv@b+3,f
  6167     0199  0BC7               	decfsz	??___fldiv,f
  6168     019A  2994               	goto	u3395
  6169     019B                     l2473:
  6170     019B  1FD6               	btfss	___fldiv@grs+3,7
  6171     019C  299E               	goto	u3401
  6172     019D  299F               	goto	u3400
  6173     019E                     u3401:
  6174     019E  29A0               	goto	l2477
  6175     019F                     u3400:
  6176     019F                     l2475:
  6177     019F  1443               	bsf	___fldiv@b,0
  6178     01A0                     l2477:
  6179     01A0  3001               	movlw	1
  6180     01A1  00C7               	movwf	??___fldiv
  6181     01A2                     u3415:
  6182     01A2  1003               	clrc
  6183     01A3  0DD3               	rlf	___fldiv@grs,f
  6184     01A4  0DD4               	rlf	___fldiv@grs+1,f
  6185     01A5  0DD5               	rlf	___fldiv@grs+2,f
  6186     01A6  0DD6               	rlf	___fldiv@grs+3,f
  6187     01A7  0BC7               	decfsz	??___fldiv,f
  6188     01A8  29A2               	goto	u3415
  6189     01A9                     l2479:
  6190     01A9  30FF               	movlw	255
  6191     01AA  07D1               	addwf	___fldiv@new_exp,f
  6192     01AB  1803               	skipnc
  6193     01AC  0AD2               	incf	___fldiv@new_exp+1,f
  6194     01AD  30FF               	movlw	255
  6195     01AE  07D2               	addwf	___fldiv@new_exp+1,f
  6196     01AF                     l2481:
  6197     01AF  1FC5               	btfss	___fldiv@b+2,7
  6198     01B0  29B2               	goto	u3421
  6199     01B1  29B3               	goto	u3420
  6200     01B2                     u3421:
  6201     01B2  2992               	goto	l2471
  6202     01B3                     u3420:
  6203     01B3                     l2483:
  6204     01B3  01D8               	clrf	___fldiv@aexp
  6205     01B4                     l2485:
  6206     01B4  1FD6               	btfss	___fldiv@grs+3,7
  6207     01B5  29B7               	goto	u3431
  6208     01B6  29B8               	goto	u3430
  6209     01B7                     u3431:
  6210     01B7  29D4               	goto	l2493
  6211     01B8                     u3430:
  6212     01B8                     l2487:
  6213     01B8  30FF               	movlw	255
  6214     01B9  0553               	andwf	___fldiv@grs,w
  6215     01BA  00C7               	movwf	??___fldiv
  6216     01BB  30FF               	movlw	255
  6217     01BC  0554               	andwf	___fldiv@grs+1,w
  6218     01BD  00C8               	movwf	??___fldiv+1
  6219     01BE  30FF               	movlw	255
  6220     01BF  0555               	andwf	___fldiv@grs+2,w
  6221     01C0  00C9               	movwf	??___fldiv+2
  6222     01C1  307F               	movlw	127
  6223     01C2  0556               	andwf	___fldiv@grs+3,w
  6224     01C3  00CA               	movwf	??___fldiv+3
  6225     01C4  084A               	movf	??___fldiv+3,w
  6226     01C5  0449               	iorwf	??___fldiv+2,w
  6227     01C6  0448               	iorwf	??___fldiv+1,w
  6228     01C7  0447               	iorwf	??___fldiv,w
  6229     01C8  1903               	skipnz
  6230     01C9  29CB               	goto	u3441
  6231     01CA  29CC               	goto	u3440
  6232     01CB                     u3441:
  6233     01CB  29CF               	goto	l578
  6234     01CC                     u3440:
  6235     01CC                     l2489:
  6236     01CC  01D8               	clrf	___fldiv@aexp
  6237     01CD  0AD8               	incf	___fldiv@aexp,f
  6238     01CE  29D4               	goto	l2493
  6239     01CF                     l578:
  6240     01CF  1C43               	btfss	___fldiv@b,0
  6241     01D0  29D2               	goto	u3451
  6242     01D1  29D3               	goto	u3450
  6243     01D2                     u3451:
  6244     01D2  29D4               	goto	l2493
  6245     01D3                     u3450:
  6246     01D3  29CC               	goto	l2489
  6247     01D4                     l2493:
  6248     01D4  0858               	movf	___fldiv@aexp,w
  6249     01D5  1903               	btfsc	3,2
  6250     01D6  29D8               	goto	u3461
  6251     01D7  29D9               	goto	u3460
  6252     01D8                     u3461:
  6253     01D8  2A0A               	goto	l2503
  6254     01D9                     u3460:
  6255     01D9                     l2495:
  6256     01D9  3001               	movlw	1
  6257     01DA  07C3               	addwf	___fldiv@b,f
  6258     01DB  3000               	movlw	0
  6259     01DC  1803               	skipnc
  6260     01DD  3001               	movlw	1
  6261     01DE  07C4               	addwf	___fldiv@b+1,f
  6262     01DF  3000               	movlw	0
  6263     01E0  1803               	skipnc
  6264     01E1  3001               	movlw	1
  6265     01E2  07C5               	addwf	___fldiv@b+2,f
  6266     01E3  3000               	movlw	0
  6267     01E4  1803               	skipnc
  6268     01E5  3001               	movlw	1
  6269     01E6  07C6               	addwf	___fldiv@b+3,f
  6270     01E7                     l2497:
  6271     01E7  1C46               	btfss	___fldiv@b+3,0
  6272     01E8  29EA               	goto	u3471
  6273     01E9  29EB               	goto	u3470
  6274     01EA                     u3471:
  6275     01EA  2A0A               	goto	l2503
  6276     01EB                     u3470:
  6277     01EB                     l2499:
  6278     01EB  0843               	movf	___fldiv@b,w
  6279     01EC  00C7               	movwf	??___fldiv
  6280     01ED  0844               	movf	___fldiv@b+1,w
  6281     01EE  00C8               	movwf	??___fldiv+1
  6282     01EF  0845               	movf	___fldiv@b+2,w
  6283     01F0  00C9               	movwf	??___fldiv+2
  6284     01F1  0846               	movf	___fldiv@b+3,w
  6285     01F2  00CA               	movwf	??___fldiv+3
  6286     01F3  3001               	movlw	1
  6287     01F4  00CB               	movwf	??___fldiv+4
  6288     01F5                     u3485:
  6289     01F5  0D4A               	rlf	??___fldiv+3,w
  6290     01F6  0CCA               	rrf	??___fldiv+3,f
  6291     01F7  0CC9               	rrf	??___fldiv+2,f
  6292     01F8  0CC8               	rrf	??___fldiv+1,f
  6293     01F9  0CC7               	rrf	??___fldiv,f
  6294     01FA                     u3480:
  6295     01FA  0BCB               	decfsz	??___fldiv+4,f
  6296     01FB  29F5               	goto	u3485
  6297     01FC  084A               	movf	??___fldiv+3,w
  6298     01FD  00C6               	movwf	___fldiv@b+3
  6299     01FE  0849               	movf	??___fldiv+2,w
  6300     01FF  00C5               	movwf	___fldiv@b+2
  6301     0200  0848               	movf	??___fldiv+1,w
  6302     0201  00C4               	movwf	___fldiv@b+1
  6303     0202  0847               	movf	??___fldiv,w
  6304     0203  00C3               	movwf	___fldiv@b
  6305     0204                     l2501:
  6306     0204  3001               	movlw	1
  6307     0205  07D1               	addwf	___fldiv@new_exp,f
  6308     0206  1803               	skipnc
  6309     0207  0AD2               	incf	___fldiv@new_exp+1,f
  6310     0208  3000               	movlw	0
  6311     0209  07D2               	addwf	___fldiv@new_exp+1,f
  6312     020A                     l2503:
  6313     020A  0852               	movf	___fldiv@new_exp+1,w
  6314     020B  3A80               	xorlw	128
  6315     020C  00FF               	movwf	btemp+1
  6316     020D  3080               	movlw	128
  6317     020E  027F               	subwf	btemp+1,w
  6318     020F  1D03               	skipz
  6319     0210  2A13               	goto	u3495
  6320     0211  30FF               	movlw	255
  6321     0212  0251               	subwf	___fldiv@new_exp,w
  6322     0213                     u3495:
  6323     0213  1C03               	skipc
  6324     0214  2A16               	goto	u3491
  6325     0215  2A17               	goto	u3490
  6326     0216                     u3491:
  6327     0216  2A25               	goto	l2507
  6328     0217                     u3490:
  6329     0217                     l2505:
  6330     0217  30FF               	movlw	255
  6331     0218  1283               	bcf	3,5	;RP0=0, select bank0
  6332     0219  1303               	bcf	3,6	;RP1=0, select bank0
  6333     021A  00D1               	movwf	___fldiv@new_exp
  6334     021B  3000               	movlw	0
  6335     021C  00D2               	movwf	___fldiv@new_exp+1
  6336     021D  3000               	movlw	0
  6337     021E  00C6               	movwf	___fldiv@b+3
  6338     021F  3000               	movlw	0
  6339     0220  00C5               	movwf	___fldiv@b+2
  6340     0221  3000               	movlw	0
  6341     0222  00C4               	movwf	___fldiv@b+1
  6342     0223  3000               	movlw	0
  6343     0224  00C3               	movwf	___fldiv@b
  6344     0225                     l2507:
  6345     0225  1283               	bcf	3,5	;RP0=0, select bank0
  6346     0226  1303               	bcf	3,6	;RP1=0, select bank0
  6347     0227  0852               	movf	___fldiv@new_exp+1,w
  6348     0228  3A80               	xorlw	128
  6349     0229  00FF               	movwf	btemp+1
  6350     022A  3080               	movlw	128
  6351     022B  027F               	subwf	btemp+1,w
  6352     022C  1D03               	skipz
  6353     022D  2A30               	goto	u3505
  6354     022E  3001               	movlw	1
  6355     022F  0251               	subwf	___fldiv@new_exp,w
  6356     0230                     u3505:
  6357     0230  1803               	skipnc
  6358     0231  2A33               	goto	u3501
  6359     0232  2A34               	goto	u3500
  6360     0233                     u3501:
  6361     0233  2A41               	goto	l584
  6362     0234                     u3500:
  6363     0234                     l2509:
  6364     0234  1283               	bcf	3,5	;RP0=0, select bank0
  6365     0235  1303               	bcf	3,6	;RP1=0, select bank0
  6366     0236  01D1               	clrf	___fldiv@new_exp
  6367     0237  01D2               	clrf	___fldiv@new_exp+1
  6368     0238                     l2511:
  6369     0238  3000               	movlw	0
  6370     0239  00C6               	movwf	___fldiv@b+3
  6371     023A  3000               	movlw	0
  6372     023B  00C5               	movwf	___fldiv@b+2
  6373     023C  3000               	movlw	0
  6374     023D  00C4               	movwf	___fldiv@b+1
  6375     023E  3000               	movlw	0
  6376     023F  00C3               	movwf	___fldiv@b
  6377     0240                     l2513:
  6378     0240  01D0               	clrf	___fldiv@sign
  6379     0241                     l584:
  6380     0241  1283               	bcf	3,5	;RP0=0, select bank0
  6381     0242  1303               	bcf	3,6	;RP1=0, select bank0
  6382     0243  0851               	movf	___fldiv@new_exp,w
  6383     0244  00D7               	movwf	___fldiv@bexp
  6384     0245                     l2515:
  6385     0245  1C57               	btfss	___fldiv@bexp,0
  6386     0246  2A48               	goto	u3511
  6387     0247  2A49               	goto	u3510
  6388     0248                     u3511:
  6389     0248  2A4B               	goto	l2519
  6390     0249                     u3510:
  6391     0249                     l2517:
  6392     0249  17C5               	bsf	___fldiv@b+2,7
  6393     024A  2A4F               	goto	l2521
  6394     024B                     l2519:
  6395     024B  307F               	movlw	127
  6396     024C  00FF               	movwf	btemp+1
  6397     024D  087F               	movf	btemp+1,w
  6398     024E  05C5               	andwf	___fldiv@b+2,f
  6399     024F                     l2521:
  6400     024F  0857               	movf	___fldiv@bexp,w
  6401     0250  00C7               	movwf	??___fldiv
  6402     0251  1003               	clrc
  6403     0252  0C47               	rrf	??___fldiv,w
  6404     0253  00C6               	movwf	___fldiv@b+3
  6405     0254  28F1               	goto	l2425
  6406     0255                     l564:
  6407     0255  0008               	return
  6408     0256                     __end_of___fldiv:
  6409                           
  6410                           	psect	text16
  6411     1658                     __ptext16:	
  6412 ;; *************** function _adc_conversion *****************
  6413 ;; Defined at:
  6414 ;;		line 57 in file "mainadc.c"
  6415 ;; Parameters:    Size  Location     Type
  6416 ;;  channel         2    0[COMMON] int 
  6417 ;; Auto vars:     Size  Location     Type
  6418 ;;		None
  6419 ;; Return value:  Size  Location     Type
  6420 ;;                  2    0[COMMON] int 
  6421 ;; Registers used:
  6422 ;;		wreg, status,2, status,0
  6423 ;; Tracked objects:
  6424 ;;		On entry : 0/0
  6425 ;;		On exit  : 0/0
  6426 ;;		Unchanged: 0/0
  6427 ;; Data sizes:     COMMON   BANK0   BANK1   BANK3   BANK2
  6428 ;;      Params:         2       0       0       0       0
  6429 ;;      Locals:         0       0       0       0       0
  6430 ;;      Temps:          1       0       0       0       0
  6431 ;;      Totals:         3       0       0       0       0
  6432 ;;Total ram usage:        3 bytes
  6433 ;; Hardware stack levels used: 1
  6434 ;; This function calls:
  6435 ;;		Nothing
  6436 ;; This function is called by:
  6437 ;;		_main
  6438 ;; This function uses a non-reentrant model
  6439 ;;
  6440                           
  6441     1658                     _adc_conversion:	
  6442                           ;psect for function _adc_conversion
  6443                           
  6444     1658                     l2561:	
  6445                           ;incstack = 0
  6446                           ; Regs used in _adc_conversion: [wreg+status,2+status,0]
  6447                           
  6448                           
  6449                           ;mainadc.c: 59:      ADCON0bits.CHS = (0x0f & channel);
  6450     1658  0870               	movf	adc_conversion@channel,w
  6451     1659  390F               	andlw	15
  6452     165A  00F2               	movwf	??_adc_conversion
  6453     165B  0DF2               	rlf	??_adc_conversion,f
  6454     165C  0DF2               	rlf	??_adc_conversion,f
  6455     165D  1283               	bcf	3,5	;RP0=0, select bank0
  6456     165E  1303               	bcf	3,6	;RP1=0, select bank0
  6457     165F  081F               	movf	31,w	;volatile
  6458     1660  0672               	xorwf	??_adc_conversion,w
  6459     1661  39C3               	andlw	-61
  6460     1662  0672               	xorwf	??_adc_conversion,w
  6461     1663  009F               	movwf	31	;volatile
  6462     1664                     l2563:
  6463                           
  6464                           ;mainadc.c: 60:      ADCON0bits.ADON = 1;
  6465     1664  141F               	bsf	31,0	;volatile
  6466     1665                     l2565:
  6467                           
  6468                           ;mainadc.c: 61:      _delay((unsigned long)((30)*(8000000/4000000.0)));
  6469     1665  3013               	movlw	19
  6470     1666  00F2               	movwf	??_adc_conversion
  6471     1667                     u4817:
  6472     1667  0BF2               	decfsz	??_adc_conversion,f
  6473     1668  2E67               	goto	u4817
  6474     1669  2E6A               	nop2
  6475     166A                     l2567:
  6476                           
  6477                           ;mainadc.c: 62:      ADCON0bits.GO = 1;
  6478     166A  1283               	bcf	3,5	;RP0=0, select bank0
  6479     166B  1303               	bcf	3,6	;RP1=0, select bank0
  6480     166C  149F               	bsf	31,1	;volatile
  6481     166D                     l56:	
  6482                           ;mainadc.c: 63:      while (ADCON0bits.GO);
  6483                           
  6484     166D  189F               	btfsc	31,1	;volatile
  6485     166E  2E70               	goto	u3531
  6486     166F  2E71               	goto	u3530
  6487     1670                     u3531:
  6488     1670  2E6D               	goto	l56
  6489     1671                     u3530:
  6490     1671                     l58:
  6491                           
  6492                           ;mainadc.c: 64:      ADCON0bits.ADON = 0;
  6493     1671  101F               	bcf	31,0	;volatile
  6494     1672                     l2569:
  6495                           
  6496                           ;mainadc.c: 65:      return ((ADRESH << 8) | ADRESL);
  6497     1672  081E               	movf	30,w	;volatile
  6498     1673  00F1               	movwf	?_adc_conversion+1
  6499     1674  1683               	bsf	3,5	;RP0=1, select bank1
  6500     1675  1303               	bcf	3,6	;RP1=0, select bank1
  6501     1676  081E               	movf	30,w	;volatile
  6502     1677  00F0               	movwf	?_adc_conversion
  6503     1678                     l59:
  6504     1678  0008               	return
  6505     1679                     __end_of_adc_conversion:
  6506                           
  6507                           	psect	text17
  6508     0005                     __ptext17:	
  6509 ;; *************** function _adc_begin *****************
  6510 ;; Defined at:
  6511 ;;		line 49 in file "mainadc.c"
  6512 ;; Parameters:    Size  Location     Type
  6513 ;;		None
  6514 ;; Auto vars:     Size  Location     Type
  6515 ;;		None
  6516 ;; Return value:  Size  Location     Type
  6517 ;;                  1    wreg      void 
  6518 ;; Registers used:
  6519 ;;		wreg, status,2, status,0
  6520 ;; Tracked objects:
  6521 ;;		On entry : 0/0
  6522 ;;		On exit  : 0/0
  6523 ;;		Unchanged: 0/0
  6524 ;; Data sizes:     COMMON   BANK0   BANK1   BANK3   BANK2
  6525 ;;      Params:         0       0       0       0       0
  6526 ;;      Locals:         0       0       0       0       0
  6527 ;;      Temps:          0       0       0       0       0
  6528 ;;      Totals:         0       0       0       0       0
  6529 ;;Total ram usage:        0 bytes
  6530 ;; Hardware stack levels used: 1
  6531 ;; This function calls:
  6532 ;;		Nothing
  6533 ;; This function is called by:
  6534 ;;		_main
  6535 ;; This function uses a non-reentrant model
  6536 ;;
  6537                           
  6538     0005                     _adc_begin:	
  6539                           ;psect for function _adc_begin
  6540                           
  6541     0005                     l2529:	
  6542                           ;incstack = 0
  6543                           ; Regs used in _adc_begin: [wreg+status,2+status,0]
  6544                           
  6545                           
  6546                           ;mainadc.c: 50:     ADCON1bits.ADFM = 1;
  6547     0005  1683               	bsf	3,5	;RP0=1, select bank1
  6548     0006  1303               	bcf	3,6	;RP1=0, select bank1
  6549     0007  179F               	bsf	31,7	;volatile
  6550                           
  6551                           ;mainadc.c: 51:     ADCON1bits.VCFG0 = 0;
  6552     0008  121F               	bcf	31,4	;volatile
  6553                           
  6554                           ;mainadc.c: 52:     ADCON1bits.VCFG1 = 0;
  6555     0009  129F               	bcf	31,5	;volatile
  6556     000A                     l2531:
  6557                           
  6558                           ;mainadc.c: 53:     ADCON0bits.ADCS = 0b01;
  6559     000A  1283               	bcf	3,5	;RP0=0, select bank0
  6560     000B  1303               	bcf	3,6	;RP1=0, select bank0
  6561     000C  081F               	movf	31,w	;volatile
  6562     000D  393F               	andlw	-193
  6563     000E  3840               	iorlw	64
  6564     000F  009F               	movwf	31	;volatile
  6565     0010                     l53:
  6566     0010  0008               	return
  6567     0011                     __end_of_adc_begin:
  6568                           
  6569                           	psect	text18
  6570     169F                     __ptext18:	
  6571 ;; *************** function _LCD_String_xy *****************
  6572 ;; Defined at:
  6573 ;;		line 109 in file "lcd.c"
  6574 ;; Parameters:    Size  Location     Type
  6575 ;;  row             1    wreg     unsigned char 
  6576 ;;  pos             1    5[COMMON] unsigned char 
  6577 ;;  msg             2    6[COMMON] PTR const unsigned char 
  6578 ;;		 -> buffer(17), STR_1(17), 
  6579 ;; Auto vars:     Size  Location     Type
  6580 ;;  row             1    8[COMMON] unsigned char 
  6581 ;;  location        1    9[COMMON] unsigned char 
  6582 ;; Return value:  Size  Location     Type
  6583 ;;                  1    wreg      void 
  6584 ;; Registers used:
  6585 ;;		wreg, fsr0l, fsr0h, status,2, status,0, btemp+1, pclath, cstack
  6586 ;; Tracked objects:
  6587 ;;		On entry : 0/0
  6588 ;;		On exit  : 0/0
  6589 ;;		Unchanged: 0/0
  6590 ;; Data sizes:     COMMON   BANK0   BANK1   BANK3   BANK2
  6591 ;;      Params:         3       0       0       0       0
  6592 ;;      Locals:         2       0       0       0       0
  6593 ;;      Temps:          0       0       0       0       0
  6594 ;;      Totals:         5       0       0       0       0
  6595 ;;Total ram usage:        5 bytes
  6596 ;; Hardware stack levels used: 1
  6597 ;; Hardware stack levels required when called: 2
  6598 ;; This function calls:
  6599 ;;		_LCD_Command
  6600 ;;		_LCD_String
  6601 ;; This function is called by:
  6602 ;;		_main
  6603 ;; This function uses a non-reentrant model
  6604 ;;
  6605                           
  6606     169F                     _LCD_String_xy:	
  6607                           ;psect for function _LCD_String_xy
  6608                           
  6609                           
  6610                           ;incstack = 0
  6611                           ; Regs used in _LCD_String_xy: [wreg-fsr0h+status,2+status,0+btemp+1+pclath+cstack]
  6612                           ;LCD_String_xy@row stored from wreg
  6613     169F  00F8               	movwf	LCD_String_xy@row
  6614     16A0                     l2547:
  6615     16A0                     l2549:
  6616                           
  6617                           ;lcd.c: 112:     if(row<=1)
  6618     16A0  3002               	movlw	2
  6619     16A1  0278               	subwf	LCD_String_xy@row,w
  6620     16A2  1803               	skipnc
  6621     16A3  2EA5               	goto	u3521
  6622     16A4  2EA6               	goto	u3520
  6623     16A5                     u3521:
  6624     16A5  2EB1               	goto	l2555
  6625     16A6                     u3520:
  6626     16A6                     l2551:
  6627                           
  6628                           ;lcd.c: 113:     {;lcd.c: 114:         location=(0x80) | ((pos) & 0x0f);
  6629     16A6  0875               	movf	LCD_String_xy@pos,w
  6630     16A7  390F               	andlw	15
  6631     16A8  3880               	iorlw	128
  6632     16A9  00F9               	movwf	LCD_String_xy@location
  6633     16AA                     l2553:
  6634                           
  6635                           ;lcd.c: 115:         LCD_Command(location);
  6636     16AA  0879               	movf	LCD_String_xy@location,w
  6637     16AB  160A  118A  2716  160A  118A  	fcall	_LCD_Command
  6638                           
  6639                           ;lcd.c: 116:     }
  6640     16B0  2EBB               	goto	l2559
  6641     16B1                     l2555:
  6642                           
  6643                           ;lcd.c: 118:     {;lcd.c: 119:         location=(0xC0) | ((pos) & 0x0f);
  6644     16B1  0875               	movf	LCD_String_xy@pos,w
  6645     16B2  390F               	andlw	15
  6646     16B3  38C0               	iorlw	192
  6647     16B4  00F9               	movwf	LCD_String_xy@location
  6648     16B5                     l2557:
  6649                           
  6650                           ;lcd.c: 120:         LCD_Command(location);
  6651     16B5  0879               	movf	LCD_String_xy@location,w
  6652     16B6  160A  118A  2716  160A  118A  	fcall	_LCD_Command
  6653     16BB                     l2559:
  6654                           
  6655                           ;lcd.c: 124:     LCD_String(msg);
  6656     16BB  0876               	movf	LCD_String_xy@msg,w
  6657     16BC  00F3               	movwf	LCD_String@msg
  6658     16BD  0877               	movf	LCD_String_xy@msg+1,w
  6659     16BE  00F4               	movwf	LCD_String@msg+1
  6660     16BF  160A  118A  2679  160A  118A  	fcall	_LCD_String
  6661     16C4                     l96:
  6662     16C4  0008               	return
  6663     16C5                     __end_of_LCD_String_xy:
  6664                           
  6665                           	psect	text19
  6666     1679                     __ptext19:	
  6667 ;; *************** function _LCD_String *****************
  6668 ;; Defined at:
  6669 ;;		line 99 in file "lcd.c"
  6670 ;; Parameters:    Size  Location     Type
  6671 ;;  msg             2    3[COMMON] PTR const unsigned char 
  6672 ;;		 -> buffer(17), STR_1(17), 
  6673 ;; Auto vars:     Size  Location     Type
  6674 ;;		None
  6675 ;; Return value:  Size  Location     Type
  6676 ;;                  1    wreg      void 
  6677 ;; Registers used:
  6678 ;;		wreg, fsr0l, fsr0h, status,2, status,0, btemp+1, pclath, cstack
  6679 ;; Tracked objects:
  6680 ;;		On entry : 0/0
  6681 ;;		On exit  : 0/0
  6682 ;;		Unchanged: 0/0
  6683 ;; Data sizes:     COMMON   BANK0   BANK1   BANK3   BANK2
  6684 ;;      Params:         2       0       0       0       0
  6685 ;;      Locals:         0       0       0       0       0
  6686 ;;      Temps:          0       0       0       0       0
  6687 ;;      Totals:         2       0       0       0       0
  6688 ;;Total ram usage:        2 bytes
  6689 ;; Hardware stack levels used: 1
  6690 ;; Hardware stack levels required when called: 1
  6691 ;; This function calls:
  6692 ;;		_LCD_Char
  6693 ;; This function is called by:
  6694 ;;		_LCD_String_xy
  6695 ;; This function uses a non-reentrant model
  6696 ;;
  6697                           
  6698     1679                     _LCD_String:	
  6699                           ;psect for function _LCD_String
  6700                           
  6701     1679                     l2289:	
  6702                           ;incstack = 0
  6703                           ; Regs used in _LCD_String: [wreg-fsr0h+status,2+status,0+btemp+1+pclath+cstack]
  6704                           
  6705                           
  6706                           ;lcd.c: 99: void LCD_String(const char *msg);lcd.c: 100: {;lcd.c: 101:  while((*msg)!=0)
  6707     1679  2E8E               	goto	l2295
  6708     167A                     l2291:
  6709                           
  6710                           ;lcd.c: 102:  {;lcd.c: 103:    LCD_Char(*msg);
  6711     167A  0874               	movf	LCD_String@msg+1,w
  6712     167B  00FF               	movwf	btemp+1
  6713     167C  0873               	movf	LCD_String@msg,w
  6714     167D  0084               	movwf	4
  6715     167E  120A  158A  2000  160A  118A  	fcall	stringtab
  6716     1683  160A  118A  274C  160A  118A  	fcall	_LCD_Char
  6717     1688                     l2293:
  6718                           
  6719                           ;lcd.c: 104:    msg++;
  6720     1688  3001               	movlw	1
  6721     1689  07F3               	addwf	LCD_String@msg,f
  6722     168A  1803               	skipnc
  6723     168B  0AF4               	incf	LCD_String@msg+1,f
  6724     168C  3000               	movlw	0
  6725     168D  07F4               	addwf	LCD_String@msg+1,f
  6726     168E                     l2295:
  6727                           
  6728                           ;lcd.c: 101:  while((*msg)!=0)
  6729     168E  0874               	movf	LCD_String@msg+1,w
  6730     168F  1283               	bcf	3,5	;RP0=0, select bank0
  6731     1690  1303               	bcf	3,6	;RP1=0, select bank0
  6732     1691  00FF               	movwf	btemp+1
  6733     1692  0873               	movf	LCD_String@msg,w
  6734     1693  0084               	movwf	4
  6735     1694  120A  158A  2000  160A  118A  	fcall	stringtab
  6736     1699  3A00               	xorlw	0
  6737     169A  1D03               	skipz
  6738     169B  2E9D               	goto	u2991
  6739     169C  2E9E               	goto	u2990
  6740     169D                     u2991:
  6741     169D  2E7A               	goto	l2291
  6742     169E                     u2990:
  6743     169E                     l91:
  6744     169E  0008               	return
  6745     169F                     __end_of_LCD_String:
  6746                           
  6747                           	psect	text20
  6748     174C                     __ptext20:	
  6749 ;; *************** function _LCD_Char *****************
  6750 ;; Defined at:
  6751 ;;		line 84 in file "lcd.c"
  6752 ;; Parameters:    Size  Location     Type
  6753 ;;  dat             1    wreg     unsigned char 
  6754 ;; Auto vars:     Size  Location     Type
  6755 ;;  dat             1    2[COMMON] unsigned char 
  6756 ;; Return value:  Size  Location     Type
  6757 ;;                  1    wreg      void 
  6758 ;; Registers used:
  6759 ;;		wreg, status,2, status,0
  6760 ;; Tracked objects:
  6761 ;;		On entry : 0/0
  6762 ;;		On exit  : 0/0
  6763 ;;		Unchanged: 0/0
  6764 ;; Data sizes:     COMMON   BANK0   BANK1   BANK3   BANK2
  6765 ;;      Params:         0       0       0       0       0
  6766 ;;      Locals:         1       0       0       0       0
  6767 ;;      Temps:          2       0       0       0       0
  6768 ;;      Totals:         3       0       0       0       0
  6769 ;;Total ram usage:        3 bytes
  6770 ;; Hardware stack levels used: 1
  6771 ;; This function calls:
  6772 ;;		Nothing
  6773 ;; This function is called by:
  6774 ;;		_LCD_String
  6775 ;; This function uses a non-reentrant model
  6776 ;;
  6777                           
  6778     174C                     _LCD_Char:	
  6779                           ;psect for function _LCD_Char
  6780                           
  6781                           
  6782                           ;incstack = 0
  6783                           ; Regs used in _LCD_Char: [wreg+status,2+status,0]
  6784                           ;LCD_Char@dat stored from wreg
  6785     174C  00F2               	movwf	LCD_Char@dat
  6786     174D                     l2129:
  6787                           
  6788                           ;lcd.c: 84: void LCD_Char(unsigned char dat);lcd.c: 85: {;lcd.c: 86:  PORTD = (PORTD & 0
      +                          x0f) | (0xF0 & dat);
  6789     174D  30F0               	movlw	240
  6790     174E  0572               	andwf	LCD_Char@dat,w
  6791     174F  00F0               	movwf	??_LCD_Char
  6792     1750  1283               	bcf	3,5	;RP0=0, select bank0
  6793     1751  1303               	bcf	3,6	;RP1=0, select bank0
  6794     1752  0808               	movf	8,w	;volatile
  6795     1753  390F               	andlw	15
  6796     1754  0470               	iorwf	??_LCD_Char,w
  6797     1755  0088               	movwf	8	;volatile
  6798     1756                     l2131:
  6799                           
  6800                           ;lcd.c: 87:  RD0 = 1;
  6801     1756  1408               	bsf	8,0	;volatile
  6802     1757                     l2133:
  6803                           
  6804                           ;lcd.c: 88:  RD1 = 1;
  6805     1757  1488               	bsf	8,1	;volatile
  6806     1758                     l2135:
  6807                           
  6808                           ;lcd.c: 89:  __nop();
  6809     1758  0000               	nop
  6810     1759                     l2137:
  6811                           
  6812                           ;lcd.c: 90:  RD1 = 0;
  6813     1759  1283               	bcf	3,5	;RP0=0, select bank0
  6814     175A  1303               	bcf	3,6	;RP1=0, select bank0
  6815     175B  1088               	bcf	8,1	;volatile
  6816     175C                     l2139:
  6817                           
  6818                           ;lcd.c: 91:  _delay((unsigned long)((1)*(8000000/4000.0)));
  6819     175C  3003               	movlw	3
  6820     175D  00F1               	movwf	??_LCD_Char+1
  6821     175E  3097               	movlw	151
  6822     175F  00F0               	movwf	??_LCD_Char
  6823     1760                     u4827:
  6824     1760  0BF0               	decfsz	??_LCD_Char,f
  6825     1761  2F60               	goto	u4827
  6826     1762  0BF1               	decfsz	??_LCD_Char+1,f
  6827     1763  2F60               	goto	u4827
  6828     1764  2F65               	nop2
  6829     1765                     l2141:
  6830                           
  6831                           ;lcd.c: 92:     PORTD = (unsigned char)((PORTD & 0x0f) | (dat<<4));
  6832     1765  0872               	movf	LCD_Char@dat,w
  6833     1766  00F0               	movwf	??_LCD_Char
  6834     1767  3004               	movlw	4
  6835     1768                     u2705:
  6836     1768  1003               	clrc
  6837     1769  0DF0               	rlf	??_LCD_Char,f
  6838     176A  3EFF               	addlw	-1
  6839     176B  1D03               	skipz
  6840     176C  2F68               	goto	u2705
  6841     176D  1283               	bcf	3,5	;RP0=0, select bank0
  6842     176E  1303               	bcf	3,6	;RP1=0, select bank0
  6843     176F  0808               	movf	8,w	;volatile
  6844     1770  390F               	andlw	15
  6845     1771  0470               	iorwf	??_LCD_Char,w
  6846     1772  0088               	movwf	8	;volatile
  6847     1773                     l2143:
  6848                           
  6849                           ;lcd.c: 93:  RD1 = 1;
  6850     1773  1488               	bsf	8,1	;volatile
  6851     1774                     l2145:
  6852                           
  6853                           ;lcd.c: 94:  __nop();
  6854     1774  0000               	nop
  6855     1775                     l2147:
  6856                           
  6857                           ;lcd.c: 95:  RD1 = 0;
  6858     1775  1283               	bcf	3,5	;RP0=0, select bank0
  6859     1776  1303               	bcf	3,6	;RP1=0, select bank0
  6860     1777  1088               	bcf	8,1	;volatile
  6861                           
  6862                           ;lcd.c: 96:  _delay((unsigned long)((3)*(8000000/4000.0)));
  6863     1778  3008               	movlw	8
  6864     1779  00F1               	movwf	??_LCD_Char+1
  6865     177A  30C9               	movlw	201
  6866     177B  00F0               	movwf	??_LCD_Char
  6867     177C                     u4837:
  6868     177C  0BF0               	decfsz	??_LCD_Char,f
  6869     177D  2F7C               	goto	u4837
  6870     177E  0BF1               	decfsz	??_LCD_Char+1,f
  6871     177F  2F7C               	goto	u4837
  6872     1780  2F81               	nop2
  6873     1781                     l85:
  6874     1781  0008               	return
  6875     1782                     __end_of_LCD_Char:
  6876                           
  6877                           	psect	text21
  6878     16EC                     __ptext21:	
  6879 ;; *************** function _LCD_Init *****************
  6880 ;; Defined at:
  6881 ;;		line 31 in file "lcd.c"
  6882 ;; Parameters:    Size  Location     Type
  6883 ;;		None
  6884 ;; Auto vars:     Size  Location     Type
  6885 ;;		None
  6886 ;; Return value:  Size  Location     Type
  6887 ;;                  1    wreg      void 
  6888 ;; Registers used:
  6889 ;;		wreg, status,2, status,0, pclath, cstack
  6890 ;; Tracked objects:
  6891 ;;		On entry : 0/0
  6892 ;;		On exit  : 0/0
  6893 ;;		Unchanged: 0/0
  6894 ;; Data sizes:     COMMON   BANK0   BANK1   BANK3   BANK2
  6895 ;;      Params:         0       0       0       0       0
  6896 ;;      Locals:         0       0       0       0       0
  6897 ;;      Temps:          2       0       0       0       0
  6898 ;;      Totals:         2       0       0       0       0
  6899 ;;Total ram usage:        2 bytes
  6900 ;; Hardware stack levels used: 1
  6901 ;; Hardware stack levels required when called: 1
  6902 ;; This function calls:
  6903 ;;		_LCD_Command
  6904 ;; This function is called by:
  6905 ;;		_main
  6906 ;; This function uses a non-reentrant model
  6907 ;;
  6908                           
  6909     16EC                     _LCD_Init:	
  6910                           ;psect for function _LCD_Init
  6911                           
  6912     16EC                     l2533:	
  6913                           ;incstack = 0
  6914                           ; Regs used in _LCD_Init: [wreg+status,2+status,0+pclath+cstack]
  6915                           
  6916                           
  6917                           ;lcd.c: 33:     TRISD = 0;
  6918     16EC  1683               	bsf	3,5	;RP0=1, select bank1
  6919     16ED  1303               	bcf	3,6	;RP1=0, select bank1
  6920     16EE  0188               	clrf	8	;volatile
  6921     16EF                     l2535:
  6922                           
  6923                           ;lcd.c: 34:     _delay((unsigned long)((15)*(8000000/4000.0)));
  6924     16EF  3027               	movlw	39
  6925     16F0  00F4               	movwf	??_LCD_Init+1
  6926     16F1  30F5               	movlw	245
  6927     16F2  00F3               	movwf	??_LCD_Init
  6928     16F3                     u4847:
  6929     16F3  0BF3               	decfsz	??_LCD_Init,f
  6930     16F4  2EF3               	goto	u4847
  6931     16F5  0BF4               	decfsz	??_LCD_Init+1,f
  6932     16F6  2EF3               	goto	u4847
  6933     16F7                     l2537:
  6934                           
  6935                           ;lcd.c: 35:     LCD_Command(0x02);
  6936     16F7  3002               	movlw	2
  6937     16F8  160A  118A  2716  160A  118A  	fcall	_LCD_Command
  6938     16FD                     l2539:
  6939                           
  6940                           ;lcd.c: 36:     LCD_Command(0x28);
  6941     16FD  3028               	movlw	40
  6942     16FE  160A  118A  2716  160A  118A  	fcall	_LCD_Command
  6943     1703                     l2541:
  6944                           
  6945                           ;lcd.c: 37:     LCD_Command(0x01);
  6946     1703  3001               	movlw	1
  6947     1704  160A  118A  2716  160A  118A  	fcall	_LCD_Command
  6948     1709                     l2543:
  6949                           
  6950                           ;lcd.c: 38:     LCD_Command(0x0c);
  6951     1709  300C               	movlw	12
  6952     170A  160A  118A  2716  160A  118A  	fcall	_LCD_Command
  6953     170F                     l2545:
  6954                           
  6955                           ;lcd.c: 39:     LCD_Command(0x06);
  6956     170F  3006               	movlw	6
  6957     1710  160A  118A  2716  160A  118A  	fcall	_LCD_Command
  6958     1715                     l79:
  6959     1715  0008               	return
  6960     1716                     __end_of_LCD_Init:
  6961                           
  6962                           	psect	text22
  6963     0869                     __ptext22:	
  6964 ;; *************** function _LCD_Clear *****************
  6965 ;; Defined at:
  6966 ;;		line 140 in file "lcd.c"
  6967 ;; Parameters:    Size  Location     Type
  6968 ;;		None
  6969 ;; Auto vars:     Size  Location     Type
  6970 ;;		None
  6971 ;; Return value:  Size  Location     Type
  6972 ;;                  1    wreg      void 
  6973 ;; Registers used:
  6974 ;;		wreg, status,2, status,0, pclath, cstack
  6975 ;; Tracked objects:
  6976 ;;		On entry : 0/0
  6977 ;;		On exit  : 0/0
  6978 ;;		Unchanged: 0/0
  6979 ;; Data sizes:     COMMON   BANK0   BANK1   BANK3   BANK2
  6980 ;;      Params:         0       0       0       0       0
  6981 ;;      Locals:         0       0       0       0       0
  6982 ;;      Temps:          2       0       0       0       0
  6983 ;;      Totals:         2       0       0       0       0
  6984 ;;Total ram usage:        2 bytes
  6985 ;; Hardware stack levels used: 1
  6986 ;; Hardware stack levels required when called: 1
  6987 ;; This function calls:
  6988 ;;		_LCD_Command
  6989 ;; This function is called by:
  6990 ;;		_main
  6991 ;; This function uses a non-reentrant model
  6992 ;;
  6993                           
  6994     0869                     _LCD_Clear:	
  6995                           ;psect for function _LCD_Clear
  6996                           
  6997     0869                     l2663:	
  6998                           ;incstack = 0
  6999                           ; Regs used in _LCD_Clear: [wreg+status,2+status,0+pclath+cstack]
  7000                           
  7001                           
  7002                           ;lcd.c: 142:     LCD_Command(0x01);
  7003     0869  3001               	movlw	1
  7004     086A  160A  118A  2716  120A  158A  	fcall	_LCD_Command
  7005     086F                     l2665:
  7006                           
  7007                           ;lcd.c: 143:     _delay((unsigned long)((3)*(8000000/4000.0)));
  7008     086F  3008               	movlw	8
  7009     0870  00F4               	movwf	??_LCD_Clear+1
  7010     0871  30C9               	movlw	201
  7011     0872  00F3               	movwf	??_LCD_Clear
  7012     0873                     u4857:
  7013     0873  0BF3               	decfsz	??_LCD_Clear,f
  7014     0874  2873               	goto	u4857
  7015     0875  0BF4               	decfsz	??_LCD_Clear+1,f
  7016     0876  2873               	goto	u4857
  7017     0877  2878               	nop2
  7018     0878                     l99:
  7019     0878  0008               	return
  7020     0879                     __end_of_LCD_Clear:
  7021                           
  7022                           	psect	text23
  7023     1716                     __ptext23:	
  7024 ;; *************** function _LCD_Command *****************
  7025 ;; Defined at:
  7026 ;;		line 55 in file "lcd.c"
  7027 ;; Parameters:    Size  Location     Type
  7028 ;;  cmd             1    wreg     unsigned char 
  7029 ;; Auto vars:     Size  Location     Type
  7030 ;;  cmd             1    2[COMMON] unsigned char 
  7031 ;; Return value:  Size  Location     Type
  7032 ;;                  1    wreg      void 
  7033 ;; Registers used:
  7034 ;;		wreg, status,2, status,0
  7035 ;; Tracked objects:
  7036 ;;		On entry : 0/0
  7037 ;;		On exit  : 0/0
  7038 ;;		Unchanged: 0/0
  7039 ;; Data sizes:     COMMON   BANK0   BANK1   BANK3   BANK2
  7040 ;;      Params:         0       0       0       0       0
  7041 ;;      Locals:         1       0       0       0       0
  7042 ;;      Temps:          2       0       0       0       0
  7043 ;;      Totals:         3       0       0       0       0
  7044 ;;Total ram usage:        3 bytes
  7045 ;; Hardware stack levels used: 1
  7046 ;; This function calls:
  7047 ;;		Nothing
  7048 ;; This function is called by:
  7049 ;;		_LCD_Init
  7050 ;;		_LCD_String_xy
  7051 ;;		_LCD_Clear
  7052 ;; This function uses a non-reentrant model
  7053 ;;
  7054                           
  7055     1716                     _LCD_Command:	
  7056                           ;psect for function _LCD_Command
  7057                           
  7058                           
  7059                           ;incstack = 0
  7060                           ; Regs used in _LCD_Command: [wreg+status,2+status,0]
  7061                           ;LCD_Command@cmd stored from wreg
  7062     1716  00F2               	movwf	LCD_Command@cmd
  7063     1717                     l2269:
  7064                           
  7065                           ;lcd.c: 55: void LCD_Command(unsigned char cmd );lcd.c: 56: {;lcd.c: 57:  PORTD = (PORTD
      +                           & 0x0f) |(0xF0 & cmd);
  7066     1717  30F0               	movlw	240
  7067     1718  0572               	andwf	LCD_Command@cmd,w
  7068     1719  00F0               	movwf	??_LCD_Command
  7069     171A  1283               	bcf	3,5	;RP0=0, select bank0
  7070     171B  1303               	bcf	3,6	;RP1=0, select bank0
  7071     171C  0808               	movf	8,w	;volatile
  7072     171D  390F               	andlw	15
  7073     171E  0470               	iorwf	??_LCD_Command,w
  7074     171F  0088               	movwf	8	;volatile
  7075     1720                     l2271:
  7076                           
  7077                           ;lcd.c: 58:  RD0 = 0;
  7078     1720  1008               	bcf	8,0	;volatile
  7079     1721                     l2273:
  7080                           
  7081                           ;lcd.c: 59:  RD1 = 1;
  7082     1721  1488               	bsf	8,1	;volatile
  7083     1722                     l2275:
  7084                           
  7085                           ;lcd.c: 60:  __nop();
  7086     1722  0000               	nop
  7087     1723                     l2277:
  7088                           
  7089                           ;lcd.c: 61:  RD1 = 0;
  7090     1723  1283               	bcf	3,5	;RP0=0, select bank0
  7091     1724  1303               	bcf	3,6	;RP1=0, select bank0
  7092     1725  1088               	bcf	8,1	;volatile
  7093     1726                     l2279:
  7094                           
  7095                           ;lcd.c: 62:  _delay((unsigned long)((1)*(8000000/4000.0)));
  7096     1726  3003               	movlw	3
  7097     1727  00F1               	movwf	??_LCD_Command+1
  7098     1728  3097               	movlw	151
  7099     1729  00F0               	movwf	??_LCD_Command
  7100     172A                     u4867:
  7101     172A  0BF0               	decfsz	??_LCD_Command,f
  7102     172B  2F2A               	goto	u4867
  7103     172C  0BF1               	decfsz	??_LCD_Command+1,f
  7104     172D  2F2A               	goto	u4867
  7105     172E  2F2F               	nop2
  7106     172F                     l2281:
  7107                           
  7108                           ;lcd.c: 63:     PORTD = (unsigned char)((PORTD & 0x0f) | (cmd<<4));
  7109     172F  0872               	movf	LCD_Command@cmd,w
  7110     1730  00F0               	movwf	??_LCD_Command
  7111     1731  3004               	movlw	4
  7112     1732                     u2985:
  7113     1732  1003               	clrc
  7114     1733  0DF0               	rlf	??_LCD_Command,f
  7115     1734  3EFF               	addlw	-1
  7116     1735  1D03               	skipz
  7117     1736  2F32               	goto	u2985
  7118     1737  1283               	bcf	3,5	;RP0=0, select bank0
  7119     1738  1303               	bcf	3,6	;RP1=0, select bank0
  7120     1739  0808               	movf	8,w	;volatile
  7121     173A  390F               	andlw	15
  7122     173B  0470               	iorwf	??_LCD_Command,w
  7123     173C  0088               	movwf	8	;volatile
  7124     173D                     l2283:
  7125                           
  7126                           ;lcd.c: 64:  RD1 = 1;
  7127     173D  1488               	bsf	8,1	;volatile
  7128     173E                     l2285:
  7129                           
  7130                           ;lcd.c: 65:  __nop();
  7131     173E  0000               	nop
  7132     173F                     l2287:
  7133                           
  7134                           ;lcd.c: 66:  RD1 = 0;
  7135     173F  1283               	bcf	3,5	;RP0=0, select bank0
  7136     1740  1303               	bcf	3,6	;RP1=0, select bank0
  7137     1741  1088               	bcf	8,1	;volatile
  7138                           
  7139                           ;lcd.c: 67:  _delay((unsigned long)((3)*(8000000/4000.0)));
  7140     1742  3008               	movlw	8
  7141     1743  00F1               	movwf	??_LCD_Command+1
  7142     1744  30C9               	movlw	201
  7143     1745  00F0               	movwf	??_LCD_Command
  7144     1746                     u4877:
  7145     1746  0BF0               	decfsz	??_LCD_Command,f
  7146     1747  2F46               	goto	u4877
  7147     1748  0BF1               	decfsz	??_LCD_Command+1,f
  7148     1749  2F46               	goto	u4877
  7149     174A  2F4B               	nop2
  7150     174B                     l82:
  7151     174B  0008               	return
  7152     174C                     __end_of_LCD_Command:
  7153     007E                     btemp	set	126	;btemp
  7154     007E                     wtemp0	set	126
  7155                           
  7156                           	psect	config
  7157                           
  7158                           ;Config register CONFIG1 @ 0x2007
  7159                           ;	Oscillator Selection bits
  7160                           ;	FOSC = INTRC_CLKOUT, INTOSC oscillator: CLKOUT function on RA6/OSC2/CLKOUT pin, I/O fu
      +                          nction on RA7/OSC1/CLKIN
  7161                           ;	Watchdog Timer Enable bit
  7162                           ;	WDTE = OFF, WDT disabled and can be enabled by SWDTEN bit of the WDTCON register
  7163                           ;	Power-up Timer Enable bit
  7164                           ;	PWRTE = OFF, PWRT disabled
  7165                           ;	RE3/MCLR pin function select bit
  7166                           ;	MCLRE = OFF, RE3/MCLR pin function is digital input, MCLR internally tied to VDD
  7167                           ;	Code Protection bit
  7168                           ;	CP = OFF, Program memory code protection is disabled
  7169                           ;	Data Code Protection bit
  7170                           ;	CPD = OFF, Data memory code protection is disabled
  7171                           ;	Brown Out Reset Selection bits
  7172                           ;	BOREN = OFF, BOR disabled
  7173                           ;	Internal External Switchover bit
  7174                           ;	IESO = OFF, Internal/External Switchover mode is disabled
  7175                           ;	Fail-Safe Clock Monitor Enabled bit
  7176                           ;	FCMEN = OFF, Fail-Safe Clock Monitor is disabled
  7177                           ;	Low Voltage Programming Enable bit
  7178                           ;	LVP = OFF, RB3 pin has digital I/O, HV on MCLR must be used for programming
  7179                           ;	In-Circuit Debugger Mode bit
  7180                           ;	DEBUG = 0x1, unprogrammed default
  7181     2007                     	org	8199
  7182     2007  20D5               	dw	8405
  7183                           
  7184                           ;Config register CONFIG2 @ 0x2008
  7185                           ;	Brown-out Reset Selection bit
  7186                           ;	BOR4V = BOR40V, Brown-out Reset set to 4.0V
  7187                           ;	Flash Program Memory Self Write Enable bits
  7188                           ;	WRT = OFF, Write protection off
  7189     2008                     	org	8200
  7190     2008  3FFF               	dw	16383

Data Sizes:
    Strings     32
    Constant    46
    Data        0
    BSS         25
    Persistent  0
    Stack       0

Auto Spaces:
    Space          Size  Autos    Used
    COMMON           14     14      14
    BANK0            80     79      79
    BANK1            80     53      78
    BANK3            96      0       0
    BANK2            96      0       0

Pointer List with Targets:

    frexp@eptr	PTR int  size(1) Largest target is 2
		 -> log@exponent(BANK0[2]), 

    eval_poly@d	PTR const  size(1) Largest target is 36
		 -> log@coeff(CODE[36]), 

    sprintf@f	PTR const unsigned char  size(1) Largest target is 10
		 -> STR_3(CODE[5]), STR_2(CODE[10]), 

    sprintf@sp	PTR unsigned char  size(1) Largest target is 17
		 -> buffer(BANK1[17]), 

    sprintf@ap	PTR void [1] size(1) Largest target is 2
		 -> ?_sprintf(BANK0[2]), 

    LCD_String_xy@msg	PTR const unsigned char  size(2) Largest target is 17
		 -> buffer(BANK1[17]), STR_1(CODE[17]), 

    LCD_String@msg	PTR const unsigned char  size(2) Largest target is 17
		 -> buffer(BANK1[17]), STR_1(CODE[17]), 


Critical Paths under _main in COMMON

    _sprintf->___lwmod
    ___lwmod->___lwdiv
    _convertir_temperature->___xxtofl
    _log->___xxtofl
    _log->_frexp
    _frexp->___fleq
    ___flmul->___xxtofl
    ___flmul->_frexp
    ___fladd->___xxtofl
    ___fladd->_frexp
    ___fldiv->___xxtofl
    ___fldiv->_frexp
    _LCD_String_xy->_LCD_String
    _LCD_String->_LCD_Char
    _LCD_Init->_LCD_Command
    _LCD_Clear->_LCD_Command

Critical Paths under _main in BANK0

    _convertir_temperature->_log
    _log->___fladd
    _eval_poly->___fladd
    ___flmul->_frexp
    ___fladd->___fldiv
    ___fldiv->___flmul

Critical Paths under _main in BANK1

    _main->_convertir_temperature
    _convertir_temperature->_log
    _log->_eval_poly

Critical Paths under _main in BANK3

    None.

Critical Paths under _main in BANK2

    None.

Call Graph Tables:

 ---------------------------------------------------------------------------------
 (Depth) Function   	        Calls       Base Space   Used Autos Params    Refs
 ---------------------------------------------------------------------------------
 (0) _main                                                13    13      0   30125
                                             44 BANK1      9     9      0
                          _LCD_Clear
                           _LCD_Init
                      _LCD_String_xy
                          _adc_begin
                     _adc_conversion
              _convertir_temperature
                            _sprintf
 ---------------------------------------------------------------------------------
 (1) _sprintf                                             25    20      5    1346
                                              0 BANK0     17    12      5
                            ___lwdiv
                            ___lwmod
 ---------------------------------------------------------------------------------
 (2) ___lwmod                                              5     1      4     311
                                              7 COMMON     5     1      4
                            ___lwdiv (ARG)
 ---------------------------------------------------------------------------------
 (2) ___lwdiv                                              7     3      4     314
                                              0 COMMON     7     3      4
 ---------------------------------------------------------------------------------
 (1) _convertir_temperature                               28    26      2   27533
                                             20 BANK1     24    22      2
                            ___fladd
                            ___fldiv
                            ___fltol
                           ___xxtofl
                                _log
 ---------------------------------------------------------------------------------
 (2) _log                                                  6     2      4   20328
                                             77 BANK0      2     2      0
                                             16 BANK1      4     0      4
                            ___fladd
                            ___fldiv (ARG)
                             ___fleq
                             ___flge
                            ___flmul
                           ___xxtofl
                          _eval_poly
                              _frexp
 ---------------------------------------------------------------------------------
 (3) _frexp                                                7     2      5    1132
                                             12 COMMON     2     2      0
                                              0 BANK0      5     0      5
                             ___fleq
 ---------------------------------------------------------------------------------
 (4) ___fleq                                              12     4      8     630
                                              0 COMMON    12     4      8
 ---------------------------------------------------------------------------------
 (3) _eval_poly                                           16     9      7    8719
                                              0 BANK1     16     9      7
                            ___fladd
                            ___fldiv (ARG)
                            ___flmul
 ---------------------------------------------------------------------------------
 (4) ___flmul                                             26    18      8    3853
                                              5 BANK0     26    18      8
                          __Umul8_16
                           ___xxtofl (ARG)
                              _frexp (ARG)
 ---------------------------------------------------------------------------------
 (5) __Umul8_16                                            9     7      2     980
                                              0 COMMON     9     7      2
 ---------------------------------------------------------------------------------
 (4) ___fladd                                             20    12      8    4342
                                             57 BANK0     20    12      8
                            ___fldiv (ARG)
                            ___flmul (ARG)
                           ___xxtofl (ARG)
                              _frexp (ARG)
 ---------------------------------------------------------------------------------
 (3) ___xxtofl                                            14    10      4     656
                                              0 COMMON    14    10      4
 ---------------------------------------------------------------------------------
 (3) ___flge                                              12     4      8     586
                                              0 COMMON    12     4      8
 ---------------------------------------------------------------------------------
 (2) ___fltol                                             10     6      4     305
                                              0 COMMON    10     6      4
 ---------------------------------------------------------------------------------
 (2) ___fldiv                                             26    18      8    1577
                                             31 BANK0     26    18      8
                          __Umul8_16 (ARG)
                             ___fleq (ARG)
                             ___flge (ARG)
                            ___flmul (ARG)
                           ___xxtofl (ARG)
                              _frexp (ARG)
 ---------------------------------------------------------------------------------
 (1) _adc_conversion                                       3     1      2     250
                                              0 COMMON     3     1      2
 ---------------------------------------------------------------------------------
 (1) _adc_begin                                            0     0      0       0
 ---------------------------------------------------------------------------------
 (1) _LCD_String_xy                                        5     2      3     800
                                              5 COMMON     5     2      3
                        _LCD_Command
                         _LCD_String
 ---------------------------------------------------------------------------------
 (2) _LCD_String                                           2     0      2     165
                                              3 COMMON     2     0      2
                           _LCD_Char
 ---------------------------------------------------------------------------------
 (3) _LCD_Char                                             3     3      0      44
                                              0 COMMON     3     3      0
 ---------------------------------------------------------------------------------
 (1) _LCD_Init                                             2     2      0      44
                                              3 COMMON     2     2      0
                        _LCD_Command
 ---------------------------------------------------------------------------------
 (1) _LCD_Clear                                            2     2      0      44
                                              3 COMMON     2     2      0
                        _LCD_Command
 ---------------------------------------------------------------------------------
 (2) _LCD_Command                                          3     3      0      44
                                              0 COMMON     3     3      0
 ---------------------------------------------------------------------------------
 Estimated maximum stack depth 5
 ---------------------------------------------------------------------------------

 Call Graph Graphs:

 _main (ROOT)
   _LCD_Clear
     _LCD_Command
   _LCD_Init
     _LCD_Command
   _LCD_String_xy
     _LCD_Command
     _LCD_String
       _LCD_Char
   _adc_begin
   _adc_conversion
   _convertir_temperature
     ___fladd
       ___fldiv (ARG)
         __Umul8_16 (ARG)
         ___fleq (ARG)
         ___flge (ARG)
         ___flmul (ARG)
           __Umul8_16
           ___xxtofl (ARG)
           _frexp (ARG)
             ___fleq
         ___xxtofl (ARG)
         _frexp (ARG)
       ___flmul (ARG)
       ___xxtofl (ARG)
       _frexp (ARG)
     ___fldiv
     ___fltol
     ___xxtofl
     _log
       ___fladd
       ___fldiv (ARG)
       ___fleq (ARG)
       ___flge (ARG)
       ___flmul (ARG)
       ___xxtofl (ARG)
       _eval_poly (ARG)
         ___fladd
         ___fldiv (ARG)
         ___flmul (ARG)
       _frexp (ARG)
   _sprintf
     ___lwdiv
     ___lwmod
       ___lwdiv (ARG)

 Address spaces:
Name               Size   Autos  Total    Cost      Usage
BITCOMMON            E      0       0       0        0.0%
EEDATA             100      0       0       0        0.0%
NULL                 0      0       0       0        0.0%
CODE                 0      0       0       0        0.0%
COMMON               E      E       E       1      100.0%
BITSFR0              0      0       0       1        0.0%
SFR0                 0      0       0       1        0.0%
BITSFR1              0      0       0       2        0.0%
SFR1                 0      0       0       2        0.0%
STACK                0      0       0       2        0.0%
ABS                  0      0      AB       3        0.0%
BITBANK0            50      0       0       4        0.0%
BITSFR3              0      0       0       4        0.0%
SFR3                 0      0       0       4        0.0%
BANK0               50     4F      4F       5       98.8%
BITSFR2              0      0       0       5        0.0%
SFR2                 0      0       0       5        0.0%
BITBANK1            50      0       0       6        0.0%
BANK1               50     35      4E       7       97.5%
BITBANK3            60      0       0       8        0.0%
BANK3               60      0       0       9        0.0%
BITBANK2            60      0       0      10        0.0%
BANK2               60      0       0      11        0.0%
DATA                 0      0      AB      12        0.0%


Microchip Technology PIC Macro Assembler V2.41 build 20230208172133 
Symbol Table                                                                                   Fri Nov 03 15:30:58 2023

   __end_of_convertir_temperature 1000                      ___fldiv@aexp 0058                      ___fldiv@bexp 0057  
                               pc 0002                      ___fldiv@sign 0050                      ?_LCD_Command 0070  
                              l53 0010                                l62 0FFF                                l56 166D  
                              l82 174B                                l58 1671                                l91 169E  
                              l59 1678                                l85 1781                                l79 1715  
                              l96 16C4                                l99 0878                                fsr 0004  
                     ?_LCD_String 0073               __Umul8_16@word_mpld 0076                               l209 0D2E  
                             l406 0071                               l510 0334                               l512 030D  
                             l409 0086                               l506 02B1                               l602 07F2  
                             l531 0421                               l621 16D9                               l390 09AB  
                             l382 0895                               l391 09C4                               l527 03FD  
                             l519 04AD                               l623 16EB                               l383 08B1  
                             l608 0762                               l384 08C6                               l537 0443  
                             l562 00DD                               l387 093F                               l564 0255  
                             l660 0A52                               l549 04AD                               l485 17FF  
                             l646 09E7                               l399 0086                               l495 17BB  
                             l584 0241                               l648 0A7C                               l673 0E74  
                             l578 01CF                               l659 0A46                               l691 0922  
                             l685 0B56                               _RD0 0040                               _RD1 0041  
                             _log 0D2F                               fsr0 0004                               indf 0000  
                    ___flmul@aexp 0033                      ___flmul@bexp 0038                      ___flmul@sign 0032  
                    ___flmul@temp 003D                      ___flmul@prod 0039                       LCD_Char@dat 0072  
                    ___fltol@exp1 0079                              l3001 050C                              l2131 1756  
                            l3011 054B                              l2141 1765                              l2133 1757  
                            l3021 05D2                              l3013 0567                              l3005 0515  
                            l2143 1773                              l2135 1758                              l2311 0041  
                            l2303 0023                              l3111 095F                              l3103 0923  
                            l3031 063F                              l3023 05E0                              l3015 0591  
                            l3007 0523                              l2145 1774                              l2137 1759  
                            l2129 174D                              l2401 00AA                              l2321 0056  
                            l2313 0045                              l2305 0036                              l3113 0983  
                            l3105 0937                              l3041 06E6                              l3033 065C  
                            l3025 05FD                              l3017 05AD                              l3009 0530  
                            l3201 0D2F                              l2147 1775                              l2139 175C  
                            l2411 00C0                              l2403 00B2                              l2331 0076  
                            l2323 005F                              l2307 0037                              l3115 0987  
                            l3107 0953                              l3131 09EF                              l3123 09C6  
                            l3051 0732                              l3043 070E                              l3035 0687  
                            l3027 060B                              l3019 05C9                              l3203 0D4A  
                            l2501 0204                              l2413 00C5                              l2421 00D5  
                            l2405 00B7                              l2333 007B                              l2309 003F  
                            l3117 09C1                              l3109 095B                              l3141 0A08  
                            l3125 09CB                              l3061 0747                              l3053 0733  
                            l3045 0717                              l3037 0695                              l3029 0628  
                            l3213 0D83                              l2341 17C7                              l2271 1720  
                            l2511 0238                              l2503 020A                              l2423 00E5  
                            l2431 00FE                              l2415 00CA                              l2407 00BB  
                            l2319 004D                              l3119 09C3                              l3151 0A31  
                            l3143 0A0F                              l3135 09F8                              l3127 09CF  
                            l3071 076C                              l3063 074B                              l3055 073C  
                            l3047 0725                              l3039 06C0                              l3215 0DEA  
                            l3207 0D59                              l3231 0F84                              l3223 0E75  
                            l2351 17ED                              l2343 17CE                              l2335 17BC  
                            l2281 172F                              l2273 1721                              l2521 024F  
                            l2513 0240                              l2505 0217                              l2441 0126  
                            l2433 0103                              l2425 00F1                              l2417 00D2  
                            l2409 00BF                              l2329 0066                              l3161 0A6A  
                            l3153 0A3C                              l3145 0A13                              l3137 09FB  
                            l3129 09DF                              l3081 07AA                              l3073 077A  
                            l3065 075F                              l3049 072E                              l3057 0742  
                            l3217 0DF2                              l3209 0D74                              l3233 0FC3  
                            l3225 0E88                              l2353 17EE                              l2345 17D2  
                            l2337 17BE                              l2361 1782                              l2601 0C5B  
                            l3241 0B5B                              l2283 173D                              l2275 1722  
                            l2291 167A                              l2531 000A                              l2515 0245  
                            l2507 0225                              l2451 014F                              l2443 012E  
                            l2427 00F5                              l2419 00D3                              l3163 0A6F  
                            l3155 0A40                              l3147 0A21                              l3139 09FF  
                            l3091 07DC                              l3083 07B5                              l3075 077E  
                            l3059 0746                              l3171 08C7                              l3219 0E11  
                            l3235 0FEA                              l3227 0EE0                              l2355 17F5  
                            l2347 17D6                              l2339 17C4                              l2371 179A  
                            l2363 1788                              l2611 0C85                              l3251 0B6C  
                            l3243 0B5C                              l2285 173E                              l2277 1723  
                            l2269 1717                              l2541 1703                              l2533 16EC  
                            l2293 1688                              l2517 0249                              l2509 0234  
                            l2461 0170                              l2453 0153                              l2445 0136  
                            l2437 010C                              l3165 0A73                              l3157 0A4A  
                            l3149 0A2A                              l3093 07E0                              l3085 07C4  
                            l3077 0797                              l3069 0767                              l3181 0910  
                            l3173 08E2                              l3229 0F2E                              l2349 17E7  
                            l2357 17FB                              l2373 17A4                              l2365 178B  
                            l2613 0C89                              l2605 0C5C                              l3261 0BAE  
                            l3253 0B77                              l3245 0B5E                              l2287 173F  
                            l2279 1726                              l2543 1709                              l2535 16EF  
                            l2295 168E                              l2551 16A6                              l2519 024B  
                            l2471 0192                              l2463 017E                              l2455 0154  
                            l2447 0138                              l2439 011E                              l2391 0095  
                            l2383 0087                              l3167 0A74                              l3159 0A54  
                            l3095 07E1                              l3087 07CE                              l3079 079D  
                            l3191 0A7D                              l3183 091D                              l3175 08EA  
                            l2375 17AA                              l2367 1792                              l2631 0CBA  
                            l2623 0C94                              l2615 0C8D                              l2607 0C79  
                            l3271 0C04                              l3263 0BBD                              l3255 0B86  
                            l3247 0B62                              l3239 0B57                              l2545 170F  
                            l2537 16F7                              l2289 1679                              l2553 16AA  
                            l2529 0005                              l2561 1658                              l2473 019B  
                            l2481 01AF                              l2449 013D                              l2457 015D  
                            l2465 0182                              l2393 009A                              l2385 008C  
                            l2297 0011                              l2801 02A7                              l3089 07D0  
                            l3097 07E6                              l3193 0AAC                              l3185 0921  
                            l2377 17B1                              l2369 1796                              l2641 0CD2  
                            l2633 0CC0                              l2617 0C92                              l2609 0C81  
                            l3273 0C1A                              l3265 0BC8                              l3257 0B94  
                            l3249 0B67                              l2539 16FD                              l2555 16B1  
                            l2547 16A0                              l2563 1664                              l2483 01B3  
                            l2475 019F                              l2467 0188                              l2459 016F  
                            l2395 009F                              l2387 0090                              l2299 001A  
                            l2811 02C1                              l2803 02A9                              l3099 07EA  
                            l3195 0B48                              l3187 0922                              l3179 08F3  
                            l2379 17B7                              l2643 0CFE                              l2635 0CC5  
                            l2627 0CB0                              l2651 0D16                              l3275 0C25  
                            l3267 0BD7                              l3259 0B9F                              l2557 16B5  
                            l2549 16A0                              l2565 1665                              l2493 01D4  
                            l2485 01B4                              l2477 01A0                              l2469 0190  
                            l2397 00A7                              l2389 0094                              l2821 02CB  
                            l2813 02C3                              l2805 02B7                              l2741 16D3  
                            l3197 0B4E                              l2645 0D03                              l2637 0CC9  
                            l2629 0CB4                              l2653 0D26                              l3277 0C34  
                            l3269 0BF9                              l2663 0869                              l2559 16BB  
                            l2567 166A                              l2495 01D9                              l2487 01B8  
                            l2479 01A9                              l2399 00A8                              l2911 0428  
                            l2903 0413                              l2831 02D5                              l2823 02CD  
                            l2815 02C5                              l2807 02BB                              l2743 16E2  
                            l2735 16C6                              l2751 088D                              l2655 0D2A  
                            l2647 0D07                              l2639 0CCF                              l2591 0C42  
                            l2665 086F                              l2569 1672                              l2497 01E7  
                            l2489 01CC                              l2921 0436                              l2913 042A  
                            l2905 041C                              l2841 02DE                              l2833 02D7  
                            l2825 02CF                              l2817 02C7                              l2809 02BF  
                            l2761 0256                              l2745 16E7                              l2737 16C8  
                            l2753 08A9                              l2649 0D0D                              l2593 0C45  
                            l2499 01EB                              l2931 044D                              l2923 043A  
                            l2915 042F                              l2907 0420                              l2851 031E  
                            l2843 02F5                              l2835 02D9                              l2827 02D1  
                            l2819 02C9                              l2771 0269                              l2763 025B  
                            l2739 16CF                              l2755 08C3                              l3299 0C6E  
                            l2595 0C4B                              l2941 0486                              l2933 045B  
                            l2925 0440                              l2909 0425                              l2917 0431  
                            l2861 033D                              l2853 031F                              l2845 0311  
                            l2837 02DB                              l2829 02D3                              l2781 0281  
                            l2773 026E                              l2765 025F                              l2757 08C5  
                            l2749 0879                              l2597 0C50                              l2589 0C40  
                            l2951 049D                              l2943 048B                              l2935 045F  
                            l2871 0365                              l2919 0435                              l2855 0328  
                            l2847 0318                              l2839 02DD                              l2791 0293  
                            l2783 0284                              l2775 0276                              l2767 0263  
                            l2599 0C54                              l2953 049F                              l2945 0493  
                            l2937 047D                              l2929 0448                              l2881 037C  
                            l2873 036C                              l2865 0346                              l2849 031A  
                            l2857 032C                              l2793 0294                              l2785 028A  
                            l2777 0277                              l2769 0264                              l2961 04AE  
                            l2955 04A3                              l2947 0498                              l2939 0481  
                            l2891 03DB                              l2875 036E                              l2867 035D  
                            l2859 0338                              l2883 0381                              l2795 0299  
                            l2787 028B                              l2779 0279                              l2971 04C1  
                            l2963 04B3                              l2957 04A8                              l2949 0499  
                            l2893 03E0                              l2885 0397                              l2877 0372  
                            l2869 0361                              l2797 029E                              l2789 028F  
                            l2981 04DD                              l2973 04C6                              l2965 04B7  
                            l2959 04AC                              l2887 03D5                              l2895 03EF  
                            l2879 0373                              l2799 02A6                              l2991 04F0  
                            l2983 04E1                              l2975 04CE                              l2967 04BB  
                            l2897 0405                              l2889 03D9                              l2993 04F8  
                            l2985 04E5                              l2977 04D0                              l2969 04BC  
                            l2899 040A                              l2995 04FA                              l2987 04E6  
                            l2979 04D8                              l2997 0502                              l2989 04EB  
                            ?_log 00B0                              l2999 0507                              STR_1 083E  
                            STR_2 084F                              STR_3 0859                              u3000 001A  
                            u3001 0019                              u3010 0031                              u3020 0045  
                            u3100 17C4                              u3021 0044                              u3101 17C3  
                            u3030 004C                              u3031 004B                              u3015 002C  
                            u4000 0435                              u3120 17D6                              u3200 17A4  
                            u4001 0434                              u3121 17D5                              u3201 17A3  
                            u3050 005E                              u4010 043A                              u3051 005D  
                            u4011 0439                              u3115 17C8                              u3300 0103  
                            u3060 0065                              u4100 0498                              u4020 0440  
                            u3140 17E7                              u3220 17B7                              u3301 0102  
                            u3061 0064                              u3045 004E                              u4101 0497  
                            u4021 043F                              u3141 17E6                              u3221 17B6  
                            u3205 17A0                              u3310 013D                              u3230 0094  
                            u4110 049D                              u4030 0447                              u3311 013C  
                            u3231 0093                              u4111 049C                              u4031 0446  
                            u3135 17D7                              u3215 17AB                              u3400 019F  
                            u3240 009A                              u3080 0076                              u4120 04AC  
                            u4040 044D                              u4200 050C                              u3160 17FB  
                            u3401 019E                              u3241 0099                              u3081 0075  
                            u4121 04AB                              u4041 044C                              u4201 050B  
                            u3161 17FA                              u3145 17E3                              u3250 009F  
                            u3090 007B                              u4050 045F                              u4130 04BB  
                            u3170 1788                              u3251 009E                              u3091 007A  
                            u3075 0068                              u4051 045E                              u4211 0559  
                            u4131 04BA                              u3155 17EF                              u3171 1787  
                            u3500 0234                              u3420 01B3                              u3340 0153  
                            u3260 00BF                              u4060 046E                              u4212 0560  
                            u4140 04C1                              u3501 0233                              u3421 01B2  
                            u3341 0152                              u3325 013F                              u3261 00BE  
                            u4301 0679                              u4221 0575                              u4213 0567  
                            u4141 04C0                              u3510 0249                              u3430 01B8  
                            u3270 00C5                              u4070 047D                              u4302 0680  
                            u4222 057C                              u4150 04C6                              u3190 179A  
                            u3511 0248                              u3431 01B7                              u3415 01A2  
                            u3335 0148                              u3271 00C4                              u4071 047C  
                            u4311 06A4                              u4303 0687                              u4231 059F  
                            u4223 0583                              u4151 04C5                              u3191 1799  
                            u3520 16A6                              u3440 01CC                              u3360 016F  
                            u3280 00CA                              u4080 0486                              u4400 0746  
                            u4320 06CC                              u4312 06AB                              u4232 05A6  
                            u4160 04E5                              u3600 0D26                              u2705 1768  
                            u3521 16A5                              u3505 0230                              u3441 01CB  
                            u3361 016E                              u3281 00C9                              u4081 0485  
                            u4065 0469                              u4401 0745                              u4313 06B2  
                            u4241 05BB                              u4233 05AD                              u4161 04E4  
                            u3185 178C                              u3601 0D25                              u3530 1671  
                            u3450 01D3                              u3370 0188                              u3290 00E5  
                            u4090 048B                              u3610 16D3                              u4410 074B  
                            u4242 05C2                              u4170 04EB                              u3531 1670  
                            u3451 01D2                              u3371 0187                              u3355 0156  
                            u3291 00E4                              u4091 048A                              u3611 16D2  
                            u4411 074A                              u4331 06D8                              u4243 05C9  
                            u4171 04EA                              u3460 01D9                              u3380 0190  
                            u4500 0937                              u3700 028A                              u4420 075F  
                            u4340 06F4                              u4332 06DF                              u4180 04F0  
                            u3540 0C4B                              u3461 01D8                              u3381 018F  
                            u3365 016B                              u4501 0936                              u3701 0289  
                            u4421 075E                              u4333 06E6                              u4325 06C7  
                            u4261 05EF                              u4181 04EF                              u3541 0C4A  
                            u3470 01EB                              u4510 0953                              u3710 0293  
                            u3630 16E7                              u4430 0766                              u4262 05F6  
                            u4190 0507                              u3550 0C89                              u3471 01EA  
                            u4511 0952                              u3711 0292                              u3631 16E6  
                            u4431 0765                              u4351 0700                              u4271 061A  
                            u4263 05FD                              u4255 05CB                              u4191 0506  
                            u3551 0C88                              u3480 01FA                              u4520 095F  
                            u3800 031E                              u3720 0299                              u4440 076C  
                            u4352 0707                              u4272 0621                              u3640 088D  
                            u3560 0CAF                              u4521 095E                              u3801 031D  
                            u3721 0298                              u3625 16DA                              u4441 076B  
                            u4353 070E                              u4345 06EF                              u4273 0628  
                            u3641 088C                              u3561 0CAE                              u3490 0217  
                            u4610 0A0E                              u3730 029E                              u4450 077E  
                            u3650 08A9                              u3570 0CBA                              u3491 0216  
                            u3395 0194                              u4531 096E                              u4611 0A0D  
                            u3731 029D                              u4451 077D                              u4291 064E  
                            u3651 08A8                              u3571 0CB9                              u4540 0987  
                            u4532 096F                              u4700 0A73                              u3900 0397  
                            u3820 0334                              u3740 02B7                              u4460 078D  
                            u4380 0732                              u4292 0655                              u3660 08C3  
                            u3580 0CC0                              u3485 01F5                              u4541 0986  
                            u4533 0974                              u4701 0A72                              u4605 0A00  
                            u3901 0396                              u3821 0333                              u3741 02B6  
                            u4381 0731                              u4365 0710                              u4293 065C  
                            u4285 062A                              u3661 08C2                              u3581 0CBF  
                            u3565 0CAB                              u4534 0975                              u4630 0A30  
                            u3830 0338                              u3750 02BB                              u3670 0263  
                            u4470 07AA                              u4710 08E2                              u3590 0D16  
                            u3495 0213                              u4551 0996                              u4535 097A  
                            u4631 0A2F                              u3911 03AE                              u3903 0393  
                            u3831 0337                              u3815 0321                              u3751 02BA  
                            u3671 0262                              u4471 07A9                              u4375 0727  
                            u4711 08E1                              u3591 0D15                              u4560 09C1  
                            u4552 0997                              u4536 097B                              u3920 03C2  
                            u3912 03AF                              u3840 033D                              u3760 02F5  
                            u3680 0269                              u4480 07C4                              u4561 09C0  
                            u4553 099C                              u4625 0A22                              u3921 03C3  
                            u3913 03B4                              u3841 033C                              u3761 02F4  
                            u3681 0268                              u4481 07C3                              u4465 0788  
                            u3665 08BF                              u4554 099D                              u4650 0A40  
                            u4570 09CB                              u3930 03E0                              u3922 03C8  
                            u3914 03B5                              u3770 0300                              u3690 026E  
                            u4490 07E0                              u4555 09A2                              u4651 0A3F  
                            u4571 09CA                              u3931 03DF                              u3923 03C9  
                            u3915 03BA                              u3851 034F                              u3771 02FE  
                            u3691 026D                              u4491 07DF                              u4475 07A6  
                            u4395 0735                              u4556 09A3                              u4660 0A46  
                            u4580 09CF                              u3940 0405                              u3916 03BB  
                            u3860 0361                              u3852 0356                              u3780 0301  
                            u4740 0B4E                              u4565 09BD                              u4661 0A45  
                            u4645 0A35                              u4581 09CE                              u3941 0404  
                            u3861 0360                              u3853 035D                              u3765 02F1  
                            u4485 07C0                              u4741 0B4D                              u4725 0A82  
                            u2990 169E                              u4670 0A4A                              u4590 09EF  
                            u3950 040A                              u3870 0365                              u3790 0311  
                            u4750 0D4A                              u2991 169D                              u4671 0A49  
                            u4591 09EE                              u3951 0409                              u3871 0364  
                            u3791 0310                              u4735 0AB5                              u4751 0D49  
                            u4807 0C2D                              u4680 0A5F                              u3880 0372  
                            u4760 0D74                              u2985 1732                              u4817 1667  
                            u3881 0371                              u4761 0D73                              u4690 0A6F  
                            u3970 0420                              u4827 1760                              u4691 0A6E  
                            u3971 041F                              u3980 0425                              u4837 177C  
                            u4685 0A5A                              u3981 0424                              u3965 0415  
                            u3990 042F                              u4847 16F3                              u3991 042E  
                            u3895 0375                              u4857 0873                              u4777 0B7F  
                            u4867 172A                              u4787 0B9A                              u4877 1746  
                            u4797 0BC3                              _main 0B57                              btemp 007E  
                            log@x 00B0                              start 0000                   ___fldiv@new_exp 0051  
                   _LCD_String_xy 169F                             ??_log 007E                  __end_of_LCD_Char 1782  
                __end_of_LCD_Init 1716                     ___fltol@sign1 0078                   __end_of___fladd 04AE  
                           ?_main 0070                   __end_of___fldiv 0256                   __end_of___flmul 07F3  
                 __end_of___fltol 0087                             _ANSEL 0188                   __end_of___lwdiv 1800  
                 __end_of___lwmod 17BC                             _PORTD 0008                             _TRISA 0085  
                           _TRISD 0088                   __end_of_dpowers 081A                             _frexp 08C7  
                           _errno 00D5                 _value_temperature 00D9                             pclath 000A  
       _convertir_temperature$896 00BC         _convertir_temperature$897 00C0         _convertir_temperature$898 00C4  
                           status 0003                             wtemp0 007E                   __end_of_sprintf 0D2F  
                  ?_LCD_String_xy 0075                   __initialization 07F3                       log@exponent 006D  
                    __end_of_main 0C3D                            ??_main 00CC                 __end_of_LCD_Clear 0879  
                          ?_frexp 0020                            _ADRESH 001E                            _ADRESL 009E  
                LCD_String_xy@msg 0076                  LCD_String_xy@pos 0075                  LCD_String_xy@row 0078  
                          _OSCCON 008F                  __end_of___xxtofl 0A7D                            ___flge 0923  
                          ___fleq 0879                         ??___fladd 0061                         ??___fldiv 0047  
                       ??___flmul 002D                         ??___fltol 0074                         ??___lwdiv 0074  
                       ??___lwmod 007B                            _buffer 00DD                         ??_sprintf 0025  
                 _value_fotocelda 00D7                        ___flge@ff1 0070                        ___flge@ff2 0074  
                    ___xxtofl@arg 007A                      ___xxtofl@exp 0079                      ___xxtofl@val 0070  
                      ___fleq@ff1 0070                        ___fleq@ff2 0074                  __end_oflog@coeff 083E  
                       ?_LCD_Char 0070           __end_of__initialization 07FC                         ?_LCD_Init 0070  
                 ??_LCD_String_xy 0078                      eval_poly@res 00AC                        ___fltol@f1 0070  
                  __pcstackCOMMON 0070                     __end_of_frexp 0923                      ??_LCD_String 0075  
                         ??_frexp 007C                        __pbssBANK1 00D5                        ??_LCD_Char 0070  
                      ??_LCD_Init 0073                __end_of_LCD_String 169F                 __end_of__Umul8_16 16EC  
                      __pmaintext 0B57           main@value_potenciometro 00CF                           ?___flge 0070  
                         ?___fleq 0070             _convertir_temperature 0E75                 __end_of_adc_begin 0011  
                       ?___xxtofl 0070                    _adc_conversion 1658                        __stringtab 0800  
                   LCD_String@msg 0073                           ___fladd 0256        convertir_temperature@tempC 00C8  
                         ___fldiv 0087                           ___flmul 04AE                           ___fltol 0011  
                         ___lwdiv 17BC                           ___lwmod 1782                 __end_of_eval_poly 0B57  
                         __ptext1 0C3D                           __ptext2 1782                           __ptext3 17BC  
                         __ptext4 0E75                           __ptext5 0D2F                           __ptext6 08C7  
                         __ptext7 0879                           __ptext8 0A7D                           __ptext9 04AE  
                         _dpowers 0810                        ??___xxtofl 0074            __end_of_adc_conversion 1679  
                       _LCD_Clear 0869                           _sprintf 0C3D                           clrloop0 0862  
            end_of_initialization 07FC                    LCD_Command@cmd 0072            ?_convertir_temperature 00B4  
                     ___fladd@grs 006C                     ___xxtofl@sign 0078                   ?_adc_conversion 0070  
                      ?_LCD_Clear 0070                       ___fldiv@grs 0053                       ___fldiv@rem 004C  
                     ___flmul@grs 0034               _value_potenciometro 00DB                     ??_LCD_Command 0070  
                  __end_of___flge 09C5                    __end_of___fleq 08C7               start_initialization 07F3  
                      eval_poly@d 00A4                        eval_poly@n 00A5                        eval_poly@x 00A0  
                     __end_of_log 0E75                        frexp@value 0020             __end_of_LCD_String_xy 16C5  
                        ??___flge 0078                          ??___fleq 0078                         __Umul8_16 16C5  
                       ___fladd@a 005D                         ___fladd@b 0059                         ___fldiv@a 003F  
                       ___fldiv@b 0043               __end_of_LCD_Command 174C                         ___flmul@a 0029  
                       ___flmul@b 0025                         ___latbits 0002                     __pcstackBANK0 0020  
                   __pcstackBANK1 00A0                         _adc_begin 0005                       ??_LCD_Clear 0073  
                     sprintf@ccnt 002A                       sprintf@flag 0029                       sprintf@prec 002C  
          convertir_temperature@a 00B8                  ___lwdiv@dividend 0072  convertir_temperature@temperature 00B4  
                        ?___fladd 0059                          ?___fldiv 003F                          ?___flmul 0025  
                        ?___fltol 0070                        ?__Umul8_16 0070                          ?___lwdiv 0070  
                        ?___lwmod 0077                         __pstrings 0800                         _eval_poly 0A7D  
                      ?_adc_begin 0070                  ___lwdiv@quotient 0074             LCD_String_xy@location 0079  
                        ?_sprintf 0020                          _LCD_Char 174C                          _LCD_Init 16EC  
                       clear_ram0 0861           ??_convertir_temperature 00B6                       _LCD_Command 1716  
                      _ADCON0bits 001F                  ??_adc_conversion 0072                       __stringbase 080F  
                      _ADCON1bits 009F                        ?_eval_poly 00A0                         frexp@eptr 0024  
           main@value_temperature 00D1                       ??__Umul8_16 0072                __end_of__stringtab 0810  
                      sprintf@val 002D                          ___xxtofl 09C5                       ??_adc_begin 0070  
                 ___lwdiv@divisor 0070                   ___lwdiv@counter 0076                          __ptext10 16C5  
                        __ptext11 0256                          __ptext20 174C                          __ptext12 09C5  
                        __ptext21 16EC                          __ptext13 0923                          __ptext22 0869  
                        __ptext14 0011                          __ptext23 1716                          __ptext15 0087  
                        __ptext16 1658                          __ptext17 0005                          __ptext18 169F  
                        __ptext19 1679                   main@tempcelsius 00D3                        _LCD_String 1679  
                        log@coeff 081A                       ??_eval_poly 00A7                         sprintf@ap 0028  
                       sprintf@sp 002F                  ___lwmod@dividend 0079                         stringcode 080A  
          __Umul8_16@multiplicand 0070                          sprintf@c 0030                          sprintf@f 0020  
                 ___lwmod@divisor 0077                   ___lwmod@counter 007B                          stringdir 080A  
                        stringtab 0800                     ___fladd@signs 0069             adc_conversion@channel 0070  
                    ___fladd@aexp 006A                      ___fladd@bexp 006B              __Umul8_16@multiplier 0078  
               __Umul8_16@product 0074  
