

Microchip MPLAB XC8 Assembler V2.41 build 20230208172133 
                                                                                               Mon Nov 13 16:36:10 2023

Microchip MPLAB XC8 C Compiler v2.41 (Free license) build 20230208172133 Og1 
     1                           	processor	16F887
     2                           	pagewidth 120
     3                           	opt	flic
     4                           	psect	idataBANK3,global,class=CODE,delta=2,noexec
     5                           	psect	strings,global,class=STRING,delta=2,noexec
     6                           	psect	cinit,global,class=CODE,merge=1,delta=2
     7                           	psect	bssBANK0,global,class=BANK0,space=1,delta=1,noexec
     8                           	psect	bssBANK1,global,class=BANK1,space=1,delta=1,noexec
     9                           	psect	bssBANK3,global,class=BANK3,space=1,delta=1,noexec
    10                           	psect	dataBANK3,global,class=BANK3,space=1,delta=1,noexec
    11                           	psect	inittext,global,class=CODE,delta=2
    12                           	psect	clrtext,global,class=CODE,delta=2
    13                           	psect	cstackBANK1,global,class=BANK1,space=1,delta=1,noexec
    14                           	psect	cstackCOMMON,global,class=COMMON,space=1,delta=1,noexec
    15                           	psect	cstackBANK0,global,class=BANK0,space=1,delta=1,noexec
    16                           	psect	maintext,global,class=CODE,split=1,delta=2
    17                           	psect	text1,local,class=CODE,merge=1,delta=2
    18                           	psect	text2,local,class=CODE,merge=1,delta=2
    19                           	psect	text3,local,class=CODE,merge=1,delta=2,group=3
    20                           	psect	text4,local,class=CODE,merge=1,delta=2
    21                           	psect	text5,local,class=CODE,merge=1,delta=2
    22                           	psect	text6,local,class=CODE,merge=1,delta=2
    23                           	psect	text7,local,class=CODE,merge=1,delta=2
    24                           	psect	text8,local,class=CODE,merge=1,delta=2,group=1
    25                           	psect	text9,local,class=CODE,merge=1,delta=2,group=2
    26                           	psect	text10,local,class=CODE,merge=1,delta=2,group=2
    27                           	psect	text11,local,class=CODE,merge=1,delta=2
    28                           	psect	text12,local,class=CODE,merge=1,delta=2,group=3
    29                           	psect	text13,local,class=CODE,merge=1,delta=2,group=3
    30                           	psect	text14,local,class=CODE,merge=1,delta=2,group=2
    31                           	psect	text15,local,class=CODE,merge=1,delta=2,group=3
    32                           	psect	text16,local,class=CODE,merge=1,delta=2,group=2
    33                           	psect	text17,local,class=CODE,merge=1,delta=2,group=2
    34                           	psect	text18,local,class=CODE,merge=1,delta=2,group=2
    35                           	psect	text19,local,class=CODE,merge=1,delta=2,group=2
    36                           	psect	text20,local,class=CODE,merge=1,delta=2,group=2
    37                           	psect	text21,local,class=CODE,merge=1,delta=2,group=2
    38                           	psect	text22,local,class=CODE,merge=1,delta=2,group=2
    39                           	psect	text23,local,class=CODE,merge=1,delta=2
    40                           	psect	text24,local,class=CODE,merge=1,delta=2
    41                           	psect	text25,local,class=CODE,merge=1,delta=2
    42                           	psect	text26,local,class=CODE,merge=1,delta=2
    43                           	psect	text27,local,class=CODE,merge=1,delta=2
    44                           	psect	text28,local,class=CODE,merge=1,delta=2
    45                           	psect	text29,local,class=CODE,merge=1,delta=2
    46                           	psect	text30,local,class=CODE,merge=1,delta=2
    47                           	psect	text31,local,class=CODE,merge=1,delta=2
    48                           	psect	text32,local,class=CODE,merge=1,delta=2
    49                           	psect	text33,local,class=CODE,merge=1,delta=2
    50                           	psect	text34,local,class=CODE,merge=1,delta=2
    51                           	psect	config,global,abs,ovrld,class=CONFIG,space=4,delta=2,noexec
    52                           	dabs	1,0x7E,2
    53     0000                     
    54                           ; Version 2.20
    55                           ; Generated 12/02/2020 GMT
    56                           ; 
    57                           ; Copyright © 2020, Microchip Technology Inc. and its subsidiaries ("Microchip")
    58                           ; All rights reserved.
    59                           ; 
    60                           ; This software is developed by Microchip Technology Inc. and its subsidiaries ("Microch
      +                          ip").
    61                           ; 
    62                           ; Redistribution and use in source and binary forms, with or without modification, are
    63                           ; permitted provided that the following conditions are met:
    64                           ; 
    65                           ;     1. Redistributions of source code must retain the above copyright notice, this lis
      +                          t of
    66                           ;        conditions and the following disclaimer.
    67                           ; 
    68                           ;     2. Redistributions in binary form must reproduce the above copyright notice, this 
      +                          list
    69                           ;        of conditions and the following disclaimer in the documentation and/or other
    70                           ;        materials provided with the distribution.
    71                           ; 
    72                           ;     3. Microchip's name may not be used to endorse or promote products derived from th
      +                          is
    73                           ;        software without specific prior written permission.
    74                           ; 
    75                           ; THIS SOFTWARE IS PROVIDED BY MICROCHIP "AS IS" AND ANY EXPRESS OR IMPLIED WARRANTIES,
    76                           ; INCLUDING, BUT NOT LIMITED TO, THE IMPLIED WARRANTIES OF MERCHANTABILITY AND FITNESS F
      +                          OR
    77                           ; PURPOSE ARE DISCLAIMED.  IN NO EVENT SHALL MICROCHIP BE LIABLE FOR ANY DIRECT, INDIREC
      +                          T,
    78                           ; INCIDENTAL, SPECIAL, EXEMPLARY, OR CONSEQUENTIAL DAMAGES (INCLUDING BUT NOT LIMITED TO
    79                           ; PROCUREMENT OF SUBSTITUTE GOODS OR SERVICES; LOSS OF USE, DATA OR PROFITS; OR BUSINESS
    80                           ; INTERRUPTION) HOWSOEVER CAUSED AND ON ANY THEORY OF LIABILITY, WHETHER IN CONTRACT, ST
      +                          RICT
    81                           ; LIABILITY, OR TORT (INCLUDING NEGLIGENCE OR OTHERWISE) ARISING IN ANY WAY OUT OF THE U
      +                          SE OF
    82                           ; THIS SOFTWARE, EVEN IF ADVISED OF THE POSSIBILITY OF SUCH DAMAGE.
    83                           ; 
    84                           ; 
    85                           ; Code-generator required, PIC16F887 Definitions
    86                           ; 
    87                           ; SFR Addresses
    88     0000                     	;# 
    89     0001                     	;# 
    90     0002                     	;# 
    91     0003                     	;# 
    92     0004                     	;# 
    93     0005                     	;# 
    94     0006                     	;# 
    95     0007                     	;# 
    96     0008                     	;# 
    97     0009                     	;# 
    98     000A                     	;# 
    99     000B                     	;# 
   100     000C                     	;# 
   101     000D                     	;# 
   102     000E                     	;# 
   103     000E                     	;# 
   104     000F                     	;# 
   105     0010                     	;# 
   106     0011                     	;# 
   107     0012                     	;# 
   108     0013                     	;# 
   109     0014                     	;# 
   110     0015                     	;# 
   111     0015                     	;# 
   112     0016                     	;# 
   113     0017                     	;# 
   114     0018                     	;# 
   115     0019                     	;# 
   116     001A                     	;# 
   117     001B                     	;# 
   118     001B                     	;# 
   119     001C                     	;# 
   120     001D                     	;# 
   121     001E                     	;# 
   122     001F                     	;# 
   123     0081                     	;# 
   124     0085                     	;# 
   125     0086                     	;# 
   126     0087                     	;# 
   127     0088                     	;# 
   128     0089                     	;# 
   129     008C                     	;# 
   130     008D                     	;# 
   131     008E                     	;# 
   132     008F                     	;# 
   133     0090                     	;# 
   134     0091                     	;# 
   135     0092                     	;# 
   136     0093                     	;# 
   137     0093                     	;# 
   138     0093                     	;# 
   139     0094                     	;# 
   140     0095                     	;# 
   141     0096                     	;# 
   142     0097                     	;# 
   143     0098                     	;# 
   144     0099                     	;# 
   145     009A                     	;# 
   146     009B                     	;# 
   147     009C                     	;# 
   148     009D                     	;# 
   149     009E                     	;# 
   150     009F                     	;# 
   151     0105                     	;# 
   152     0107                     	;# 
   153     0108                     	;# 
   154     0109                     	;# 
   155     010C                     	;# 
   156     010C                     	;# 
   157     010D                     	;# 
   158     010E                     	;# 
   159     010F                     	;# 
   160     0185                     	;# 
   161     0187                     	;# 
   162     0188                     	;# 
   163     0189                     	;# 
   164     018C                     	;# 
   165     018D                     	;# 
   166     0000                     	;# 
   167     0001                     	;# 
   168     0002                     	;# 
   169     0003                     	;# 
   170     0004                     	;# 
   171     0005                     	;# 
   172     0006                     	;# 
   173     0007                     	;# 
   174     0008                     	;# 
   175     0009                     	;# 
   176     000A                     	;# 
   177     000B                     	;# 
   178     000C                     	;# 
   179     000D                     	;# 
   180     000E                     	;# 
   181     000E                     	;# 
   182     000F                     	;# 
   183     0010                     	;# 
   184     0011                     	;# 
   185     0012                     	;# 
   186     0013                     	;# 
   187     0014                     	;# 
   188     0015                     	;# 
   189     0015                     	;# 
   190     0016                     	;# 
   191     0017                     	;# 
   192     0018                     	;# 
   193     0019                     	;# 
   194     001A                     	;# 
   195     001B                     	;# 
   196     001B                     	;# 
   197     001C                     	;# 
   198     001D                     	;# 
   199     001E                     	;# 
   200     001F                     	;# 
   201     0081                     	;# 
   202     0085                     	;# 
   203     0086                     	;# 
   204     0087                     	;# 
   205     0088                     	;# 
   206     0089                     	;# 
   207     008C                     	;# 
   208     008D                     	;# 
   209     008E                     	;# 
   210     008F                     	;# 
   211     0090                     	;# 
   212     0091                     	;# 
   213     0092                     	;# 
   214     0093                     	;# 
   215     0093                     	;# 
   216     0093                     	;# 
   217     0094                     	;# 
   218     0095                     	;# 
   219     0096                     	;# 
   220     0097                     	;# 
   221     0098                     	;# 
   222     0099                     	;# 
   223     009A                     	;# 
   224     009B                     	;# 
   225     009C                     	;# 
   226     009D                     	;# 
   227     009E                     	;# 
   228     009F                     	;# 
   229     0105                     	;# 
   230     0107                     	;# 
   231     0108                     	;# 
   232     0109                     	;# 
   233     010C                     	;# 
   234     010C                     	;# 
   235     010D                     	;# 
   236     010E                     	;# 
   237     010F                     	;# 
   238     0185                     	;# 
   239     0187                     	;# 
   240     0188                     	;# 
   241     0189                     	;# 
   242     018C                     	;# 
   243     018D                     	;# 
   244     0000                     	;# 
   245     0001                     	;# 
   246     0002                     	;# 
   247     0003                     	;# 
   248     0004                     	;# 
   249     0005                     	;# 
   250     0006                     	;# 
   251     0007                     	;# 
   252     0008                     	;# 
   253     0009                     	;# 
   254     000A                     	;# 
   255     000B                     	;# 
   256     000C                     	;# 
   257     000D                     	;# 
   258     000E                     	;# 
   259     000E                     	;# 
   260     000F                     	;# 
   261     0010                     	;# 
   262     0011                     	;# 
   263     0012                     	;# 
   264     0013                     	;# 
   265     0014                     	;# 
   266     0015                     	;# 
   267     0015                     	;# 
   268     0016                     	;# 
   269     0017                     	;# 
   270     0018                     	;# 
   271     0019                     	;# 
   272     001A                     	;# 
   273     001B                     	;# 
   274     001B                     	;# 
   275     001C                     	;# 
   276     001D                     	;# 
   277     001E                     	;# 
   278     001F                     	;# 
   279     0081                     	;# 
   280     0085                     	;# 
   281     0086                     	;# 
   282     0087                     	;# 
   283     0088                     	;# 
   284     0089                     	;# 
   285     008C                     	;# 
   286     008D                     	;# 
   287     008E                     	;# 
   288     008F                     	;# 
   289     0090                     	;# 
   290     0091                     	;# 
   291     0092                     	;# 
   292     0093                     	;# 
   293     0093                     	;# 
   294     0093                     	;# 
   295     0094                     	;# 
   296     0095                     	;# 
   297     0096                     	;# 
   298     0097                     	;# 
   299     0098                     	;# 
   300     0099                     	;# 
   301     009A                     	;# 
   302     009B                     	;# 
   303     009C                     	;# 
   304     009D                     	;# 
   305     009E                     	;# 
   306     009F                     	;# 
   307     0105                     	;# 
   308     0107                     	;# 
   309     0108                     	;# 
   310     0109                     	;# 
   311     010C                     	;# 
   312     010C                     	;# 
   313     010D                     	;# 
   314     010E                     	;# 
   315     010F                     	;# 
   316     0185                     	;# 
   317     0187                     	;# 
   318     0188                     	;# 
   319     0189                     	;# 
   320     018C                     	;# 
   321     018D                     	;# 
   322     0000                     	;# 
   323     0001                     	;# 
   324     0002                     	;# 
   325     0003                     	;# 
   326     0004                     	;# 
   327     0005                     	;# 
   328     0006                     	;# 
   329     0007                     	;# 
   330     0008                     	;# 
   331     0009                     	;# 
   332     000A                     	;# 
   333     000B                     	;# 
   334     000C                     	;# 
   335     000D                     	;# 
   336     000E                     	;# 
   337     000E                     	;# 
   338     000F                     	;# 
   339     0010                     	;# 
   340     0011                     	;# 
   341     0012                     	;# 
   342     0013                     	;# 
   343     0014                     	;# 
   344     0015                     	;# 
   345     0015                     	;# 
   346     0016                     	;# 
   347     0017                     	;# 
   348     0018                     	;# 
   349     0019                     	;# 
   350     001A                     	;# 
   351     001B                     	;# 
   352     001B                     	;# 
   353     001C                     	;# 
   354     001D                     	;# 
   355     001E                     	;# 
   356     001F                     	;# 
   357     0081                     	;# 
   358     0085                     	;# 
   359     0086                     	;# 
   360     0087                     	;# 
   361     0088                     	;# 
   362     0089                     	;# 
   363     008C                     	;# 
   364     008D                     	;# 
   365     008E                     	;# 
   366     008F                     	;# 
   367     0090                     	;# 
   368     0091                     	;# 
   369     0092                     	;# 
   370     0093                     	;# 
   371     0093                     	;# 
   372     0093                     	;# 
   373     0094                     	;# 
   374     0095                     	;# 
   375     0096                     	;# 
   376     0097                     	;# 
   377     0098                     	;# 
   378     0099                     	;# 
   379     009A                     	;# 
   380     009B                     	;# 
   381     009C                     	;# 
   382     009D                     	;# 
   383     009E                     	;# 
   384     009F                     	;# 
   385     0105                     	;# 
   386     0107                     	;# 
   387     0108                     	;# 
   388     0109                     	;# 
   389     010C                     	;# 
   390     010C                     	;# 
   391     010D                     	;# 
   392     010E                     	;# 
   393     010F                     	;# 
   394     0185                     	;# 
   395     0187                     	;# 
   396     0188                     	;# 
   397     0189                     	;# 
   398     018C                     	;# 
   399     018D                     	;# 
   400     0000                     	;# 
   401     0001                     	;# 
   402     0002                     	;# 
   403     0003                     	;# 
   404     0004                     	;# 
   405     0005                     	;# 
   406     0006                     	;# 
   407     0007                     	;# 
   408     0008                     	;# 
   409     0009                     	;# 
   410     000A                     	;# 
   411     000B                     	;# 
   412     000C                     	;# 
   413     000D                     	;# 
   414     000E                     	;# 
   415     000E                     	;# 
   416     000F                     	;# 
   417     0010                     	;# 
   418     0011                     	;# 
   419     0012                     	;# 
   420     0013                     	;# 
   421     0014                     	;# 
   422     0015                     	;# 
   423     0015                     	;# 
   424     0016                     	;# 
   425     0017                     	;# 
   426     0018                     	;# 
   427     0019                     	;# 
   428     001A                     	;# 
   429     001B                     	;# 
   430     001B                     	;# 
   431     001C                     	;# 
   432     001D                     	;# 
   433     001E                     	;# 
   434     001F                     	;# 
   435     0081                     	;# 
   436     0085                     	;# 
   437     0086                     	;# 
   438     0087                     	;# 
   439     0088                     	;# 
   440     0089                     	;# 
   441     008C                     	;# 
   442     008D                     	;# 
   443     008E                     	;# 
   444     008F                     	;# 
   445     0090                     	;# 
   446     0091                     	;# 
   447     0092                     	;# 
   448     0093                     	;# 
   449     0093                     	;# 
   450     0093                     	;# 
   451     0094                     	;# 
   452     0095                     	;# 
   453     0096                     	;# 
   454     0097                     	;# 
   455     0098                     	;# 
   456     0099                     	;# 
   457     009A                     	;# 
   458     009B                     	;# 
   459     009C                     	;# 
   460     009D                     	;# 
   461     009E                     	;# 
   462     009F                     	;# 
   463     0105                     	;# 
   464     0107                     	;# 
   465     0108                     	;# 
   466     0109                     	;# 
   467     010C                     	;# 
   468     010C                     	;# 
   469     010D                     	;# 
   470     010E                     	;# 
   471     010F                     	;# 
   472     0185                     	;# 
   473     0187                     	;# 
   474     0188                     	;# 
   475     0189                     	;# 
   476     018C                     	;# 
   477     018D                     	;# 
   478                           
   479                           	psect	idataBANK3
   480     11F9                     __pidataBANK3:
   481                           
   482                           ;initializer for keypad_getkey@F1268
   483     11F9  3431               	retlw	49
   484     11FA  3432               	retlw	50
   485     11FB  3433               	retlw	51
   486     11FC  3441               	retlw	65
   487     11FD  3434               	retlw	52
   488     11FE  3435               	retlw	53
   489     11FF  3436               	retlw	54
   490     1200  3442               	retlw	66
   491     1201  3437               	retlw	55
   492     1202  3438               	retlw	56
   493     1203  3439               	retlw	57
   494     1204  3443               	retlw	67
   495     1205  342A               	retlw	42
   496     1206  3430               	retlw	48
   497     1207  3423               	retlw	35
   498     1208  3444               	retlw	68
   499                           
   500                           	psect	strings
   501     0800                     __pstrings:
   502     0800                     stringtab:
   503     0800                     __stringtab:
   504                           
   505                           ;	String table - string pointers are 1 byte each
   506     0800  1BFF               	btfsc	btemp+1,7
   507     0801  280A               	ljmp	stringcode
   508     0802  1383               	bcf	3,7
   509     0803  187F               	btfsc	btemp+1,0
   510     0804  1783               	bsf	3,7
   511     0805  0800               	movf	0,w
   512     0806  0A84               	incf	4,f
   513     0807  1903               	skipnz
   514     0808  0AFF               	incf	btemp+1,f
   515     0809  0008               	return
   516     080A                     stringcode:
   517     080A                     stringdir:
   518     080A  3008               	movlw	high stringdir
   519     080B  008A               	movwf	10
   520     080C  0804               	movf	4,w
   521     080D  0A84               	incf	4,f
   522     080E  0782               	addwf	2,f
   523     080F                     __stringbase:
   524     080F  3400               	retlw	0
   525     0810                     __end_of__stringtab:
   526     0810                     _dpowers:
   527     0810  3401               	retlw	1
   528     0811  3400               	retlw	0
   529     0812  340A               	retlw	10
   530     0813  3400               	retlw	0
   531     0814  3464               	retlw	100
   532     0815  3400               	retlw	0
   533     0816  34E8               	retlw	232
   534     0817  3403               	retlw	3
   535     0818  3410               	retlw	16
   536     0819  3427               	retlw	39
   537     081A                     __end_of_dpowers:
   538     081A                     log@coeff:
   539     081A  3400               	retlw	0
   540     081B  3400               	retlw	0
   541     081C  3400               	retlw	0
   542     081D  3400               	retlw	0
   543     081E  34C4               	retlw	196
   544     081F  34FF               	retlw	255
   545     0820  347F               	retlw	127
   546     0821  343F               	retlw	63
   547     0822  3480               	retlw	128
   548     0823  34EF               	retlw	239
   549     0824  34FF               	retlw	255
   550     0825  34BE               	retlw	190
   551     0826  3490               	retlw	144
   552     0827  34E1               	retlw	225
   553     0828  34A9               	retlw	169
   554     0829  343E               	retlw	62
   555     082A  34EC               	retlw	236
   556     082B  3482               	retlw	130
   557     082C  3476               	retlw	118
   558     082D  34BE               	retlw	190
   559     082E  3482               	retlw	130
   560     082F  34AD               	retlw	173
   561     0830  342B               	retlw	43
   562     0831  343E               	retlw	62
   563     0832  340E               	retlw	14
   564     0833  343C               	retlw	60
   565     0834  34C3               	retlw	195
   566     0835  34BD               	retlw	189
   567     0836  3487               	retlw	135
   568     0837  34D1               	retlw	209
   569     0838  3413               	retlw	19
   570     0839  343D               	retlw	61
   571     083A  3441               	retlw	65
   572     083B  3478               	retlw	120
   573     083C  34D3               	retlw	211
   574     083D  34BB               	retlw	187
   575     083E                     __end_oflog@coeff:
   576     083E                     _password:
   577     083E  3432               	retlw	50
   578     083F  3437               	retlw	55
   579     0840  3430               	retlw	48
   580     0841  3439               	retlw	57
   581     0842  3400               	retlw	0
   582     0843                     __end_of_password:
   583     001E                     _ADRESH	set	30
   584     001F                     _ADCON0bits	set	31
   585     0009                     _PORTE	set	9
   586     0006                     _PORTB	set	6
   587     0008                     _PORTD	set	8
   588     002D                     _RA5	set	45
   589     0029                     _RA1	set	41
   590     0028                     _RA0	set	40
   591     003A                     _RC2	set	58
   592     0038                     _RC0	set	56
   593     0039                     _RC1	set	57
   594     0041                     _RD1	set	65
   595     0040                     _RD0	set	64
   596     009E                     _ADRESL	set	158
   597     009F                     _ADCON1bits	set	159
   598     0087                     _TRISC	set	135
   599     008F                     _OSCCON	set	143
   600     0089                     _TRISE	set	137
   601     0085                     _TRISA	set	133
   602     0081                     _OPTION_REGbits	set	129
   603     0086                     _TRISB	set	134
   604     0088                     _TRISD	set	136
   605     0188                     _ANSEL	set	392
   606     0189                     _ANSELH	set	393
   607     0843                     STR_3:
   608     0843  3469               	retlw	105	;'i'
   609     0844  3472               	retlw	114	;'r'
   610     0845  343D               	retlw	61	;'='
   611     0846  3425               	retlw	37	;'%'
   612     0847  3464               	retlw	100	;'d'
   613     0848  342C               	retlw	44	;','
   614     0849  3468               	retlw	104	;'h'
   615     084A  346C               	retlw	108	;'l'
   616     084B  343D               	retlw	61	;'='
   617     084C  3425               	retlw	37	;'%'
   618     084D  3464               	retlw	100	;'d'
   619     084E  342C               	retlw	44	;','
   620     084F  346D               	retlw	109	;'m'
   621     0850  3474               	retlw	116	;'t'
   622     0851  343D               	retlw	61	;'='
   623     0852  3425               	retlw	37	;'%'
   624     0853  3464               	retlw	100	;'d'
   625     0854  3400               	retlw	0
   626     0855                     STR_8:
   627     0855  3443               	retlw	67	;'C'
   628     0856  346C               	retlw	108	;'l'
   629     0857  3461               	retlw	97	;'a'
   630     0858  3476               	retlw	118	;'v'
   631     0859  3465               	retlw	101	;'e'
   632     085A  3420               	retlw	32	;' '
   633     085B  3449               	retlw	73	;'I'
   634     085C  346E               	retlw	110	;'n'
   635     085D  3463               	retlw	99	;'c'
   636     085E  346F               	retlw	111	;'o'
   637     085F  3472               	retlw	114	;'r'
   638     0860  3472               	retlw	114	;'r'
   639     0861  3465               	retlw	101	;'e'
   640     0862  3463               	retlw	99	;'c'
   641     0863  3474               	retlw	116	;'t'
   642     0864  3461               	retlw	97	;'a'
   643     0865  3400               	retlw	0
   644     0866                     STR_7:
   645     0866  3443               	retlw	67	;'C'
   646     0867  346C               	retlw	108	;'l'
   647     0868  3461               	retlw	97	;'a'
   648     0869  3476               	retlw	118	;'v'
   649     086A  3465               	retlw	101	;'e'
   650     086B  3420               	retlw	32	;' '
   651     086C  3443               	retlw	67	;'C'
   652     086D  346F               	retlw	111	;'o'
   653     086E  3472               	retlw	114	;'r'
   654     086F  3472               	retlw	114	;'r'
   655     0870  3465               	retlw	101	;'e'
   656     0871  3463               	retlw	99	;'c'
   657     0872  3474               	retlw	116	;'t'
   658     0873  3461               	retlw	97	;'a'
   659     0874  3400               	retlw	0
   660     0875                     STR_6:
   661     0875  3449               	retlw	73	;'I'
   662     0876  346E               	retlw	110	;'n'
   663     0877  3467               	retlw	103	;'g'
   664     0878  3472               	retlw	114	;'r'
   665     0879  3465               	retlw	101	;'e'
   666     087A  3473               	retlw	115	;'s'
   667     087B  3465               	retlw	101	;'e'
   668     087C  3420               	retlw	32	;' '
   669     087D  3463               	retlw	99	;'c'
   670     087E  346C               	retlw	108	;'l'
   671     087F  3461               	retlw	97	;'a'
   672     0880  3476               	retlw	118	;'v'
   673     0881  3465               	retlw	101	;'e'
   674     0882  3400               	retlw	0
   675     0883                     STR_2:
   676     0883  3449               	retlw	73	;'I'
   677     0884  346E               	retlw	110	;'n'
   678     0885  3474               	retlw	116	;'t'
   679     0886  3465               	retlw	101	;'e'
   680     0887  346C               	retlw	108	;'l'
   681     0888  3469               	retlw	105	;'i'
   682     0889  3467               	retlw	103	;'g'
   683     088A  3465               	retlw	101	;'e'
   684     088B  346E               	retlw	110	;'n'
   685     088C  3474               	retlw	116	;'t'
   686     088D  3465               	retlw	101	;'e'
   687     088E  3400               	retlw	0
   688     088F                     STR_4:
   689     088F  3450               	retlw	80	;'P'
   690     0890  343D               	retlw	61	;'='
   691     0891  3425               	retlw	37	;'%'
   692     0892  3464               	retlw	100	;'d'
   693     0893  342C               	retlw	44	;','
   694     0894  3454               	retlw	84	;'T'
   695     0895  343D               	retlw	61	;'='
   696     0896  3425               	retlw	37	;'%'
   697     0897  3464               	retlw	100	;'d'
   698     0898  3400               	retlw	0
   699     0899                     STR_10:
   700     0899  3453               	retlw	83	;'S'
   701     089A  3465               	retlw	101	;'e'
   702     089B  3467               	retlw	103	;'g'
   703     089C  3475               	retlw	117	;'u'
   704     089D  3472               	retlw	114	;'r'
   705     089E  3469               	retlw	105	;'i'
   706     089F  3464               	retlw	100	;'d'
   707     08A0  3461               	retlw	97	;'a'
   708     08A1  3464               	retlw	100	;'d'
   709     08A2  3400               	retlw	0
   710     08A3                     STR_12:
   711     08A3  3441               	retlw	65	;'A'
   712     08A4  346D               	retlw	109	;'m'
   713     08A5  3462               	retlw	98	;'b'
   714     08A6  3469               	retlw	105	;'i'
   715     08A7  3465               	retlw	101	;'e'
   716     08A8  346E               	retlw	110	;'n'
   717     08A9  3474               	retlw	116	;'t'
   718     08AA  3461               	retlw	97	;'a'
   719     08AB  346C               	retlw	108	;'l'
   720     08AC  3400               	retlw	0
   721     08AD                     STR_14:
   722     08AD  3462               	retlw	98	;'b'
   723     08AE  346C               	retlw	108	;'l'
   724     08AF  346F               	retlw	111	;'o'
   725     08B0  3471               	retlw	113	;'q'
   726     08B1  3475               	retlw	117	;'u'
   727     08B2  3465               	retlw	101	;'e'
   728     08B3  3461               	retlw	97	;'a'
   729     08B4  3464               	retlw	100	;'d'
   730     08B5  346F               	retlw	111	;'o'
   731     08B6  3400               	retlw	0
   732     08B7                     STR_13:
   733     08B7  3473               	retlw	115	;'s'
   734     08B8  3469               	retlw	105	;'i'
   735     08B9  3473               	retlw	115	;'s'
   736     08BA  3474               	retlw	116	;'t'
   737     08BB  3465               	retlw	101	;'e'
   738     08BC  346D               	retlw	109	;'m'
   739     08BD  3461               	retlw	97	;'a'
   740     08BE  3400               	retlw	0
   741     08BF                     STR_9:
   742     08BF  3441               	retlw	65	;'A'
   743     08C0  346C               	retlw	108	;'l'
   744     08C1  3461               	retlw	97	;'a'
   745     08C2  3472               	retlw	114	;'r'
   746     08C3  346D               	retlw	109	;'m'
   747     08C4  3461               	retlw	97	;'a'
   748     08C5  3400               	retlw	0
   749     08C6                     STR_1:
   750     08C6  3443               	retlw	67	;'C'
   751     08C7  3461               	retlw	97	;'a'
   752     08C8  3473               	retlw	115	;'s'
   753     08C9  3461               	retlw	97	;'a'
   754     08CA  3400               	retlw	0
   755     08CB                     STR_5:
   756     08CB  344C               	retlw	76	;'L'
   757     08CC  343D               	retlw	61	;'='
   758     08CD  3425               	retlw	37	;'%'
   759     08CE  3464               	retlw	100	;'d'
   760     08CF  3400               	retlw	0
   761     08BF                     
   762                           	psect	cinit
   763     07DC                     start_initialization:	
   764                           ; #config settings
   765                           
   766     07DC                     __initialization:
   767                           
   768                           ; Initialize objects allocated to BANK3
   769     07DC  1783               	bsf	3,7	;select IRP bank2
   770     07DD  30B1               	movlw	low (__pdataBANK3+16)
   771     07DE  00FD               	movwf	btemp+-1
   772     07DF  3011               	movlw	high __pidataBANK3
   773     07E0  00FE               	movwf	btemp
   774     07E1  30F9               	movlw	low __pidataBANK3
   775     07E2  00FF               	movwf	btemp+1
   776     07E3  30A1               	movlw	low __pdataBANK3
   777     07E4  0084               	movwf	4
   778     07E5  160A  118A  220D  120A  118A  	fcall	init_ram0
   779                           
   780                           ; Clear objects allocated to BANK3
   781     07EA  3090               	movlw	low __pbssBANK3
   782     07EB  0084               	movwf	4
   783     07EC  30A1               	movlw	low (__pbssBANK3+17)
   784     07ED  120A  158A  20D0  120A  118A  	fcall	clear_ram0
   785                           
   786                           ; Clear objects allocated to BANK1
   787     07F2  1383               	bcf	3,7	;select IRP bank0
   788     07F3  30D8               	movlw	low __pbssBANK1
   789     07F4  0084               	movwf	4
   790     07F5  30EA               	movlw	low (__pbssBANK1+18)
   791     07F6  120A  158A  20D0  120A  118A  	fcall	clear_ram0
   792                           
   793                           ; Clear objects allocated to BANK0
   794     07FB  01EF               	clrf	__pbssBANK0& (0+127)
   795     07FC                     end_of_initialization:	
   796                           ;End of C runtime variable initialization code
   797                           
   798     07FC                     __end_of__initialization:
   799     07FC  0183               	clrf	3
   800     07FD  120A  158A  2B5B   	ljmp	_main	;jump to C main() function
   801                           
   802                           	psect	bssBANK0
   803     006F                     __pbssBANK0:
   804     006F                     _estado:
   805     006F                     	ds	1
   806                           
   807                           	psect	bssBANK1
   808     00D8                     __pbssBANK1:
   809     00D8                     _errno:
   810     00D8                     	ds	2
   811     00DA                     _value_fotocelda:
   812     00DA                     	ds	2
   813     00DC                     _value_temperature:
   814     00DC                     	ds	2
   815     00DE                     _value_potenciometro:
   816     00DE                     	ds	2
   817     00E0                     _intentos:
   818     00E0                     	ds	1
   819     00E1                     _var_sensor_metal:
   820     00E1                     	ds	1
   821     00E2                     _var_sensor_hall:
   822     00E2                     	ds	1
   823     00E3                     _var_sensor_ir:
   824     00E3                     	ds	1
   825     00E4                     _idx:
   826     00E4                     	ds	1
   827     00E5                     _pass_user:
   828     00E5                     	ds	5
   829                           
   830                           	psect	bssBANK3
   831     0190                     __pbssBANK3:
   832     0190                     _buffer:
   833     0190                     	ds	17
   834                           
   835                           	psect	dataBANK3
   836     01A1                     __pdataBANK3:
   837     01A1                     keypad_getkey@F1268:
   838     01A1                     	ds	16
   839                           
   840                           	psect	inittext
   841     1209                     init_fetch0:	
   842                           ;	Called with low address in FSR and high address in W
   843                           
   844     1209  087E               	movf	btemp,w
   845     120A  008A               	movwf	10
   846     120B  087F               	movf	btemp+1,w
   847     120C  0082               	movwf	2
   848     120D                     init_ram0:	
   849                           ;Called with:
   850                           ;	high address of idata address in btemp 
   851                           ;	low address of idata address in btemp+1 
   852                           ;	low address of data in FSR
   853                           ;	high address + 1 of data in btemp-1
   854                           
   855     120D  160A  118A  2209  160A  118A  	fcall	init_fetch0
   856     1212  0080               	movwf	0
   857     1213  0A84               	incf	4,f
   858     1214  0804               	movf	4,w
   859     1215  067D               	xorwf	btemp+-1,w
   860     1216  1903               	btfsc	3,2
   861     1217  3400               	retlw	0
   862     1218  0AFF               	incf	btemp+1,f
   863     1219  1903               	btfsc	3,2
   864     121A  0AFE               	incf	btemp,f
   865     121B  2A0D               	goto	init_ram0
   866                           
   867                           	psect	clrtext
   868     08D0                     clear_ram0:	
   869                           ;	Called with FSR containing the base address, and
   870                           ;	W with the last address+1
   871                           
   872     08D0  0064               	clrwdt	;clear the watchdog before getting into this loop
   873     08D1                     clrloop0:
   874     08D1  0180               	clrf	0	;clear RAM location pointed to by FSR
   875     08D2  0A84               	incf	4,f	;increment pointer
   876     08D3  0604               	xorwf	4,w	;XOR with final address
   877     08D4  1903               	btfsc	3,2	;have we reached the end yet?
   878     08D5  3400               	retlw	0	;all done for this memory range, return
   879     08D6  0604               	xorwf	4,w	;XOR again to restore value
   880     08D7  28D1               	goto	clrloop0	;do the next byte
   881                           
   882                           	psect	cstackBANK1
   883     00A0                     __pcstackBANK1:
   884     00A0                     ?_eval_poly:
   885     00A0                     eval_poly@x:	
   886                           ; 4 bytes @ 0x0
   887                           
   888                           
   889                           ; 4 bytes @ 0x0
   890     00A0                     	ds	4
   891     00A4                     eval_poly@d:
   892                           
   893                           ; 1 bytes @ 0x4
   894     00A4                     	ds	1
   895     00A5                     eval_poly@n:
   896                           
   897                           ; 2 bytes @ 0x5
   898     00A5                     	ds	2
   899     00A7                     ??_eval_poly:
   900                           
   901                           ; 1 bytes @ 0x7
   902     00A7                     	ds	5
   903     00AC                     eval_poly@res:
   904                           
   905                           ; 4 bytes @ 0xC
   906     00AC                     	ds	4
   907     00B0                     ?_log:
   908     00B0                     log@x:	
   909                           ; 4 bytes @ 0x10
   910                           
   911                           
   912                           ; 4 bytes @ 0x10
   913     00B0                     	ds	4
   914     00B4                     ?_convertir_temperature:
   915     00B4                     convertir_temperature@temperature:	
   916                           ; 2 bytes @ 0x14
   917                           
   918                           
   919                           ; 2 bytes @ 0x14
   920     00B4                     	ds	2
   921     00B6                     ??_convertir_temperature:
   922                           
   923                           ; 1 bytes @ 0x16
   924     00B6                     	ds	2
   925     00B8                     convertir_temperature@a:
   926                           
   927                           ; 4 bytes @ 0x18
   928     00B8                     	ds	4
   929     00BC                     _convertir_temperature$1043:
   930                           
   931                           ; 4 bytes @ 0x1C
   932     00BC                     	ds	4
   933     00C0                     _convertir_temperature$1044:
   934                           
   935                           ; 4 bytes @ 0x20
   936     00C0                     	ds	4
   937     00C4                     _convertir_temperature$1045:
   938                           
   939                           ; 4 bytes @ 0x24
   940     00C4                     	ds	4
   941     00C8                     convertir_temperature@tempC:
   942                           
   943                           ; 4 bytes @ 0x28
   944     00C8                     	ds	4
   945     00CC                     ??_function_monitoreo_ambiental:
   946                           
   947                           ; 1 bytes @ 0x2C
   948     00CC                     	ds	3
   949     00CF                     function_monitoreo_ambiental@value_potenciometro:
   950                           
   951                           ; 2 bytes @ 0x2F
   952     00CF                     	ds	2
   953     00D1                     function_monitoreo_ambiental@tempcelsius:
   954                           
   955                           ; 2 bytes @ 0x31
   956     00D1                     	ds	2
   957     00D3                     function_monitoreo_ambiental@value_temperature:
   958                           
   959                           ; 2 bytes @ 0x33
   960     00D3                     	ds	2
   961     00D5                     ??_main:
   962                           
   963                           ; 1 bytes @ 0x35
   964     00D5                     	ds	3
   965                           
   966                           	psect	cstackCOMMON
   967     0070                     __pcstackCOMMON:
   968     0070                     ?___fleq:
   969     0070                     ?___flge:	
   970                           ; 1 bit 
   971                           
   972     0070                     ?_LCD_Command:	
   973                           ; 1 bit 
   974                           
   975     0070                     ??_LCD_Command:	
   976                           ; 1 bytes @ 0x0
   977                           
   978     0070                     ?_adc_begin:	
   979                           ; 1 bytes @ 0x0
   980                           
   981     0070                     ??_adc_begin:	
   982                           ; 1 bytes @ 0x0
   983                           
   984     0070                     ?_function_seguridad:	
   985                           ; 1 bytes @ 0x0
   986                           
   987     0070                     ?_function_monitoreo_digital:	
   988                           ; 1 bytes @ 0x0
   989                           
   990     0070                     ?_function_bloqueado:	
   991                           ; 1 bytes @ 0x0
   992                           
   993     0070                     ?_function_alarma_seguridad:	
   994                           ; 1 bytes @ 0x0
   995                           
   996     0070                     ?_function_monitoreo_ambiental:	
   997                           ; 1 bytes @ 0x0
   998                           
   999     0070                     ?_function_alarma_ambiental:	
  1000                           ; 1 bytes @ 0x0
  1001                           
  1002     0070                     ?_monitoring_sensor:	
  1003                           ; 1 bytes @ 0x0
  1004                           
  1005     0070                     ??_monitoring_sensor:	
  1006                           ; 1 bytes @ 0x0
  1007                           
  1008     0070                     ?_blink_led:	
  1009                           ; 1 bytes @ 0x0
  1010                           
  1011     0070                     ??_blink_led:	
  1012                           ; 1 bytes @ 0x0
  1013                           
  1014     0070                     ?_LCD_Init:	
  1015                           ; 1 bytes @ 0x0
  1016                           
  1017     0070                     ?_LCD_Char:	
  1018                           ; 1 bytes @ 0x0
  1019                           
  1020     0070                     ??_LCD_Char:	
  1021                           ; 1 bytes @ 0x0
  1022                           
  1023     0070                     ?_LCD_Clear:	
  1024                           ; 1 bytes @ 0x0
  1025                           
  1026     0070                     ?_keypad_init:	
  1027                           ; 1 bytes @ 0x0
  1028                           
  1029     0070                     ??_keypad_init:	
  1030                           ; 1 bytes @ 0x0
  1031                           
  1032     0070                     ?_keypad_getkey:	
  1033                           ; 1 bytes @ 0x0
  1034                           
  1035     0070                     ??_keypad_getkey:	
  1036                           ; 1 bytes @ 0x0
  1037                           
  1038     0070                     ?_main:	
  1039                           ; 1 bytes @ 0x0
  1040                           
  1041     0070                     ?_adc_conversion:	
  1042                           ; 1 bytes @ 0x0
  1043                           
  1044     0070                     ?_strncmp:	
  1045                           ; 2 bytes @ 0x0
  1046                           
  1047     0070                     ?__Umul8_16:	
  1048                           ; 2 bytes @ 0x0
  1049                           
  1050     0070                     ?___lwdiv:	
  1051                           ; 2 bytes @ 0x0
  1052                           
  1053     0070                     ?___fltol:	
  1054                           ; 2 bytes @ 0x0
  1055                           
  1056     0070                     ?___xxtofl:	
  1057                           ; 4 bytes @ 0x0
  1058                           
  1059     0070                     monitoring_sensor@alarm_activ:	
  1060                           ; 4 bytes @ 0x0
  1061                           
  1062     0070                     __Umul8_16@multiplicand:	
  1063                           ; 1 bytes @ 0x0
  1064                           
  1065     0070                     strncmp@s2:	
  1066                           ; 1 bytes @ 0x0
  1067                           
  1068     0070                     adc_conversion@channel:	
  1069                           ; 1 bytes @ 0x0
  1070                           
  1071     0070                     ___lwdiv@divisor:	
  1072                           ; 2 bytes @ 0x0
  1073                           
  1074     0070                     ___fleq@ff1:	
  1075                           ; 2 bytes @ 0x0
  1076                           
  1077     0070                     ___flge@ff1:	
  1078                           ; 4 bytes @ 0x0
  1079                           
  1080     0070                     ___fltol@f1:	
  1081                           ; 4 bytes @ 0x0
  1082                           
  1083     0070                     ___xxtofl@val:	
  1084                           ; 4 bytes @ 0x0
  1085                           
  1086                           
  1087                           ; 4 bytes @ 0x0
  1088     0070                     	ds	1
  1089     0071                     strncmp@len:
  1090                           
  1091                           ; 2 bytes @ 0x1
  1092     0071                     	ds	1
  1093     0072                     ??_adc_conversion:
  1094     0072                     ??__Umul8_16:	
  1095                           ; 1 bytes @ 0x2
  1096                           
  1097     0072                     LCD_Command@cmd:	
  1098                           ; 1 bytes @ 0x2
  1099                           
  1100     0072                     LCD_Char@dat:	
  1101                           ; 1 bytes @ 0x2
  1102                           
  1103     0072                     ___lwdiv@dividend:	
  1104                           ; 1 bytes @ 0x2
  1105                           
  1106                           
  1107                           ; 2 bytes @ 0x2
  1108     0072                     	ds	1
  1109     0073                     ??_strncmp:
  1110     0073                     ??_LCD_Init:	
  1111                           ; 1 bytes @ 0x3
  1112                           
  1113     0073                     ?_LCD_String:	
  1114                           ; 1 bytes @ 0x3
  1115                           
  1116     0073                     ??_LCD_Clear:	
  1117                           ; 1 bytes @ 0x3
  1118                           
  1119     0073                     LCD_String@msg:	
  1120                           ; 1 bytes @ 0x3
  1121                           
  1122                           
  1123                           ; 2 bytes @ 0x3
  1124     0073                     	ds	1
  1125     0074                     ??___fltol:
  1126     0074                     ??___lwdiv:	
  1127                           ; 1 bytes @ 0x4
  1128                           
  1129     0074                     ??___xxtofl:	
  1130                           ; 1 bytes @ 0x4
  1131                           
  1132     0074                     ___lwdiv@quotient:	
  1133                           ; 1 bytes @ 0x4
  1134                           
  1135     0074                     __Umul8_16@product:	
  1136                           ; 2 bytes @ 0x4
  1137                           
  1138     0074                     ___fleq@ff2:	
  1139                           ; 2 bytes @ 0x4
  1140                           
  1141     0074                     ___flge@ff2:	
  1142                           ; 4 bytes @ 0x4
  1143                           
  1144                           
  1145                           ; 4 bytes @ 0x4
  1146     0074                     	ds	1
  1147     0075                     ??_LCD_String:
  1148     0075                     ?_LCD_String_xy:	
  1149                           ; 1 bytes @ 0x5
  1150                           
  1151     0075                     LCD_String_xy@pos:	
  1152                           ; 1 bytes @ 0x5
  1153                           
  1154     0075                     strncmp@s1:	
  1155                           ; 1 bytes @ 0x5
  1156                           
  1157                           
  1158                           ; 1 bytes @ 0x5
  1159     0075                     	ds	1
  1160     0076                     ___lwdiv@counter:
  1161     0076                     LCD_String_xy@msg:	
  1162                           ; 1 bytes @ 0x6
  1163                           
  1164     0076                     __Umul8_16@word_mpld:	
  1165                           ; 2 bytes @ 0x6
  1166                           
  1167                           
  1168                           ; 2 bytes @ 0x6
  1169     0076                     	ds	1
  1170     0077                     ?___lwmod:
  1171     0077                     ___lwmod@divisor:	
  1172                           ; 2 bytes @ 0x7
  1173                           
  1174                           
  1175                           ; 2 bytes @ 0x7
  1176     0077                     	ds	1
  1177     0078                     ??_LCD_String_xy:
  1178     0078                     ??___fleq:	
  1179                           ; 1 bytes @ 0x8
  1180                           
  1181     0078                     ??___flge:	
  1182                           ; 1 bytes @ 0x8
  1183                           
  1184     0078                     LCD_String_xy@row:	
  1185                           ; 1 bytes @ 0x8
  1186                           
  1187     0078                     ___fltol@sign1:	
  1188                           ; 1 bytes @ 0x8
  1189                           
  1190     0078                     __Umul8_16@multiplier:	
  1191                           ; 1 bytes @ 0x8
  1192                           
  1193     0078                     ___xxtofl@sign:	
  1194                           ; 1 bytes @ 0x8
  1195                           
  1196                           
  1197                           ; 1 bytes @ 0x8
  1198     0078                     	ds	1
  1199     0079                     LCD_String_xy@location:
  1200     0079                     ___fltol@exp1:	
  1201                           ; 1 bytes @ 0x9
  1202                           
  1203     0079                     ___xxtofl@exp:	
  1204                           ; 1 bytes @ 0x9
  1205                           
  1206     0079                     ___lwmod@dividend:	
  1207                           ; 1 bytes @ 0x9
  1208                           
  1209                           
  1210                           ; 2 bytes @ 0x9
  1211     0079                     	ds	1
  1212     007A                     ??_function_seguridad:
  1213     007A                     ??_function_bloqueado:	
  1214                           ; 1 bytes @ 0xA
  1215                           
  1216     007A                     ??_function_alarma_seguridad:	
  1217                           ; 1 bytes @ 0xA
  1218                           
  1219     007A                     ??_function_alarma_ambiental:	
  1220                           ; 1 bytes @ 0xA
  1221                           
  1222     007A                     ___xxtofl@arg:	
  1223                           ; 1 bytes @ 0xA
  1224                           
  1225                           
  1226                           ; 4 bytes @ 0xA
  1227     007A                     	ds	1
  1228     007B                     ??___lwmod:
  1229     007B                     ___lwmod@counter:	
  1230                           ; 1 bytes @ 0xB
  1231                           
  1232                           
  1233                           ; 1 bytes @ 0xB
  1234     007B                     	ds	1
  1235     007C                     ??_frexp:
  1236                           
  1237                           ; 1 bytes @ 0xC
  1238     007C                     	ds	1
  1239     007D                     function_seguridad@key:
  1240                           
  1241                           ; 1 bytes @ 0xD
  1242     007D                     	ds	1
  1243     007E                     ??_log:
  1244                           
  1245                           	psect	cstackBANK0
  1246     0020                     __pcstackBANK0:	
  1247                           ; 1 bytes @ 0xE
  1248                           
  1249     0020                     ?_sprintf:
  1250     0020                     ?_frexp:	
  1251                           ; 2 bytes @ 0x0
  1252                           
  1253     0020                     sprintf@f:	
  1254                           ; 4 bytes @ 0x0
  1255                           
  1256     0020                     frexp@value:	
  1257                           ; 1 bytes @ 0x0
  1258                           
  1259     0020                     keypad_getkey@letras:	
  1260                           ; 4 bytes @ 0x0
  1261                           
  1262                           
  1263                           ; 16 bytes @ 0x0
  1264     0020                     	ds	4
  1265     0024                     frexp@eptr:
  1266                           
  1267                           ; 1 bytes @ 0x4
  1268     0024                     	ds	1
  1269     0025                     ?___flmul:
  1270     0025                     ___flmul@b:	
  1271                           ; 4 bytes @ 0x5
  1272                           
  1273                           
  1274                           ; 4 bytes @ 0x5
  1275     0025                     	ds	2
  1276     0027                     ??_sprintf:
  1277                           
  1278                           ; 1 bytes @ 0x7
  1279     0027                     	ds	2
  1280     0029                     ___flmul@a:
  1281                           
  1282                           ; 4 bytes @ 0x9
  1283     0029                     	ds	1
  1284     002A                     sprintf@ap:
  1285                           
  1286                           ; 1 bytes @ 0xA
  1287     002A                     	ds	1
  1288     002B                     sprintf@flag:
  1289                           
  1290                           ; 1 bytes @ 0xB
  1291     002B                     	ds	1
  1292     002C                     sprintf@ccnt:
  1293                           
  1294                           ; 2 bytes @ 0xC
  1295     002C                     	ds	1
  1296     002D                     ??___flmul:
  1297                           
  1298                           ; 1 bytes @ 0xD
  1299     002D                     	ds	1
  1300     002E                     sprintf@prec:
  1301                           
  1302                           ; 1 bytes @ 0xE
  1303     002E                     	ds	1
  1304     002F                     sprintf@val:
  1305                           
  1306                           ; 2 bytes @ 0xF
  1307     002F                     	ds	1
  1308     0030                     keypad_getkey@valor:
  1309                           
  1310                           ; 1 bytes @ 0x10
  1311     0030                     	ds	1
  1312     0031                     sprintf@sp:
  1313     0031                     keypad_getkey@i:	
  1314                           ; 1 bytes @ 0x11
  1315                           
  1316                           
  1317                           ; 2 bytes @ 0x11
  1318     0031                     	ds	1
  1319     0032                     sprintf@c:
  1320     0032                     ___flmul@sign:	
  1321                           ; 1 bytes @ 0x12
  1322                           
  1323                           
  1324                           ; 1 bytes @ 0x12
  1325     0032                     	ds	1
  1326     0033                     ??_function_monitoreo_digital:
  1327     0033                     ___flmul@aexp:	
  1328                           ; 1 bytes @ 0x13
  1329                           
  1330                           
  1331                           ; 1 bytes @ 0x13
  1332     0033                     	ds	1
  1333     0034                     ___flmul@grs:
  1334                           
  1335                           ; 4 bytes @ 0x14
  1336     0034                     	ds	4
  1337     0038                     ___flmul@bexp:
  1338                           
  1339                           ; 1 bytes @ 0x18
  1340     0038                     	ds	1
  1341     0039                     ___flmul@prod:
  1342                           
  1343                           ; 4 bytes @ 0x19
  1344     0039                     	ds	4
  1345     003D                     ___flmul@temp:
  1346                           
  1347                           ; 2 bytes @ 0x1D
  1348     003D                     	ds	2
  1349     003F                     ?___fldiv:
  1350     003F                     ___fldiv@a:	
  1351                           ; 4 bytes @ 0x1F
  1352                           
  1353                           
  1354                           ; 4 bytes @ 0x1F
  1355     003F                     	ds	4
  1356     0043                     ___fldiv@b:
  1357                           
  1358                           ; 4 bytes @ 0x23
  1359     0043                     	ds	4
  1360     0047                     ??___fldiv:
  1361                           
  1362                           ; 1 bytes @ 0x27
  1363     0047                     	ds	5
  1364     004C                     ___fldiv@rem:
  1365                           
  1366                           ; 4 bytes @ 0x2C
  1367     004C                     	ds	4
  1368     0050                     ___fldiv@sign:
  1369                           
  1370                           ; 1 bytes @ 0x30
  1371     0050                     	ds	1
  1372     0051                     ___fldiv@new_exp:
  1373                           
  1374                           ; 2 bytes @ 0x31
  1375     0051                     	ds	2
  1376     0053                     ___fldiv@grs:
  1377                           
  1378                           ; 4 bytes @ 0x33
  1379     0053                     	ds	4
  1380     0057                     ___fldiv@bexp:
  1381                           
  1382                           ; 1 bytes @ 0x37
  1383     0057                     	ds	1
  1384     0058                     ___fldiv@aexp:
  1385                           
  1386                           ; 1 bytes @ 0x38
  1387     0058                     	ds	1
  1388     0059                     ?___fladd:
  1389     0059                     ___fladd@b:	
  1390                           ; 4 bytes @ 0x39
  1391                           
  1392                           
  1393                           ; 4 bytes @ 0x39
  1394     0059                     	ds	4
  1395     005D                     ___fladd@a:
  1396                           
  1397                           ; 4 bytes @ 0x3D
  1398     005D                     	ds	4
  1399     0061                     ??___fladd:
  1400                           
  1401                           ; 1 bytes @ 0x41
  1402     0061                     	ds	8
  1403     0069                     ___fladd@signs:
  1404                           
  1405                           ; 1 bytes @ 0x49
  1406     0069                     	ds	1
  1407     006A                     ___fladd@aexp:
  1408                           
  1409                           ; 1 bytes @ 0x4A
  1410     006A                     	ds	1
  1411     006B                     ___fladd@bexp:
  1412                           
  1413                           ; 1 bytes @ 0x4B
  1414     006B                     	ds	1
  1415     006C                     ___fladd@grs:
  1416                           
  1417                           ; 1 bytes @ 0x4C
  1418     006C                     	ds	1
  1419     006D                     log@exponent:
  1420                           
  1421                           ; 2 bytes @ 0x4D
  1422     006D                     	ds	2
  1423                           
  1424                           	psect	maintext
  1425     0B5B                     __pmaintext:	
  1426 ;;
  1427 ;;Main: autosize = 0, tempsize = 3, incstack = 0, save=0
  1428 ;;
  1429 ;; *************** function _main *****************
  1430 ;; Defined at:
  1431 ;;		line 93 in file "mainseguridad.c"
  1432 ;; Parameters:    Size  Location     Type
  1433 ;;		None
  1434 ;; Auto vars:     Size  Location     Type
  1435 ;;		None
  1436 ;; Return value:  Size  Location     Type
  1437 ;;                  1    wreg      void 
  1438 ;; Registers used:
  1439 ;;		wreg, fsr0l, fsr0h, status,2, status,0, btemp+1, pclath, cstack
  1440 ;; Tracked objects:
  1441 ;;		On entry : B00/0
  1442 ;;		On exit  : 0/0
  1443 ;;		Unchanged: 0/0
  1444 ;; Data sizes:     COMMON   BANK0   BANK1   BANK3   BANK2
  1445 ;;      Params:         0       0       0       0       0
  1446 ;;      Locals:         0       0       0       0       0
  1447 ;;      Temps:          0       0       3       0       0
  1448 ;;      Totals:         0       0       3       0       0
  1449 ;;Total ram usage:        3 bytes
  1450 ;; Hardware stack levels required when called: 6
  1451 ;; This function calls:
  1452 ;;		_LCD_Init
  1453 ;;		_LCD_String_xy
  1454 ;;		_adc_begin
  1455 ;;		_function_alarma_ambiental
  1456 ;;		_function_alarma_seguridad
  1457 ;;		_function_bloqueado
  1458 ;;		_function_monitoreo_ambiental
  1459 ;;		_function_monitoreo_digital
  1460 ;;		_function_seguridad
  1461 ;;		_keypad_init
  1462 ;; This function is called by:
  1463 ;;		Startup code after reset
  1464 ;; This function uses a non-reentrant model
  1465 ;;
  1466                           
  1467     0B5B                     _main:	
  1468                           ;psect for function _main
  1469                           
  1470     0B5B                     l4051:	
  1471                           ;incstack = 0
  1472                           ; Regs used in _main: [wreg-fsr0h+status,2+status,0+btemp+1+pclath+cstack]
  1473                           
  1474                           
  1475                           ;mainseguridad.c: 95:     TRISD = 0x00;
  1476     0B5B  1683               	bsf	3,5	;RP0=1, select bank1
  1477     0B5C  1303               	bcf	3,6	;RP1=0, select bank1
  1478     0B5D  0188               	clrf	8	;volatile
  1479     0B5E                     l4053:
  1480                           
  1481                           ;mainseguridad.c: 96:     TRISA = 0x23;
  1482     0B5E  3023               	movlw	35
  1483     0B5F  0085               	movwf	5	;volatile
  1484     0B60                     l4055:
  1485                           
  1486                           ;mainseguridad.c: 97:     ANSEL = 0x13;
  1487     0B60  3013               	movlw	19
  1488     0B61  1683               	bsf	3,5	;RP0=1, select bank3
  1489     0B62  1703               	bsf	3,6	;RP1=1, select bank3
  1490     0B63  0088               	movwf	8	;volatile
  1491                           
  1492                           ;mainseguridad.c: 99:     TRISE = 0;
  1493     0B64  1683               	bsf	3,5	;RP0=1, select bank1
  1494     0B65  1303               	bcf	3,6	;RP1=0, select bank1
  1495     0B66  0189               	clrf	9	;volatile
  1496                           
  1497                           ;mainseguridad.c: 100:     PORTE = 0x00;
  1498     0B67  1283               	bcf	3,5	;RP0=0, select bank0
  1499     0B68  1303               	bcf	3,6	;RP1=0, select bank0
  1500     0B69  0189               	clrf	9	;volatile
  1501     0B6A                     l4057:
  1502                           
  1503                           ;mainseguridad.c: 101:     OSCCON = 0x71;
  1504     0B6A  3071               	movlw	113
  1505     0B6B  1683               	bsf	3,5	;RP0=1, select bank1
  1506     0B6C  1303               	bcf	3,6	;RP1=0, select bank1
  1507     0B6D  008F               	movwf	15	;volatile
  1508     0B6E                     l4059:
  1509                           
  1510                           ;mainseguridad.c: 103:     LCD_Init();
  1511     0B6E  160A  118A  22EA  120A  158A  	fcall	_LCD_Init
  1512     0B73                     l4061:
  1513                           
  1514                           ;mainseguridad.c: 105:     keypad_init();
  1515     0B73  160A  118A  21DA  120A  158A  	fcall	_keypad_init
  1516     0B78                     l4063:
  1517                           
  1518                           ;mainseguridad.c: 106:     TRISC = 0x07;
  1519     0B78  3007               	movlw	7
  1520     0B79  1683               	bsf	3,5	;RP0=1, select bank1
  1521     0B7A  1303               	bcf	3,6	;RP1=0, select bank1
  1522     0B7B  0087               	movwf	7	;volatile
  1523     0B7C                     l4065:
  1524                           
  1525                           ;mainseguridad.c: 108:     adc_begin();
  1526     0B7C  120A  118A  2003  120A  158A  	fcall	_adc_begin
  1527     0B81                     l4067:
  1528                           
  1529                           ;mainseguridad.c: 110:     var_sensor_ir = RC1;
  1530     0B81  3000               	movlw	0
  1531     0B82  1283               	bcf	3,5	;RP0=0, select bank0
  1532     0B83  1303               	bcf	3,6	;RP1=0, select bank0
  1533     0B84  1887               	btfsc	7,1	;volatile
  1534     0B85  3001               	movlw	1
  1535     0B86  1683               	bsf	3,5	;RP0=1, select bank1
  1536     0B87  1303               	bcf	3,6	;RP1=0, select bank1
  1537     0B88  00E3               	movwf	_var_sensor_ir^(0+128)
  1538     0B89                     l4069:
  1539                           
  1540                           ;mainseguridad.c: 111:     var_sensor_hall = RC0;
  1541     0B89  3000               	movlw	0
  1542     0B8A  1283               	bcf	3,5	;RP0=0, select bank0
  1543     0B8B  1303               	bcf	3,6	;RP1=0, select bank0
  1544     0B8C  1807               	btfsc	7,0	;volatile
  1545     0B8D  3001               	movlw	1
  1546     0B8E  1683               	bsf	3,5	;RP0=1, select bank1
  1547     0B8F  1303               	bcf	3,6	;RP1=0, select bank1
  1548     0B90  00E2               	movwf	_var_sensor_hall^(0+128)
  1549     0B91                     l4071:
  1550                           
  1551                           ;mainseguridad.c: 112:     var_sensor_metal = RC2;
  1552     0B91  3000               	movlw	0
  1553     0B92  1283               	bcf	3,5	;RP0=0, select bank0
  1554     0B93  1303               	bcf	3,6	;RP1=0, select bank0
  1555     0B94  1907               	btfsc	7,2	;volatile
  1556     0B95  3001               	movlw	1
  1557     0B96  1683               	bsf	3,5	;RP0=1, select bank1
  1558     0B97  1303               	bcf	3,6	;RP1=0, select bank1
  1559     0B98  00E1               	movwf	_var_sensor_metal^(0+128)
  1560     0B99                     l4073:
  1561                           
  1562                           ;mainseguridad.c: 114:     value_potenciometro = RA0;
  1563     0B99  1003               	clrc
  1564     0B9A  1283               	bcf	3,5	;RP0=0, select bank0
  1565     0B9B  1303               	bcf	3,6	;RP1=0, select bank0
  1566     0B9C  1805               	btfsc	5,0	;volatile
  1567     0B9D  1403               	setc
  1568     0B9E  3000               	movlw	0
  1569     0B9F  1803               	skipnc
  1570     0BA0  3001               	movlw	1
  1571     0BA1  1683               	bsf	3,5	;RP0=1, select bank1
  1572     0BA2  1303               	bcf	3,6	;RP1=0, select bank1
  1573     0BA3  00D5               	movwf	??_main^(0+128)
  1574     0BA4  01D6               	clrf	(??_main^(0+128)+1)
  1575     0BA5  0855               	movf	??_main^(0+128),w
  1576     0BA6  00DE               	movwf	_value_potenciometro^(0+128)
  1577     0BA7  0856               	movf	(??_main+1)^(0+128),w
  1578     0BA8  00DF               	movwf	(_value_potenciometro+1)^(0+128)
  1579     0BA9                     l4075:
  1580                           
  1581                           ;mainseguridad.c: 115:     value_temperature = RA1;
  1582     0BA9  1003               	clrc
  1583     0BAA  1283               	bcf	3,5	;RP0=0, select bank0
  1584     0BAB  1303               	bcf	3,6	;RP1=0, select bank0
  1585     0BAC  1885               	btfsc	5,1	;volatile
  1586     0BAD  1403               	setc
  1587     0BAE  3000               	movlw	0
  1588     0BAF  1803               	skipnc
  1589     0BB0  3001               	movlw	1
  1590     0BB1  1683               	bsf	3,5	;RP0=1, select bank1
  1591     0BB2  1303               	bcf	3,6	;RP1=0, select bank1
  1592     0BB3  00D5               	movwf	??_main^(0+128)
  1593     0BB4  01D6               	clrf	(??_main^(0+128)+1)
  1594     0BB5  0855               	movf	??_main^(0+128),w
  1595     0BB6  00DC               	movwf	_value_temperature^(0+128)
  1596     0BB7  0856               	movf	(??_main+1)^(0+128),w
  1597     0BB8  00DD               	movwf	(_value_temperature+1)^(0+128)
  1598     0BB9                     l4077:
  1599                           
  1600                           ;mainseguridad.c: 116:     value_fotocelda = RA5;
  1601     0BB9  1003               	clrc
  1602     0BBA  1283               	bcf	3,5	;RP0=0, select bank0
  1603     0BBB  1303               	bcf	3,6	;RP1=0, select bank0
  1604     0BBC  1A85               	btfsc	5,5	;volatile
  1605     0BBD  1403               	setc
  1606     0BBE  3000               	movlw	0
  1607     0BBF  1803               	skipnc
  1608     0BC0  3001               	movlw	1
  1609     0BC1  1683               	bsf	3,5	;RP0=1, select bank1
  1610     0BC2  1303               	bcf	3,6	;RP1=0, select bank1
  1611     0BC3  00D5               	movwf	??_main^(0+128)
  1612     0BC4  01D6               	clrf	(??_main^(0+128)+1)
  1613     0BC5  0855               	movf	??_main^(0+128),w
  1614     0BC6  00DA               	movwf	_value_fotocelda^(0+128)
  1615     0BC7  0856               	movf	(??_main+1)^(0+128),w
  1616     0BC8  00DB               	movwf	(_value_fotocelda+1)^(0+128)
  1617     0BC9                     l4079:
  1618                           
  1619                           ;mainseguridad.c: 118:     LCD_String_xy(0,0,"Casa");
  1620     0BC9  01F5               	clrf	LCD_String_xy@pos
  1621     0BCA  30B7               	movlw	(low ((STR_1-__stringbase)| (0+32768)))& (0+255)
  1622     0BCB  00F6               	movwf	LCD_String_xy@msg
  1623     0BCC  3080               	movlw	128
  1624     0BCD  00F7               	movwf	LCD_String_xy@msg+1
  1625     0BCE  3000               	movlw	0
  1626     0BCF  160A  118A  229D  120A  158A  	fcall	_LCD_String_xy
  1627     0BD4                     l4081:
  1628                           
  1629                           ;mainseguridad.c: 119:     LCD_String_xy(2,0,"Inteligente");
  1630     0BD4  01F5               	clrf	LCD_String_xy@pos
  1631     0BD5  3074               	movlw	(low ((STR_2-__stringbase)| (0+32768)))& (0+255)
  1632     0BD6  00F6               	movwf	LCD_String_xy@msg
  1633     0BD7  3080               	movlw	128
  1634     0BD8  00F7               	movwf	LCD_String_xy@msg+1
  1635     0BD9  3002               	movlw	2
  1636     0BDA  160A  118A  229D  120A  158A  	fcall	_LCD_String_xy
  1637     0BDF                     l4083:
  1638                           
  1639                           ;mainseguridad.c: 120:     _delay((unsigned long)((2000)*(8000000/4000.0)));
  1640     0BDF  3015               	movlw	21
  1641     0BE0  1683               	bsf	3,5	;RP0=1, select bank1
  1642     0BE1  1303               	bcf	3,6	;RP1=0, select bank1
  1643     0BE2  00D7               	movwf	(??_main^(0+128)+2)
  1644     0BE3  304B               	movlw	75
  1645     0BE4  00D6               	movwf	(??_main^(0+128)+1)
  1646     0BE5  30BD               	movlw	189
  1647     0BE6  00D5               	movwf	??_main^(0+128)
  1648     0BE7                     u5647:
  1649     0BE7  0BD5               	decfsz	??_main^(0+128),f
  1650     0BE8  2BE7               	goto	u5647
  1651     0BE9  0BD6               	decfsz	(??_main^(0+128)+1),f
  1652     0BEA  2BE7               	goto	u5647
  1653     0BEB  0BD7               	decfsz	(??_main^(0+128)+2),f
  1654     0BEC  2BE7               	goto	u5647
  1655     0BED  2BEE               	nop2
  1656     0BEE                     l4085:
  1657                           
  1658                           ;mainseguridad.c: 121:     estado = seguridad;
  1659     0BEE  1283               	bcf	3,5	;RP0=0, select bank0
  1660     0BEF  1303               	bcf	3,6	;RP1=0, select bank0
  1661     0BF0  01EF               	clrf	_estado
  1662     0BF1                     l4087:
  1663                           
  1664                           ;mainseguridad.c: 124:         if (estado == seguridad){
  1665     0BF1  1283               	bcf	3,5	;RP0=0, select bank0
  1666     0BF2  1303               	bcf	3,6	;RP1=0, select bank0
  1667     0BF3  086F               	movf	_estado,w
  1668     0BF4  1D03               	btfss	3,2
  1669     0BF5  2BF7               	goto	u5581
  1670     0BF6  2BF8               	goto	u5580
  1671     0BF7                     u5581:
  1672     0BF7  2BFE               	goto	l4091
  1673     0BF8                     u5580:
  1674     0BF8                     l4089:
  1675                           
  1676                           ;mainseguridad.c: 125:             function_seguridad();
  1677     0BF8  160A  118A  269D  120A  158A  	fcall	_function_seguridad
  1678                           
  1679                           ;mainseguridad.c: 126:         }
  1680     0BFD  2BF1               	goto	l4087
  1681     0BFE                     l4091:
  1682     0BFE  036F               	decf	_estado,w
  1683     0BFF  1D03               	btfss	3,2
  1684     0C00  2C02               	goto	u5591
  1685     0C01  2C03               	goto	u5590
  1686     0C02                     u5591:
  1687     0C02  2C09               	goto	l4095
  1688     0C03                     u5590:
  1689     0C03                     l4093:
  1690                           
  1691                           ;mainseguridad.c: 128:             function_monitoreo_digital();
  1692     0C03  120A  118A  200F  120A  158A  	fcall	_function_monitoreo_digital
  1693                           
  1694                           ;mainseguridad.c: 129:         }
  1695     0C08  2BF1               	goto	l4087
  1696     0C09                     l4095:
  1697     0C09  3003               	movlw	3
  1698     0C0A  066F               	xorwf	_estado,w
  1699     0C0B  1D03               	btfss	3,2
  1700     0C0C  2C0E               	goto	u5601
  1701     0C0D  2C0F               	goto	u5600
  1702     0C0E                     u5601:
  1703     0C0E  2C15               	goto	l4099
  1704     0C0F                     u5600:
  1705     0C0F                     l4097:
  1706                           
  1707                           ;mainseguridad.c: 131:             function_bloqueado();
  1708     0C0F  160A  118A  2378  120A  158A  	fcall	_function_bloqueado
  1709                           
  1710                           ;mainseguridad.c: 132:         }
  1711     0C14  2BF1               	goto	l4087
  1712     0C15                     l4099:
  1713     0C15  3004               	movlw	4
  1714     0C16  066F               	xorwf	_estado,w
  1715     0C17  1D03               	btfss	3,2
  1716     0C18  2C1A               	goto	u5611
  1717     0C19  2C1B               	goto	u5610
  1718     0C1A                     u5611:
  1719     0C1A  2C21               	goto	l4103
  1720     0C1B                     u5610:
  1721     0C1B                     l4101:
  1722                           
  1723                           ;mainseguridad.c: 134:             function_alarma_seguridad();
  1724     0C1B  160A  118A  2346  120A  158A  	fcall	_function_alarma_seguridad
  1725                           
  1726                           ;mainseguridad.c: 135:         }
  1727     0C20  2BF1               	goto	l4087
  1728     0C21                     l4103:
  1729     0C21  3002               	movlw	2
  1730     0C22  066F               	xorwf	_estado,w
  1731     0C23  1D03               	btfss	3,2
  1732     0C24  2C26               	goto	u5621
  1733     0C25  2C27               	goto	u5620
  1734     0C26                     u5621:
  1735     0C26  2C2D               	goto	l4107
  1736     0C27                     u5620:
  1737     0C27                     l4105:
  1738                           
  1739                           ;mainseguridad.c: 137:             function_monitoreo_ambiental();
  1740     0C27  120A  158A  20D8  120A  158A  	fcall	_function_monitoreo_ambiental
  1741                           
  1742                           ;mainseguridad.c: 138:         }
  1743     0C2C  2BF1               	goto	l4087
  1744     0C2D                     l4107:
  1745     0C2D  3005               	movlw	5
  1746     0C2E  066F               	xorwf	_estado,w
  1747     0C2F  1D03               	btfss	3,2
  1748     0C30  2C32               	goto	u5631
  1749     0C31  2C33               	goto	u5630
  1750     0C32                     u5631:
  1751     0C32  2C39               	goto	l222
  1752     0C33                     u5630:
  1753     0C33                     l4109:
  1754                           
  1755                           ;mainseguridad.c: 140:             function_alarma_ambiental();
  1756     0C33  160A  118A  2314  120A  158A  	fcall	_function_alarma_ambiental
  1757     0C38  2BF1               	goto	l4087
  1758     0C39                     l222:
  1759     0C39  2BF1               	goto	l4087
  1760     0C3A  120A  118A  2800   	ljmp	start
  1761     0C3D                     __end_of_main:
  1762                           
  1763                           	psect	text1
  1764     11DA                     __ptext1:	
  1765 ;; *************** function _keypad_init *****************
  1766 ;; Defined at:
  1767 ;;		line 38 in file "keypad.c"
  1768 ;; Parameters:    Size  Location     Type
  1769 ;;		None
  1770 ;; Auto vars:     Size  Location     Type
  1771 ;;		None
  1772 ;; Return value:  Size  Location     Type
  1773 ;;                  1    wreg      void 
  1774 ;; Registers used:
  1775 ;;		wreg, status,2, status,0, btemp+1
  1776 ;; Tracked objects:
  1777 ;;		On entry : 0/0
  1778 ;;		On exit  : 0/0
  1779 ;;		Unchanged: 0/0
  1780 ;; Data sizes:     COMMON   BANK0   BANK1   BANK3   BANK2
  1781 ;;      Params:         0       0       0       0       0
  1782 ;;      Locals:         0       0       0       0       0
  1783 ;;      Temps:          0       0       0       0       0
  1784 ;;      Totals:         0       0       0       0       0
  1785 ;;Total ram usage:        0 bytes
  1786 ;; Hardware stack levels used: 1
  1787 ;; This function calls:
  1788 ;;		Nothing
  1789 ;; This function is called by:
  1790 ;;		_main
  1791 ;; This function uses a non-reentrant model
  1792 ;;
  1793                           
  1794     11DA                     _keypad_init:	
  1795                           ;psect for function _keypad_init
  1796                           
  1797     11DA                     l3295:	
  1798                           ;incstack = 0
  1799                           ; Regs used in _keypad_init: [wreg+status,2+status,0+btemp+1]
  1800                           
  1801                           
  1802                           ;keypad.c: 40:     TRISB &= ~(1<<0) & ~(1<<1) & ~(1<<2) & ~(1<<3);
  1803     11DA  30F0               	movlw	240
  1804     11DB  00FF               	movwf	btemp+1
  1805     11DC  087F               	movf	btemp+1,w
  1806     11DD  1683               	bsf	3,5	;RP0=1, select bank1
  1807     11DE  1303               	bcf	3,6	;RP1=0, select bank1
  1808     11DF  0586               	andwf	6,f	;volatile
  1809                           
  1810                           ;keypad.c: 41:     TRISB |= (1<<4) | (1<<5) | (1<<6) | (1<<7);
  1811     11E0  30F0               	movlw	240
  1812     11E1  00FF               	movwf	btemp+1
  1813     11E2  087F               	movf	btemp+1,w
  1814     11E3  0486               	iorwf	6,f	;volatile
  1815     11E4                     l3297:
  1816                           
  1817                           ;keypad.c: 42:     OPTION_REGbits.nRBPU = 0;
  1818     11E4  1381               	bcf	1,7	;volatile
  1819     11E5                     l3299:
  1820                           
  1821                           ;keypad.c: 43:     ANSELH = 0;
  1822     11E5  1683               	bsf	3,5	;RP0=1, select bank3
  1823     11E6  1703               	bsf	3,6	;RP1=1, select bank3
  1824     11E7  0189               	clrf	9	;volatile
  1825     11E8                     l50:
  1826     11E8  0008               	return
  1827     11E9                     __end_of_keypad_init:
  1828                           
  1829                           	psect	text2
  1830     169D                     __ptext2:	
  1831 ;; *************** function _function_seguridad *****************
  1832 ;; Defined at:
  1833 ;;		line 231 in file "mainseguridad.c"
  1834 ;; Parameters:    Size  Location     Type
  1835 ;;		None
  1836 ;; Auto vars:     Size  Location     Type
  1837 ;;  key             1   13[COMMON] unsigned char 
  1838 ;; Return value:  Size  Location     Type
  1839 ;;                  1    wreg      void 
  1840 ;; Registers used:
  1841 ;;		wreg, fsr0l, fsr0h, status,2, status,0, btemp+1, pclath, cstack
  1842 ;; Tracked objects:
  1843 ;;		On entry : 0/0
  1844 ;;		On exit  : 0/0
  1845 ;;		Unchanged: 0/0
  1846 ;; Data sizes:     COMMON   BANK0   BANK1   BANK3   BANK2
  1847 ;;      Params:         0       0       0       0       0
  1848 ;;      Locals:         1       0       0       0       0
  1849 ;;      Temps:          3       0       0       0       0
  1850 ;;      Totals:         4       0       0       0       0
  1851 ;;Total ram usage:        4 bytes
  1852 ;; Hardware stack levels used: 1
  1853 ;; Hardware stack levels required when called: 3
  1854 ;; This function calls:
  1855 ;;		_LCD_Char
  1856 ;;		_LCD_Clear
  1857 ;;		_LCD_Command
  1858 ;;		_LCD_String_xy
  1859 ;;		_keypad_getkey
  1860 ;;		_strncmp
  1861 ;; This function is called by:
  1862 ;;		_main
  1863 ;; This function uses a non-reentrant model
  1864 ;;
  1865                           
  1866     169D                     _function_seguridad:	
  1867                           ;psect for function _function_seguridad
  1868                           
  1869     169D                     l3305:	
  1870                           ;incstack = 0
  1871                           ; Regs used in _function_seguridad: [wreg-fsr0h+status,2+status,0+btemp+1+pclath+cstack]
  1872                           
  1873     169D                     l3307:
  1874                           
  1875                           ;mainseguridad.c: 233:     LCD_Clear();
  1876     169D  160A  118A  21E9  160A  118A  	fcall	_LCD_Clear
  1877     16A2                     l3309:
  1878                           
  1879                           ;mainseguridad.c: 234:     PORTE = 0x06;
  1880     16A2  3006               	movlw	6
  1881     16A3  1283               	bcf	3,5	;RP0=0, select bank0
  1882     16A4  1303               	bcf	3,6	;RP1=0, select bank0
  1883     16A5  0089               	movwf	9	;volatile
  1884     16A6                     l3311:
  1885                           
  1886                           ;mainseguridad.c: 236:         LCD_String_xy(0,0,"Ingrese clave");
  1887     16A6  01F5               	clrf	LCD_String_xy@pos
  1888     16A7  3066               	movlw	(low ((STR_6-__stringbase)| (0+32768)))& (0+255)
  1889     16A8  00F6               	movwf	LCD_String_xy@msg
  1890     16A9  3080               	movlw	128
  1891     16AA  00F7               	movwf	LCD_String_xy@msg+1
  1892     16AB  3000               	movlw	0
  1893     16AC  160A  118A  229D  160A  118A  	fcall	_LCD_String_xy
  1894     16B1                     l3313:
  1895                           
  1896                           ;mainseguridad.c: 237:         LCD_Command(0xC0);
  1897     16B1  30C0               	movlw	192
  1898     16B2  160A  118A  23AB  160A  118A  	fcall	_LCD_Command
  1899     16B7                     l243:	
  1900                           ;mainseguridad.c: 238:         do{
  1901                           
  1902                           
  1903                           ;mainseguridad.c: 239:             key = keypad_getkey();
  1904     16B7  120A  158A  2279  160A  118A  	fcall	_keypad_getkey
  1905     16BC  00FD               	movwf	function_seguridad@key
  1906     16BD                     l3315:
  1907                           
  1908                           ;mainseguridad.c: 240:             if(key != 0){
  1909     16BD  087D               	movf	function_seguridad@key,w
  1910     16BE  1903               	btfsc	3,2
  1911     16BF  2EC1               	goto	u4291
  1912     16C0  2EC2               	goto	u4290
  1913     16C1                     u4291:
  1914     16C1  2ED4               	goto	l3323
  1915     16C2                     u4290:
  1916     16C2                     l3317:
  1917                           
  1918                           ;mainseguridad.c: 241:                 LCD_Char('*');
  1919     16C2  302A               	movlw	42
  1920     16C3  160A  118A  23E1  160A  118A  	fcall	_LCD_Char
  1921     16C8                     l3319:
  1922                           
  1923                           ;mainseguridad.c: 243:                 pass_user[idx++] = key;
  1924     16C8  1683               	bsf	3,5	;RP0=1, select bank1
  1925     16C9  1303               	bcf	3,6	;RP1=0, select bank1
  1926     16CA  0864               	movf	_idx^(0+128),w
  1927     16CB  3EE5               	addlw	(low (_pass_user| 0))& (0+255)
  1928     16CC  0084               	movwf	4
  1929     16CD  087D               	movf	function_seguridad@key,w
  1930     16CE  1383               	bcf	3,7	;select IRP bank1
  1931     16CF  0080               	movwf	0
  1932     16D0                     l3321:
  1933     16D0  3001               	movlw	1
  1934     16D1  00FF               	movwf	btemp+1
  1935     16D2  087F               	movf	btemp+1,w
  1936     16D3  07E4               	addwf	_idx^(0+128),f
  1937     16D4                     l3323:
  1938                           
  1939                           ;mainseguridad.c: 245:             _delay((unsigned long)((100)*(8000000/4000.0)));
  1940     16D4  3002               	movlw	2
  1941     16D5  00FC               	movwf	??_function_seguridad+2
  1942     16D6  3004               	movlw	4
  1943     16D7  00FB               	movwf	??_function_seguridad+1
  1944     16D8  30BA               	movlw	186
  1945     16D9  00FA               	movwf	??_function_seguridad
  1946     16DA                     u5657:
  1947     16DA  0BFA               	decfsz	??_function_seguridad,f
  1948     16DB  2EDA               	goto	u5657
  1949     16DC  0BFB               	decfsz	??_function_seguridad+1,f
  1950     16DD  2EDA               	goto	u5657
  1951     16DE  0BFC               	decfsz	??_function_seguridad+2,f
  1952     16DF  2EDA               	goto	u5657
  1953     16E0  0000               	nop
  1954     16E1                     l3325:
  1955                           
  1956                           ;mainseguridad.c: 246:         }while(idx < 5);
  1957     16E1  3005               	movlw	5
  1958     16E2  1683               	bsf	3,5	;RP0=1, select bank1
  1959     16E3  1303               	bcf	3,6	;RP1=0, select bank1
  1960     16E4  0264               	subwf	_idx^(0+128),w
  1961     16E5  1C03               	skipc
  1962     16E6  2EE8               	goto	u4301
  1963     16E7  2EE9               	goto	u4300
  1964     16E8                     u4301:
  1965     16E8  2EB7               	goto	l243
  1966     16E9                     u4300:
  1967     16E9                     l3327:
  1968                           
  1969                           ;mainseguridad.c: 249:         if(strncmp(pass_user,password,4)==0){
  1970     16E9  302F               	movlw	(low ((_password-__stringbase)| (0+32768)))& (0+255)
  1971     16EA  00F0               	movwf	strncmp@s2
  1972     16EB  3004               	movlw	4
  1973     16EC  00F1               	movwf	strncmp@len
  1974     16ED  3000               	movlw	0
  1975     16EE  00F2               	movwf	strncmp@len+1
  1976     16EF  30E5               	movlw	(low (_pass_user| 0))& (0+255)
  1977     16F0  160A  118A  2495  160A  118A  	fcall	_strncmp
  1978     16F5  0870               	movf	?_strncmp,w
  1979     16F6  0471               	iorwf	?_strncmp+1,w
  1980     16F7  1D03               	btfss	3,2
  1981     16F8  2EFA               	goto	u4311
  1982     16F9  2EFB               	goto	u4310
  1983     16FA                     u4311:
  1984     16FA  2F12               	goto	l3337
  1985     16FB                     u4310:
  1986     16FB                     l3329:
  1987                           
  1988                           ;mainseguridad.c: 250:             LCD_Clear();
  1989     16FB  160A  118A  21E9  160A  118A  	fcall	_LCD_Clear
  1990     1700                     l3331:
  1991                           
  1992                           ;mainseguridad.c: 251:             LCD_String_xy(0,0,"Clave Correcta");
  1993     1700  01F5               	clrf	LCD_String_xy@pos
  1994     1701  3057               	movlw	(low ((STR_7-__stringbase)| (0+32768)))& (0+255)
  1995     1702  00F6               	movwf	LCD_String_xy@msg
  1996     1703  3080               	movlw	128
  1997     1704  00F7               	movwf	LCD_String_xy@msg+1
  1998     1705  3000               	movlw	0
  1999     1706  160A  118A  229D  160A  118A  	fcall	_LCD_String_xy
  2000     170B                     l3333:
  2001                           
  2002                           ;mainseguridad.c: 252:             estado = monitoreo_digital;
  2003     170B  1283               	bcf	3,5	;RP0=0, select bank0
  2004     170C  1303               	bcf	3,6	;RP1=0, select bank0
  2005     170D  01EF               	clrf	_estado
  2006     170E  0AEF               	incf	_estado,f
  2007     170F                     l3335:
  2008                           
  2009                           ;mainseguridad.c: 253:             PORTE = 0x02;
  2010     170F  3002               	movlw	2
  2011     1710  0089               	movwf	9	;volatile
  2012                           
  2013                           ;mainseguridad.c: 254:         }
  2014     1711  2F3A               	goto	l3349
  2015     1712                     l3337:
  2016                           
  2017                           ;mainseguridad.c: 257:             LCD_Clear();
  2018     1712  160A  118A  21E9  160A  118A  	fcall	_LCD_Clear
  2019     1717                     l3339:
  2020                           
  2021                           ;mainseguridad.c: 258:             LCD_String_xy(0,0,"Clave Incorrecta");
  2022     1717  01F5               	clrf	LCD_String_xy@pos
  2023     1718  3046               	movlw	(low ((STR_8-__stringbase)| (0+32768)))& (0+255)
  2024     1719  00F6               	movwf	LCD_String_xy@msg
  2025     171A  3080               	movlw	128
  2026     171B  00F7               	movwf	LCD_String_xy@msg+1
  2027     171C  3000               	movlw	0
  2028     171D  160A  118A  229D  160A  118A  	fcall	_LCD_String_xy
  2029     1722                     l3341:
  2030                           
  2031                           ;mainseguridad.c: 259:             idx = 0;
  2032     1722  1683               	bsf	3,5	;RP0=1, select bank1
  2033     1723  1303               	bcf	3,6	;RP1=0, select bank1
  2034     1724  01E4               	clrf	_idx^(0+128)
  2035     1725                     l3343:
  2036                           
  2037                           ;mainseguridad.c: 260:             intentos++;
  2038     1725  3001               	movlw	1
  2039     1726  00FF               	movwf	btemp+1
  2040     1727  087F               	movf	btemp+1,w
  2041     1728  07E0               	addwf	_intentos^(0+128),f
  2042     1729                     l3345:
  2043                           
  2044                           ;mainseguridad.c: 261:             PORTE = 0x03;
  2045     1729  3003               	movlw	3
  2046     172A  1283               	bcf	3,5	;RP0=0, select bank0
  2047     172B  1303               	bcf	3,6	;RP1=0, select bank0
  2048     172C  0089               	movwf	9	;volatile
  2049     172D                     l3347:
  2050                           
  2051                           ;mainseguridad.c: 262:             _delay((unsigned long)((1000)*(8000000/4000.0)));
  2052     172D  300B               	movlw	11
  2053     172E  00FC               	movwf	??_function_seguridad+2
  2054     172F  3026               	movlw	38
  2055     1730  00FB               	movwf	??_function_seguridad+1
  2056     1731  305D               	movlw	93
  2057     1732  00FA               	movwf	??_function_seguridad
  2058     1733                     u5667:
  2059     1733  0BFA               	decfsz	??_function_seguridad,f
  2060     1734  2F33               	goto	u5667
  2061     1735  0BFB               	decfsz	??_function_seguridad+1,f
  2062     1736  2F33               	goto	u5667
  2063     1737  0BFC               	decfsz	??_function_seguridad+2,f
  2064     1738  2F33               	goto	u5667
  2065     1739  2F3A               	nop2
  2066     173A                     l3349:
  2067                           
  2068                           ;mainseguridad.c: 266:         if (intentos>2){
  2069     173A  3003               	movlw	3
  2070     173B  1683               	bsf	3,5	;RP0=1, select bank1
  2071     173C  1303               	bcf	3,6	;RP1=0, select bank1
  2072     173D  0260               	subwf	_intentos^(0+128),w
  2073     173E  1C03               	skipc
  2074     173F  2F41               	goto	u4321
  2075     1740  2F42               	goto	u4320
  2076     1741                     u4321:
  2077     1741  2F47               	goto	l249
  2078     1742                     u4320:
  2079     1742                     l3351:
  2080                           
  2081                           ;mainseguridad.c: 267:             idx = 0;
  2082     1742  01E4               	clrf	_idx^(0+128)
  2083     1743                     l3353:
  2084                           
  2085                           ;mainseguridad.c: 268:             estado=bloqueado;
  2086     1743  3003               	movlw	3
  2087     1744  1283               	bcf	3,5	;RP0=0, select bank0
  2088     1745  1303               	bcf	3,6	;RP1=0, select bank0
  2089     1746  00EF               	movwf	_estado
  2090     1747                     l249:
  2091     1747  0008               	return
  2092     1748                     __end_of_function_seguridad:
  2093                           
  2094                           	psect	text3
  2095     1495                     __ptext3:	
  2096 ;; *************** function _strncmp *****************
  2097 ;; Defined at:
  2098 ;;		line 4 in file "C:\Program Files\Microchip\xc8\v2.41\pic\sources\c90\common\strncmp.c"
  2099 ;; Parameters:    Size  Location     Type
  2100 ;;  s1              1    wreg     PTR const unsigned char 
  2101 ;;		 -> pass_user(5), 
  2102 ;;  s2              1    0[COMMON] PTR const unsigned char 
  2103 ;;		 -> password(5), 
  2104 ;;  len             2    1[COMMON] unsigned int 
  2105 ;; Auto vars:     Size  Location     Type
  2106 ;;  s1              1    5[COMMON] PTR const unsigned char 
  2107 ;;		 -> pass_user(5), 
  2108 ;; Return value:  Size  Location     Type
  2109 ;;                  2    0[COMMON] int 
  2110 ;; Registers used:
  2111 ;;		wreg, fsr0l, fsr0h, status,2, status,0, btemp+1, pclath
  2112 ;; Tracked objects:
  2113 ;;		On entry : 0/0
  2114 ;;		On exit  : 0/0
  2115 ;;		Unchanged: 0/0
  2116 ;; Data sizes:     COMMON   BANK0   BANK1   BANK3   BANK2
  2117 ;;      Params:         3       0       0       0       0
  2118 ;;      Locals:         1       0       0       0       0
  2119 ;;      Temps:          2       0       0       0       0
  2120 ;;      Totals:         6       0       0       0       0
  2121 ;;Total ram usage:        6 bytes
  2122 ;; Hardware stack levels used: 2
  2123 ;; This function calls:
  2124 ;;		Nothing
  2125 ;; This function is called by:
  2126 ;;		_function_seguridad
  2127 ;; This function uses a non-reentrant model
  2128 ;;
  2129                           
  2130     1495                     _strncmp:	
  2131                           ;psect for function _strncmp
  2132                           
  2133                           
  2134                           ;incstack = 0
  2135                           ; Regs used in _strncmp: [wreg-fsr0h+status,2+status,0+btemp+1+pclath]
  2136                           ;strncmp@s1 stored from wreg
  2137     1495  00F5               	movwf	strncmp@s1
  2138     1496                     l3257:
  2139     1496  2CCA               	goto	l3269
  2140     1497                     l3259:
  2141     1497  0875               	movf	strncmp@s1,w
  2142     1498  0084               	movwf	4
  2143     1499  1383               	bcf	3,7	;select IRP bank0
  2144     149A  0800               	movf	0,w
  2145     149B  1903               	btfsc	3,2
  2146     149C  2C9E               	goto	u4261
  2147     149D  2C9F               	goto	u4260
  2148     149E                     u4261:
  2149     149E  2CAF               	goto	l3263
  2150     149F                     u4260:
  2151     149F                     l3261:
  2152     149F  0870               	movf	strncmp@s2,w
  2153     14A0  0084               	movwf	4
  2154     14A1  120A  158A  200A  160A  118A  	fcall	stringdir
  2155     14A6  00F3               	movwf	??_strncmp
  2156     14A7  0875               	movf	strncmp@s1,w
  2157     14A8  0084               	movwf	4
  2158     14A9  0800               	movf	0,w
  2159     14AA  0673               	xorwf	??_strncmp,w
  2160     14AB  1903               	skipnz
  2161     14AC  2CAE               	goto	u4271
  2162     14AD  2CAF               	goto	u4270
  2163     14AE                     u4271:
  2164     14AE  2CC2               	goto	l3267
  2165     14AF                     u4270:
  2166     14AF                     l3263:
  2167     14AF  0870               	movf	strncmp@s2,w
  2168     14B0  0084               	movwf	4
  2169     14B1  120A  158A  200A  160A  118A  	fcall	stringdir
  2170     14B6  00F3               	movwf	??_strncmp
  2171     14B7  0875               	movf	strncmp@s1,w
  2172     14B8  0084               	movwf	4
  2173     14B9  0800               	movf	0,w
  2174     14BA  00F4               	movwf	??_strncmp+1
  2175     14BB  0873               	movf	??_strncmp,w
  2176     14BC  0274               	subwf	??_strncmp+1,w
  2177     14BD  00F0               	movwf	?_strncmp
  2178     14BE  01F1               	clrf	?_strncmp+1
  2179     14BF  1C03               	skipc
  2180     14C0  03F1               	decf	?_strncmp+1,f
  2181     14C1  2CDA               	goto	l902
  2182     14C2                     l3267:
  2183     14C2  3001               	movlw	1
  2184     14C3  00FF               	movwf	btemp+1
  2185     14C4  087F               	movf	btemp+1,w
  2186     14C5  07F5               	addwf	strncmp@s1,f
  2187     14C6  3001               	movlw	1
  2188     14C7  00FF               	movwf	btemp+1
  2189     14C8  087F               	movf	btemp+1,w
  2190     14C9  07F0               	addwf	strncmp@s2,f
  2191     14CA                     l3269:
  2192     14CA  3001               	movlw	1
  2193     14CB  02F1               	subwf	strncmp@len,f
  2194     14CC  3000               	movlw	0
  2195     14CD  1C03               	skipc
  2196     14CE  03F2               	decf	strncmp@len+1,f
  2197     14CF  02F2               	subwf	strncmp@len+1,f
  2198     14D0  0A71               	incf	strncmp@len,w
  2199     14D1  1D03               	skipz
  2200     14D2  2CD7               	goto	u4281
  2201     14D3  0A72               	incf	strncmp@len+1,w
  2202     14D4  1D03               	btfss	3,2
  2203     14D5  2CD7               	goto	u4281
  2204     14D6  2CD8               	goto	u4280
  2205     14D7                     u4281:
  2206     14D7  2C97               	goto	l3259
  2207     14D8                     u4280:
  2208     14D8                     l3271:
  2209     14D8  01F0               	clrf	?_strncmp
  2210     14D9  01F1               	clrf	?_strncmp+1
  2211     14DA                     l902:
  2212     14DA  0008               	return
  2213     14DB                     __end_of_strncmp:
  2214                           
  2215                           	psect	text4
  2216     0A79                     __ptext4:	
  2217 ;; *************** function _keypad_getkey *****************
  2218 ;; Defined at:
  2219 ;;		line 58 in file "keypad.c"
  2220 ;; Parameters:    Size  Location     Type
  2221 ;;		None
  2222 ;; Auto vars:     Size  Location     Type
  2223 ;;  letras         16    0[BANK0 ] unsigned char [4][4]
  2224 ;;  i               2   17[BANK0 ] int 
  2225 ;;  valor           1   16[BANK0 ] unsigned char 
  2226 ;; Return value:  Size  Location     Type
  2227 ;;                  1    wreg      unsigned char 
  2228 ;; Registers used:
  2229 ;;		wreg, fsr0l, fsr0h, status,2, status,0, btemp+1
  2230 ;; Tracked objects:
  2231 ;;		On entry : 0/0
  2232 ;;		On exit  : 0/0
  2233 ;;		Unchanged: 0/0
  2234 ;; Data sizes:     COMMON   BANK0   BANK1   BANK3   BANK2
  2235 ;;      Params:         0       0       0       0       0
  2236 ;;      Locals:         0      19       0       0       0
  2237 ;;      Temps:          4       0       0       0       0
  2238 ;;      Totals:         4      19       0       0       0
  2239 ;;Total ram usage:       23 bytes
  2240 ;; Hardware stack levels used: 1
  2241 ;; This function calls:
  2242 ;;		Nothing
  2243 ;; This function is called by:
  2244 ;;		_function_seguridad
  2245 ;; This function uses a non-reentrant model
  2246 ;;
  2247                           
  2248     0A79                     _keypad_getkey:	
  2249                           ;psect for function _keypad_getkey
  2250                           
  2251     0A79                     l3041:	
  2252                           ;incstack = 0
  2253                           ; Regs used in _keypad_getkey: [wreg-fsr0h+status,2+status,0+btemp+1]
  2254                           
  2255                           
  2256                           ;keypad.c: 60: char letras[4][4]={ {'1','2','3','A'},
  2257     0A79  3020               	movlw	keypad_getkey@letras& (0+255)
  2258     0A7A  0084               	movwf	4
  2259     0A7B  30A1               	movlw	low keypad_getkey@F1268
  2260     0A7C  00F0               	movwf	??_keypad_getkey
  2261     0A7D  0804               	movf	4,w
  2262     0A7E  00F1               	movwf	??_keypad_getkey+1
  2263     0A7F  3010               	movlw	16
  2264     0A80  00F2               	movwf	??_keypad_getkey+2
  2265     0A81                     u3930:
  2266     0A81  0870               	movf	??_keypad_getkey,w
  2267     0A82  0084               	movwf	4
  2268     0A83  1783               	bsf	3,7	;select IRP bank3
  2269     0A84  0800               	movf	0,w
  2270     0A85  00F3               	movwf	??_keypad_getkey+3
  2271     0A86  0AF0               	incf	??_keypad_getkey,f
  2272     0A87  0871               	movf	??_keypad_getkey+1,w
  2273     0A88  0084               	movwf	4
  2274     0A89  1383               	bcf	3,7	;select IRP bank0
  2275     0A8A  0873               	movf	??_keypad_getkey+3,w
  2276     0A8B  0080               	movwf	0
  2277     0A8C  0AF1               	incf	??_keypad_getkey+1,f
  2278     0A8D  0BF2               	decfsz	??_keypad_getkey+2,f
  2279     0A8E  2A81               	goto	u3930
  2280     0A8F                     l3043:
  2281     0A8F                     l3045:
  2282                           
  2283                           ;keypad.c: 65: char valor=0;
  2284     0A8F  1283               	bcf	3,5	;RP0=0, select bank0
  2285     0A90  1303               	bcf	3,6	;RP1=0, select bank0
  2286     0A91  01B0               	clrf	keypad_getkey@valor
  2287     0A92                     l3047:
  2288                           
  2289                           ;keypad.c: 67: for(i=0;i<4;i++){
  2290     0A92  01B1               	clrf	keypad_getkey@i
  2291     0A93  01B2               	clrf	keypad_getkey@i+1
  2292     0A94                     l3053:
  2293                           
  2294                           ;keypad.c: 69:    if(i==0){
  2295     0A94  1283               	bcf	3,5	;RP0=0, select bank0
  2296     0A95  1303               	bcf	3,6	;RP1=0, select bank0
  2297     0A96  0831               	movf	keypad_getkey@i,w
  2298     0A97  0432               	iorwf	keypad_getkey@i+1,w
  2299     0A98  1D03               	btfss	3,2
  2300     0A99  2A9B               	goto	u3941
  2301     0A9A  2A9C               	goto	u3940
  2302     0A9B                     u3941:
  2303     0A9B  2AC1               	goto	l3073
  2304     0A9C                     u3940:
  2305     0A9C                     l3055:
  2306                           
  2307                           ;keypad.c: 71:       PORTB = (1<<7)|(1<<6)|(1<<5)|(1<<4)|(1<<3)|(1<<2)|(1<<1)|(0<<0);
  2308     0A9C  30FE               	movlw	254
  2309     0A9D  0086               	movwf	6	;volatile
  2310                           
  2311                           ;keypad.c: 72:       _delay((unsigned long)((100)*(8000000/4000000.0)));
  2312     0A9E  3042               	movlw	66
  2313     0A9F  00F0               	movwf	??_keypad_getkey
  2314     0AA0                     u5677:
  2315     0AA0  0BF0               	decfsz	??_keypad_getkey,f
  2316     0AA1  2AA0               	goto	u5677
  2317     0AA2  0000               	nop
  2318                           
  2319                           ;keypad.c: 73:       while (!(PORTB & (1<<4))){valor=letras[0][0];}
  2320     0AA3  2AA6               	goto	l3059
  2321     0AA4                     l3057:
  2322     0AA4  0820               	movf	keypad_getkey@letras,w
  2323     0AA5  00B0               	movwf	keypad_getkey@valor
  2324     0AA6                     l3059:
  2325     0AA6  1283               	bcf	3,5	;RP0=0, select bank0
  2326     0AA7  1303               	bcf	3,6	;RP1=0, select bank0
  2327     0AA8  1E06               	btfss	6,4	;volatile
  2328     0AA9  2AAB               	goto	u3951
  2329     0AAA  2AAC               	goto	u3950
  2330     0AAB                     u3951:
  2331     0AAB  2AA4               	goto	l3057
  2332     0AAC                     u3950:
  2333     0AAC  2AAF               	goto	l3063
  2334     0AAD                     l3061:
  2335     0AAD  0821               	movf	keypad_getkey@letras+1,w
  2336     0AAE  00B0               	movwf	keypad_getkey@valor
  2337     0AAF                     l3063:
  2338     0AAF  1E86               	btfss	6,5	;volatile
  2339     0AB0  2AB2               	goto	u3961
  2340     0AB1  2AB3               	goto	u3960
  2341     0AB2                     u3961:
  2342     0AB2  2AAD               	goto	l3061
  2343     0AB3                     u3960:
  2344     0AB3  2AB6               	goto	l3067
  2345     0AB4                     l3065:
  2346     0AB4  0822               	movf	keypad_getkey@letras+2,w
  2347     0AB5  00B0               	movwf	keypad_getkey@valor
  2348     0AB6                     l3067:
  2349     0AB6  1F06               	btfss	6,6	;volatile
  2350     0AB7  2AB9               	goto	u3971
  2351     0AB8  2ABA               	goto	u3970
  2352     0AB9                     u3971:
  2353     0AB9  2AB4               	goto	l3065
  2354     0ABA                     u3970:
  2355     0ABA  2ABD               	goto	l3071
  2356     0ABB                     l3069:
  2357     0ABB  0823               	movf	keypad_getkey@letras+3,w
  2358     0ABC  00B0               	movwf	keypad_getkey@valor
  2359     0ABD                     l3071:
  2360     0ABD  1F86               	btfss	6,7	;volatile
  2361     0ABE  2AC0               	goto	u3981
  2362     0ABF  2AC1               	goto	u3980
  2363     0AC0                     u3981:
  2364     0AC0  2ABB               	goto	l3069
  2365     0AC1                     u3980:
  2366     0AC1                     l3073:
  2367                           
  2368                           ;keypad.c: 79:    if(i==1){
  2369     0AC1  0331               	decf	keypad_getkey@i,w
  2370     0AC2  0432               	iorwf	keypad_getkey@i+1,w
  2371     0AC3  1D03               	btfss	3,2
  2372     0AC4  2AC6               	goto	u3991
  2373     0AC5  2AC7               	goto	u3990
  2374     0AC6                     u3991:
  2375     0AC6  2AEC               	goto	l3093
  2376     0AC7                     u3990:
  2377     0AC7                     l3075:
  2378                           
  2379                           ;keypad.c: 80:       PORTB = (1<<7)|(1<<6)|(1<<5)|(1<<4)|(1<<3)|(1<<2)|(0<<1)|(1<<0);
  2380     0AC7  30FD               	movlw	253
  2381     0AC8  0086               	movwf	6	;volatile
  2382                           
  2383                           ;keypad.c: 81:       _delay((unsigned long)((100)*(8000000/4000000.0)));
  2384     0AC9  3042               	movlw	66
  2385     0ACA  00F0               	movwf	??_keypad_getkey
  2386     0ACB                     u5687:
  2387     0ACB  0BF0               	decfsz	??_keypad_getkey,f
  2388     0ACC  2ACB               	goto	u5687
  2389     0ACD  0000               	nop
  2390                           
  2391                           ;keypad.c: 82:       while (!(PORTB & (1<<4))){valor=letras[1][0];}
  2392     0ACE  2AD1               	goto	l3079
  2393     0ACF                     l3077:
  2394     0ACF  0824               	movf	keypad_getkey@letras+4,w
  2395     0AD0  00B0               	movwf	keypad_getkey@valor
  2396     0AD1                     l3079:
  2397     0AD1  1283               	bcf	3,5	;RP0=0, select bank0
  2398     0AD2  1303               	bcf	3,6	;RP1=0, select bank0
  2399     0AD3  1E06               	btfss	6,4	;volatile
  2400     0AD4  2AD6               	goto	u4001
  2401     0AD5  2AD7               	goto	u4000
  2402     0AD6                     u4001:
  2403     0AD6  2ACF               	goto	l3077
  2404     0AD7                     u4000:
  2405     0AD7  2ADA               	goto	l3083
  2406     0AD8                     l3081:
  2407     0AD8  0825               	movf	keypad_getkey@letras+5,w
  2408     0AD9  00B0               	movwf	keypad_getkey@valor
  2409     0ADA                     l3083:
  2410     0ADA  1E86               	btfss	6,5	;volatile
  2411     0ADB  2ADD               	goto	u4011
  2412     0ADC  2ADE               	goto	u4010
  2413     0ADD                     u4011:
  2414     0ADD  2AD8               	goto	l3081
  2415     0ADE                     u4010:
  2416     0ADE  2AE1               	goto	l3087
  2417     0ADF                     l3085:
  2418     0ADF  0826               	movf	keypad_getkey@letras+6,w
  2419     0AE0  00B0               	movwf	keypad_getkey@valor
  2420     0AE1                     l3087:
  2421     0AE1  1F06               	btfss	6,6	;volatile
  2422     0AE2  2AE4               	goto	u4021
  2423     0AE3  2AE5               	goto	u4020
  2424     0AE4                     u4021:
  2425     0AE4  2ADF               	goto	l3085
  2426     0AE5                     u4020:
  2427     0AE5  2AE8               	goto	l3091
  2428     0AE6                     l3089:
  2429     0AE6  0827               	movf	keypad_getkey@letras+7,w
  2430     0AE7  00B0               	movwf	keypad_getkey@valor
  2431     0AE8                     l3091:
  2432     0AE8  1F86               	btfss	6,7	;volatile
  2433     0AE9  2AEB               	goto	u4031
  2434     0AEA  2AEC               	goto	u4030
  2435     0AEB                     u4031:
  2436     0AEB  2AE6               	goto	l3089
  2437     0AEC                     u4030:
  2438     0AEC                     l3093:
  2439                           
  2440                           ;keypad.c: 88:    if(i==2){
  2441     0AEC  3002               	movlw	2
  2442     0AED  0631               	xorwf	keypad_getkey@i,w
  2443     0AEE  0432               	iorwf	keypad_getkey@i+1,w
  2444     0AEF  1D03               	btfss	3,2
  2445     0AF0  2AF2               	goto	u4041
  2446     0AF1  2AF3               	goto	u4040
  2447     0AF2                     u4041:
  2448     0AF2  2B18               	goto	l3113
  2449     0AF3                     u4040:
  2450     0AF3                     l3095:
  2451                           
  2452                           ;keypad.c: 89:       PORTB = (1<<7)|(1<<6)|(1<<5)|(1<<4)|(1<<3)|(0<<2)|(1<<1)|(1<<0);
  2453     0AF3  30FB               	movlw	251
  2454     0AF4  0086               	movwf	6	;volatile
  2455                           
  2456                           ;keypad.c: 90:       _delay((unsigned long)((100)*(8000000/4000000.0)));
  2457     0AF5  3042               	movlw	66
  2458     0AF6  00F0               	movwf	??_keypad_getkey
  2459     0AF7                     u5697:
  2460     0AF7  0BF0               	decfsz	??_keypad_getkey,f
  2461     0AF8  2AF7               	goto	u5697
  2462     0AF9  0000               	nop
  2463                           
  2464                           ;keypad.c: 91:       while (!(PORTB & (1<<4))){valor=letras[2][0];}
  2465     0AFA  2AFD               	goto	l3099
  2466     0AFB                     l3097:
  2467     0AFB  0828               	movf	keypad_getkey@letras+8,w
  2468     0AFC  00B0               	movwf	keypad_getkey@valor
  2469     0AFD                     l3099:
  2470     0AFD  1283               	bcf	3,5	;RP0=0, select bank0
  2471     0AFE  1303               	bcf	3,6	;RP1=0, select bank0
  2472     0AFF  1E06               	btfss	6,4	;volatile
  2473     0B00  2B02               	goto	u4051
  2474     0B01  2B03               	goto	u4050
  2475     0B02                     u4051:
  2476     0B02  2AFB               	goto	l3097
  2477     0B03                     u4050:
  2478     0B03  2B06               	goto	l3103
  2479     0B04                     l3101:
  2480     0B04  0829               	movf	keypad_getkey@letras+9,w
  2481     0B05  00B0               	movwf	keypad_getkey@valor
  2482     0B06                     l3103:
  2483     0B06  1E86               	btfss	6,5	;volatile
  2484     0B07  2B09               	goto	u4061
  2485     0B08  2B0A               	goto	u4060
  2486     0B09                     u4061:
  2487     0B09  2B04               	goto	l3101
  2488     0B0A                     u4060:
  2489     0B0A  2B0D               	goto	l3107
  2490     0B0B                     l3105:
  2491     0B0B  082A               	movf	keypad_getkey@letras+10,w
  2492     0B0C  00B0               	movwf	keypad_getkey@valor
  2493     0B0D                     l3107:
  2494     0B0D  1F06               	btfss	6,6	;volatile
  2495     0B0E  2B10               	goto	u4071
  2496     0B0F  2B11               	goto	u4070
  2497     0B10                     u4071:
  2498     0B10  2B0B               	goto	l3105
  2499     0B11                     u4070:
  2500     0B11  2B14               	goto	l3111
  2501     0B12                     l3109:
  2502     0B12  082B               	movf	keypad_getkey@letras+11,w
  2503     0B13  00B0               	movwf	keypad_getkey@valor
  2504     0B14                     l3111:
  2505     0B14  1F86               	btfss	6,7	;volatile
  2506     0B15  2B17               	goto	u4081
  2507     0B16  2B18               	goto	u4080
  2508     0B17                     u4081:
  2509     0B17  2B12               	goto	l3109
  2510     0B18                     u4080:
  2511     0B18                     l3113:
  2512                           
  2513                           ;keypad.c: 97:    if(i==3){
  2514     0B18  3003               	movlw	3
  2515     0B19  0631               	xorwf	keypad_getkey@i,w
  2516     0B1A  0432               	iorwf	keypad_getkey@i+1,w
  2517     0B1B  1D03               	btfss	3,2
  2518     0B1C  2B1E               	goto	u4091
  2519     0B1D  2B1F               	goto	u4090
  2520     0B1E                     u4091:
  2521     0B1E  2B44               	goto	l3133
  2522     0B1F                     u4090:
  2523     0B1F                     l3115:
  2524                           
  2525                           ;keypad.c: 98:       PORTB = (1<<7)|(1<<6)|(1<<5)|(1<<4)|(0<<3)|(1<<2)|(1<<1)|(1<<0);
  2526     0B1F  30F7               	movlw	247
  2527     0B20  0086               	movwf	6	;volatile
  2528                           
  2529                           ;keypad.c: 99:       _delay((unsigned long)((100)*(8000000/4000000.0)));
  2530     0B21  3042               	movlw	66
  2531     0B22  00F0               	movwf	??_keypad_getkey
  2532     0B23                     u5707:
  2533     0B23  0BF0               	decfsz	??_keypad_getkey,f
  2534     0B24  2B23               	goto	u5707
  2535     0B25  0000               	nop
  2536                           
  2537                           ;keypad.c: 100:       while (!(PORTB & (1<<4))){valor=letras[3][0];}
  2538     0B26  2B29               	goto	l3119
  2539     0B27                     l3117:
  2540     0B27  082C               	movf	keypad_getkey@letras+12,w
  2541     0B28  00B0               	movwf	keypad_getkey@valor
  2542     0B29                     l3119:
  2543     0B29  1283               	bcf	3,5	;RP0=0, select bank0
  2544     0B2A  1303               	bcf	3,6	;RP1=0, select bank0
  2545     0B2B  1E06               	btfss	6,4	;volatile
  2546     0B2C  2B2E               	goto	u4101
  2547     0B2D  2B2F               	goto	u4100
  2548     0B2E                     u4101:
  2549     0B2E  2B27               	goto	l3117
  2550     0B2F                     u4100:
  2551     0B2F  2B32               	goto	l3123
  2552     0B30                     l3121:
  2553     0B30  082D               	movf	keypad_getkey@letras+13,w
  2554     0B31  00B0               	movwf	keypad_getkey@valor
  2555     0B32                     l3123:
  2556     0B32  1E86               	btfss	6,5	;volatile
  2557     0B33  2B35               	goto	u4111
  2558     0B34  2B36               	goto	u4110
  2559     0B35                     u4111:
  2560     0B35  2B30               	goto	l3121
  2561     0B36                     u4110:
  2562     0B36  2B39               	goto	l3127
  2563     0B37                     l3125:
  2564     0B37  082E               	movf	keypad_getkey@letras+14,w
  2565     0B38  00B0               	movwf	keypad_getkey@valor
  2566     0B39                     l3127:
  2567     0B39  1F06               	btfss	6,6	;volatile
  2568     0B3A  2B3C               	goto	u4121
  2569     0B3B  2B3D               	goto	u4120
  2570     0B3C                     u4121:
  2571     0B3C  2B37               	goto	l3125
  2572     0B3D                     u4120:
  2573     0B3D  2B40               	goto	l3131
  2574     0B3E                     l3129:
  2575     0B3E  082F               	movf	keypad_getkey@letras+15,w
  2576     0B3F  00B0               	movwf	keypad_getkey@valor
  2577     0B40                     l3131:
  2578     0B40  1F86               	btfss	6,7	;volatile
  2579     0B41  2B43               	goto	u4131
  2580     0B42  2B44               	goto	u4130
  2581     0B43                     u4131:
  2582     0B43  2B3E               	goto	l3129
  2583     0B44                     u4130:
  2584     0B44                     l3133:
  2585                           
  2586                           ;keypad.c: 105:    }
  2587     0B44  3001               	movlw	1
  2588     0B45  07B1               	addwf	keypad_getkey@i,f
  2589     0B46  1803               	skipnc
  2590     0B47  0AB2               	incf	keypad_getkey@i+1,f
  2591     0B48  3000               	movlw	0
  2592     0B49  07B2               	addwf	keypad_getkey@i+1,f
  2593     0B4A                     l3135:
  2594     0B4A  0832               	movf	keypad_getkey@i+1,w
  2595     0B4B  3A80               	xorlw	128
  2596     0B4C  00FF               	movwf	btemp+1
  2597     0B4D  3080               	movlw	128
  2598     0B4E  027F               	subwf	btemp+1,w
  2599     0B4F  1D03               	skipz
  2600     0B50  2B53               	goto	u4145
  2601     0B51  3004               	movlw	4
  2602     0B52  0231               	subwf	keypad_getkey@i,w
  2603     0B53                     u4145:
  2604     0B53  1C03               	skipc
  2605     0B54  2B56               	goto	u4141
  2606     0B55  2B57               	goto	u4140
  2607     0B56                     u4141:
  2608     0B56  2A94               	goto	l3053
  2609     0B57                     u4140:
  2610     0B57                     l3137:
  2611                           
  2612                           ;keypad.c: 107:    return valor;
  2613     0B57  1283               	bcf	3,5	;RP0=0, select bank0
  2614     0B58  1303               	bcf	3,6	;RP1=0, select bank0
  2615     0B59  0830               	movf	keypad_getkey@valor,w
  2616     0B5A                     l109:
  2617     0B5A  0008               	return
  2618     0B5B                     __end_of_keypad_getkey:
  2619                           
  2620                           	psect	text5
  2621     000F                     __ptext5:	
  2622 ;; *************** function _function_monitoreo_digital *****************
  2623 ;; Defined at:
  2624 ;;		line 161 in file "mainseguridad.c"
  2625 ;; Parameters:    Size  Location     Type
  2626 ;;		None
  2627 ;; Auto vars:     Size  Location     Type
  2628 ;;  n               2    0        int 
  2629 ;; Return value:  Size  Location     Type
  2630 ;;                  1    wreg      void 
  2631 ;; Registers used:
  2632 ;;		wreg, fsr0l, fsr0h, status,2, status,0, btemp+1, pclath, cstack
  2633 ;; Tracked objects:
  2634 ;;		On entry : 0/0
  2635 ;;		On exit  : 0/0
  2636 ;;		Unchanged: 0/0
  2637 ;; Data sizes:     COMMON   BANK0   BANK1   BANK3   BANK2
  2638 ;;      Params:         0       0       0       0       0
  2639 ;;      Locals:         0       0       0       0       0
  2640 ;;      Temps:          0       6       0       0       0
  2641 ;;      Totals:         0       6       0       0       0
  2642 ;;Total ram usage:        6 bytes
  2643 ;; Hardware stack levels used: 1
  2644 ;; Hardware stack levels required when called: 3
  2645 ;; This function calls:
  2646 ;;		_LCD_Clear
  2647 ;;		_LCD_String_xy
  2648 ;;		_monitoring_sensor
  2649 ;;		_sprintf
  2650 ;; This function is called by:
  2651 ;;		_main
  2652 ;; This function uses a non-reentrant model
  2653 ;;
  2654                           
  2655     000F                     _function_monitoreo_digital:	
  2656                           ;psect for function _function_monitoreo_digital
  2657                           
  2658     000F                     l3355:	
  2659                           ;incstack = 0
  2660                           ; Regs used in _function_monitoreo_digital: [wreg-fsr0h+status,2+status,0+btemp+1+pclath
      +                          +cstack]
  2661                           
  2662                           
  2663                           ;mainseguridad.c: 162:     if(monitoring_sensor() == 1){
  2664     000F  160A  118A  221C  120A  118A  	fcall	_monitoring_sensor
  2665     0014  3A01               	xorlw	1
  2666     0015  1D03               	skipz
  2667     0016  2818               	goto	u4331
  2668     0017  2819               	goto	u4330
  2669     0018                     u4331:
  2670     0018  2857               	goto	l3365
  2671     0019                     u4330:
  2672     0019                     l3357:
  2673                           
  2674                           ;mainseguridad.c: 163:         LCD_Clear();
  2675     0019  160A  118A  21E9  120A  118A  	fcall	_LCD_Clear
  2676     001E                     l3359:
  2677                           
  2678                           ;mainseguridad.c: 164:         estado = alarma_seguridad;
  2679     001E  3004               	movlw	4
  2680     001F  1283               	bcf	3,5	;RP0=0, select bank0
  2681     0020  1303               	bcf	3,6	;RP1=0, select bank0
  2682     0021  00EF               	movwf	_estado
  2683     0022                     l3361:
  2684     0022  3034               	movlw	(low ((STR_3-__stringbase)| (0+32768)))& (0+255)
  2685     0023  00A0               	movwf	sprintf@f
  2686     0024  1683               	bsf	3,5	;RP0=1, select bank1
  2687     0025  1303               	bcf	3,6	;RP1=0, select bank1
  2688     0026  0863               	movf	_var_sensor_ir^(0+128),w
  2689     0027  1283               	bcf	3,5	;RP0=0, select bank0
  2690     0028  1303               	bcf	3,6	;RP1=0, select bank0
  2691     0029  00B3               	movwf	??_function_monitoreo_digital
  2692     002A  01B4               	clrf	??_function_monitoreo_digital+1
  2693     002B  0833               	movf	??_function_monitoreo_digital,w
  2694     002C  00A1               	movwf	?_sprintf+1
  2695     002D  0834               	movf	??_function_monitoreo_digital+1,w
  2696     002E  00A2               	movwf	?_sprintf+2
  2697     002F  1683               	bsf	3,5	;RP0=1, select bank1
  2698     0030  1303               	bcf	3,6	;RP1=0, select bank1
  2699     0031  0862               	movf	_var_sensor_hall^(0+128),w
  2700     0032  1283               	bcf	3,5	;RP0=0, select bank0
  2701     0033  1303               	bcf	3,6	;RP1=0, select bank0
  2702     0034  00B5               	movwf	??_function_monitoreo_digital+2
  2703     0035  01B6               	clrf	??_function_monitoreo_digital+3
  2704     0036  0835               	movf	??_function_monitoreo_digital+2,w
  2705     0037  00A3               	movwf	?_sprintf+3
  2706     0038  0836               	movf	??_function_monitoreo_digital+3,w
  2707     0039  00A4               	movwf	?_sprintf+4
  2708     003A  1683               	bsf	3,5	;RP0=1, select bank1
  2709     003B  1303               	bcf	3,6	;RP1=0, select bank1
  2710     003C  0861               	movf	_var_sensor_metal^(0+128),w
  2711     003D  1283               	bcf	3,5	;RP0=0, select bank0
  2712     003E  1303               	bcf	3,6	;RP1=0, select bank0
  2713     003F  00B7               	movwf	??_function_monitoreo_digital+4
  2714     0040  01B8               	clrf	??_function_monitoreo_digital+5
  2715     0041  0837               	movf	??_function_monitoreo_digital+4,w
  2716     0042  00A5               	movwf	?_sprintf+5
  2717     0043  0838               	movf	??_function_monitoreo_digital+5,w
  2718     0044  00A6               	movwf	?_sprintf+6
  2719     0045  3090               	movlw	(low (_buffer| (0+256)))& (0+255)
  2720     0046  120A  158A  243D  120A  118A  	fcall	_sprintf
  2721     004B                     l3363:
  2722                           
  2723                           ;mainseguridad.c: 166:            LCD_String_xy(0,0,buffer);
  2724     004B  01F5               	clrf	LCD_String_xy@pos
  2725     004C  3090               	movlw	(low (_buffer| (0+256)))& (0+255)
  2726     004D  00F6               	movwf	LCD_String_xy@msg
  2727     004E  3001               	movlw	1
  2728     004F  00F7               	movwf	LCD_String_xy@msg+1
  2729     0050  3000               	movlw	0
  2730     0051  160A  118A  229D  120A  118A  	fcall	_LCD_String_xy
  2731                           
  2732                           ;mainseguridad.c: 167:     }
  2733     0056  2860               	goto	l3369
  2734     0057                     l3365:
  2735                           
  2736                           ;mainseguridad.c: 169:             LCD_Clear();
  2737     0057  160A  118A  21E9  120A  118A  	fcall	_LCD_Clear
  2738     005C                     l3367:
  2739                           
  2740                           ;mainseguridad.c: 170:             estado = monitoreo_ambiental;
  2741     005C  3002               	movlw	2
  2742     005D  1283               	bcf	3,5	;RP0=0, select bank0
  2743     005E  1303               	bcf	3,6	;RP1=0, select bank0
  2744     005F  00EF               	movwf	_estado
  2745     0060                     l3369:
  2746                           
  2747                           ;mainseguridad.c: 172:      _delay((unsigned long)((2000)*(8000000/4000.0)));
  2748     0060  3015               	movlw	21
  2749     0061  1283               	bcf	3,5	;RP0=0, select bank0
  2750     0062  1303               	bcf	3,6	;RP1=0, select bank0
  2751     0063  00B5               	movwf	??_function_monitoreo_digital+2
  2752     0064  304B               	movlw	75
  2753     0065  00B4               	movwf	??_function_monitoreo_digital+1
  2754     0066  30BD               	movlw	189
  2755     0067  00B3               	movwf	??_function_monitoreo_digital
  2756     0068                     u5717:
  2757     0068  0BB3               	decfsz	??_function_monitoreo_digital,f
  2758     0069  2868               	goto	u5717
  2759     006A  0BB4               	decfsz	??_function_monitoreo_digital+1,f
  2760     006B  2868               	goto	u5717
  2761     006C  0BB5               	decfsz	??_function_monitoreo_digital+2,f
  2762     006D  2868               	goto	u5717
  2763     006E  286F               	nop2
  2764     006F                     l235:
  2765     006F  0008               	return
  2766     0070                     __end_of_function_monitoreo_digital:
  2767                           
  2768                           	psect	text6
  2769     121C                     __ptext6:	
  2770 ;; *************** function _monitoring_sensor *****************
  2771 ;; Defined at:
  2772 ;;		line 38 in file "sensor.c"
  2773 ;; Parameters:    Size  Location     Type
  2774 ;;		None
  2775 ;; Auto vars:     Size  Location     Type
  2776 ;;  alarm_activ     1    0[COMMON] unsigned char 
  2777 ;; Return value:  Size  Location     Type
  2778 ;;                  1    wreg      unsigned char 
  2779 ;; Registers used:
  2780 ;;		wreg, status,2
  2781 ;; Tracked objects:
  2782 ;;		On entry : 0/0
  2783 ;;		On exit  : 0/0
  2784 ;;		Unchanged: 0/0
  2785 ;; Data sizes:     COMMON   BANK0   BANK1   BANK3   BANK2
  2786 ;;      Params:         0       0       0       0       0
  2787 ;;      Locals:         1       0       0       0       0
  2788 ;;      Temps:          0       0       0       0       0
  2789 ;;      Totals:         1       0       0       0       0
  2790 ;;Total ram usage:        1 bytes
  2791 ;; Hardware stack levels used: 1
  2792 ;; This function calls:
  2793 ;;		Nothing
  2794 ;; This function is called by:
  2795 ;;		_function_monitoreo_digital
  2796 ;; This function uses a non-reentrant model
  2797 ;;
  2798                           
  2799     121C                     _monitoring_sensor:	
  2800                           ;psect for function _monitoring_sensor
  2801                           
  2802     121C                     l3141:	
  2803                           ;incstack = 0
  2804                           ; Regs used in _monitoring_sensor: [wreg+status,2]
  2805                           
  2806                           
  2807                           ;sensor.c: 39:         unsigned char alarm_activ=0;
  2808     121C  01F0               	clrf	monitoring_sensor@alarm_activ
  2809     121D                     l3143:
  2810                           
  2811                           ;sensor.c: 40:     if(RC1 == 0){
  2812     121D  1283               	bcf	3,5	;RP0=0, select bank0
  2813     121E  1303               	bcf	3,6	;RP1=0, select bank0
  2814     121F  1887               	btfsc	7,1	;volatile
  2815     1220  2A22               	goto	u4151
  2816     1221  2A23               	goto	u4150
  2817     1222                     u4151:
  2818     1222  2A25               	goto	l283
  2819     1223                     u4150:
  2820     1223                     l3145:
  2821                           
  2822                           ;sensor.c: 41:         alarm_activ=1;
  2823     1223  01F0               	clrf	monitoring_sensor@alarm_activ
  2824     1224  0AF0               	incf	monitoring_sensor@alarm_activ,f
  2825     1225                     l283:	
  2826                           ;sensor.c: 42:     }
  2827                           
  2828                           
  2829                           ;sensor.c: 43:     if(RC0 == 1){
  2830     1225  1C07               	btfss	7,0	;volatile
  2831     1226  2A28               	goto	u4161
  2832     1227  2A29               	goto	u4160
  2833     1228                     u4161:
  2834     1228  2A2B               	goto	l284
  2835     1229                     u4160:
  2836     1229                     l3147:
  2837                           
  2838                           ;sensor.c: 44:         alarm_activ=1;
  2839     1229  01F0               	clrf	monitoring_sensor@alarm_activ
  2840     122A  0AF0               	incf	monitoring_sensor@alarm_activ,f
  2841     122B                     l284:	
  2842                           ;sensor.c: 45:     }
  2843                           
  2844                           
  2845                           ;sensor.c: 46:     if(RC2 == 1){
  2846     122B  1D07               	btfss	7,2	;volatile
  2847     122C  2A2E               	goto	u4171
  2848     122D  2A2F               	goto	u4170
  2849     122E                     u4171:
  2850     122E  2A31               	goto	l3151
  2851     122F                     u4170:
  2852     122F                     l3149:
  2853                           
  2854                           ;sensor.c: 47:         alarm_activ=1;
  2855     122F  01F0               	clrf	monitoring_sensor@alarm_activ
  2856     1230  0AF0               	incf	monitoring_sensor@alarm_activ,f
  2857     1231                     l3151:
  2858                           
  2859                           ;sensor.c: 49:     return alarm_activ;
  2860     1231  0870               	movf	monitoring_sensor@alarm_activ,w
  2861     1232                     l286:
  2862     1232  0008               	return
  2863     1233                     __end_of_monitoring_sensor:
  2864                           
  2865                           	psect	text7
  2866     08D8                     __ptext7:	
  2867 ;; *************** function _function_monitoreo_ambiental *****************
  2868 ;; Defined at:
  2869 ;;		line 190 in file "mainseguridad.c"
  2870 ;; Parameters:    Size  Location     Type
  2871 ;;		None
  2872 ;; Auto vars:     Size  Location     Type
  2873 ;;  value_temper    2   51[BANK1 ] int 
  2874 ;;  tempcelsius     2   49[BANK1 ] int 
  2875 ;;  value_potenc    2   47[BANK1 ] int 
  2876 ;;  e               2    0        int 
  2877 ;;  n               2    0        int 
  2878 ;; Return value:  Size  Location     Type
  2879 ;;                  1    wreg      void 
  2880 ;; Registers used:
  2881 ;;		wreg, fsr0l, fsr0h, status,2, status,0, btemp+1, pclath, cstack
  2882 ;; Tracked objects:
  2883 ;;		On entry : 0/0
  2884 ;;		On exit  : 0/0
  2885 ;;		Unchanged: 0/0
  2886 ;; Data sizes:     COMMON   BANK0   BANK1   BANK3   BANK2
  2887 ;;      Params:         0       0       0       0       0
  2888 ;;      Locals:         0       0       6       0       0
  2889 ;;      Temps:          0       0       3       0       0
  2890 ;;      Totals:         0       0       9       0       0
  2891 ;;Total ram usage:        9 bytes
  2892 ;; Hardware stack levels used: 1
  2893 ;; Hardware stack levels required when called: 5
  2894 ;; This function calls:
  2895 ;;		_LCD_String_xy
  2896 ;;		_adc_conversion
  2897 ;;		_convertir_temperature
  2898 ;;		_sprintf
  2899 ;; This function is called by:
  2900 ;;		_main
  2901 ;; This function uses a non-reentrant model
  2902 ;;
  2903                           
  2904     08D8                     _function_monitoreo_ambiental:	
  2905                           ;psect for function _function_monitoreo_ambiental
  2906                           
  2907     08D8                     l4025:	
  2908                           ;incstack = 0
  2909                           ; Regs used in _function_monitoreo_ambiental: [wreg-fsr0h+status,2+status,0+btemp+1+pcla
      +                          th+cstack]
  2910                           
  2911                           
  2912                           ;mainseguridad.c: 191:     int value_potenciometro= adc_conversion(0);
  2913     08D8  3000               	movlw	0
  2914     08D9  00F0               	movwf	adc_conversion@channel
  2915     08DA  00F1               	movwf	adc_conversion@channel+1
  2916     08DB  160A  118A  2233  120A  158A  	fcall	_adc_conversion
  2917     08E0  0871               	movf	?_adc_conversion+1,w
  2918     08E1  1683               	bsf	3,5	;RP0=1, select bank1
  2919     08E2  1303               	bcf	3,6	;RP1=0, select bank1
  2920     08E3  00D0               	movwf	(function_monitoreo_ambiental@value_potenciometro+1)^(0+128)
  2921     08E4  0870               	movf	?_adc_conversion,w
  2922     08E5  00CF               	movwf	function_monitoreo_ambiental@value_potenciometro^(0+128)
  2923     08E6                     l4027:
  2924                           
  2925                           ;mainseguridad.c: 192:         _delay((unsigned long)((10)*(8000000/4000.0)));
  2926     08E6  301A               	movlw	26
  2927     08E7  1683               	bsf	3,5	;RP0=1, select bank1
  2928     08E8  1303               	bcf	3,6	;RP1=0, select bank1
  2929     08E9  00CD               	movwf	(??_function_monitoreo_ambiental^(0+128)+1)
  2930     08EA  30F7               	movlw	247
  2931     08EB  00CC               	movwf	??_function_monitoreo_ambiental^(0+128)
  2932     08EC                     u5727:
  2933     08EC  0BCC               	decfsz	??_function_monitoreo_ambiental^(0+128),f
  2934     08ED  28EC               	goto	u5727
  2935     08EE  0BCD               	decfsz	(??_function_monitoreo_ambiental^(0+128)+1),f
  2936     08EF  28EC               	goto	u5727
  2937     08F0  28F1               	nop2
  2938     08F1                     l4029:
  2939                           
  2940                           ;mainseguridad.c: 193:         int value_temperature= adc_conversion(1);
  2941     08F1  3001               	movlw	1
  2942     08F2  00F0               	movwf	adc_conversion@channel
  2943     08F3  3000               	movlw	0
  2944     08F4  00F1               	movwf	adc_conversion@channel+1
  2945     08F5  160A  118A  2233  120A  158A  	fcall	_adc_conversion
  2946     08FA  0871               	movf	?_adc_conversion+1,w
  2947     08FB  1683               	bsf	3,5	;RP0=1, select bank1
  2948     08FC  1303               	bcf	3,6	;RP1=0, select bank1
  2949     08FD  00D4               	movwf	(function_monitoreo_ambiental@value_temperature+1)^(0+128)
  2950     08FE  0870               	movf	?_adc_conversion,w
  2951     08FF  00D3               	movwf	function_monitoreo_ambiental@value_temperature^(0+128)
  2952     0900                     l4031:
  2953                           
  2954                           ;mainseguridad.c: 194:         int tempcelsius = convertir_temperature(value_temperature
      +                          );
  2955     0900  0854               	movf	(function_monitoreo_ambiental@value_temperature+1)^(0+128),w
  2956     0901  00B5               	movwf	(convertir_temperature@temperature+1)^(0+128)
  2957     0902  0853               	movf	function_monitoreo_ambiental@value_temperature^(0+128),w
  2958     0903  00B4               	movwf	convertir_temperature@temperature^(0+128)
  2959     0904  120A  158A  2675  120A  158A  	fcall	_convertir_temperature
  2960     0909  1683               	bsf	3,5	;RP0=1, select bank1
  2961     090A  1303               	bcf	3,6	;RP1=0, select bank1
  2962     090B  0835               	movf	(?_convertir_temperature+1)^(0+128),w
  2963     090C  00D2               	movwf	(function_monitoreo_ambiental@tempcelsius+1)^(0+128)
  2964     090D  0834               	movf	?_convertir_temperature^(0+128),w
  2965     090E  00D1               	movwf	function_monitoreo_ambiental@tempcelsius^(0+128)
  2966     090F                     l4033:
  2967                           
  2968                           ;mainseguridad.c: 195:         _delay((unsigned long)((10)*(8000000/4000.0)));
  2969     090F  301A               	movlw	26
  2970     0910  1683               	bsf	3,5	;RP0=1, select bank1
  2971     0911  1303               	bcf	3,6	;RP1=0, select bank1
  2972     0912  00CD               	movwf	(??_function_monitoreo_ambiental^(0+128)+1)
  2973     0913  30F7               	movlw	247
  2974     0914  00CC               	movwf	??_function_monitoreo_ambiental^(0+128)
  2975     0915                     u5737:
  2976     0915  0BCC               	decfsz	??_function_monitoreo_ambiental^(0+128),f
  2977     0916  2915               	goto	u5737
  2978     0917  0BCD               	decfsz	(??_function_monitoreo_ambiental^(0+128)+1),f
  2979     0918  2915               	goto	u5737
  2980     0919  291A               	nop2
  2981     091A                     l4035:
  2982                           
  2983                           ;mainseguridad.c: 196:         value_fotocelda= adc_conversion(4);
  2984     091A  3004               	movlw	4
  2985     091B  00F0               	movwf	adc_conversion@channel
  2986     091C  3000               	movlw	0
  2987     091D  00F1               	movwf	adc_conversion@channel+1
  2988     091E  160A  118A  2233  120A  158A  	fcall	_adc_conversion
  2989     0923  0871               	movf	?_adc_conversion+1,w
  2990     0924  1683               	bsf	3,5	;RP0=1, select bank1
  2991     0925  1303               	bcf	3,6	;RP1=0, select bank1
  2992     0926  00DB               	movwf	(_value_fotocelda+1)^(0+128)
  2993     0927  0870               	movf	?_adc_conversion,w
  2994     0928  00DA               	movwf	_value_fotocelda^(0+128)
  2995     0929                     l4037:
  2996     0929  3080               	movlw	(low ((STR_4-__stringbase)| (0+32768)))& (0+255)
  2997     092A  1283               	bcf	3,5	;RP0=0, select bank0
  2998     092B  1303               	bcf	3,6	;RP1=0, select bank0
  2999     092C  00A0               	movwf	sprintf@f
  3000     092D  1683               	bsf	3,5	;RP0=1, select bank1
  3001     092E  1303               	bcf	3,6	;RP1=0, select bank1
  3002     092F  0850               	movf	(function_monitoreo_ambiental@value_potenciometro+1)^(0+128),w
  3003     0930  1283               	bcf	3,5	;RP0=0, select bank0
  3004     0931  1303               	bcf	3,6	;RP1=0, select bank0
  3005     0932  00A2               	movwf	?_sprintf+2
  3006     0933  1683               	bsf	3,5	;RP0=1, select bank1
  3007     0934  1303               	bcf	3,6	;RP1=0, select bank1
  3008     0935  084F               	movf	function_monitoreo_ambiental@value_potenciometro^(0+128),w
  3009     0936  1283               	bcf	3,5	;RP0=0, select bank0
  3010     0937  1303               	bcf	3,6	;RP1=0, select bank0
  3011     0938  00A1               	movwf	?_sprintf+1
  3012     0939  1683               	bsf	3,5	;RP0=1, select bank1
  3013     093A  1303               	bcf	3,6	;RP1=0, select bank1
  3014     093B  0852               	movf	(function_monitoreo_ambiental@tempcelsius+1)^(0+128),w
  3015     093C  1283               	bcf	3,5	;RP0=0, select bank0
  3016     093D  1303               	bcf	3,6	;RP1=0, select bank0
  3017     093E  00A4               	movwf	?_sprintf+4
  3018     093F  1683               	bsf	3,5	;RP0=1, select bank1
  3019     0940  1303               	bcf	3,6	;RP1=0, select bank1
  3020     0941  0851               	movf	function_monitoreo_ambiental@tempcelsius^(0+128),w
  3021     0942  1283               	bcf	3,5	;RP0=0, select bank0
  3022     0943  1303               	bcf	3,6	;RP1=0, select bank0
  3023     0944  00A3               	movwf	?_sprintf+3
  3024     0945  3090               	movlw	(low (_buffer| (0+256)))& (0+255)
  3025     0946  120A  158A  243D  120A  158A  	fcall	_sprintf
  3026     094B                     l4039:
  3027                           
  3028                           ;mainseguridad.c: 198:            LCD_String_xy(1,0,buffer);
  3029     094B  01F5               	clrf	LCD_String_xy@pos
  3030     094C  3090               	movlw	(low (_buffer| (0+256)))& (0+255)
  3031     094D  00F6               	movwf	LCD_String_xy@msg
  3032     094E  3001               	movlw	1
  3033     094F  00F7               	movwf	LCD_String_xy@msg+1
  3034     0950  3001               	movlw	1
  3035     0951  160A  118A  229D  120A  158A  	fcall	_LCD_String_xy
  3036     0956                     l4041:
  3037     0956  30BC               	movlw	(low ((STR_5-__stringbase)| (0+32768)))& (0+255)
  3038     0957  1283               	bcf	3,5	;RP0=0, select bank0
  3039     0958  1303               	bcf	3,6	;RP1=0, select bank0
  3040     0959  00A0               	movwf	sprintf@f
  3041     095A  1683               	bsf	3,5	;RP0=1, select bank1
  3042     095B  1303               	bcf	3,6	;RP1=0, select bank1
  3043     095C  085B               	movf	(_value_fotocelda+1)^(0+128),w
  3044     095D  1283               	bcf	3,5	;RP0=0, select bank0
  3045     095E  1303               	bcf	3,6	;RP1=0, select bank0
  3046     095F  00A2               	movwf	?_sprintf+2
  3047     0960  1683               	bsf	3,5	;RP0=1, select bank1
  3048     0961  1303               	bcf	3,6	;RP1=0, select bank1
  3049     0962  085A               	movf	_value_fotocelda^(0+128),w
  3050     0963  1283               	bcf	3,5	;RP0=0, select bank0
  3051     0964  1303               	bcf	3,6	;RP1=0, select bank0
  3052     0965  00A1               	movwf	?_sprintf+1
  3053     0966  3090               	movlw	(low (_buffer| (0+256)))& (0+255)
  3054     0967  120A  158A  243D  120A  158A  	fcall	_sprintf
  3055     096C                     l4043:
  3056                           
  3057                           ;mainseguridad.c: 200:            LCD_String_xy(2,0,buffer);
  3058     096C  01F5               	clrf	LCD_String_xy@pos
  3059     096D  3090               	movlw	(low (_buffer| (0+256)))& (0+255)
  3060     096E  00F6               	movwf	LCD_String_xy@msg
  3061     096F  3001               	movlw	1
  3062     0970  00F7               	movwf	LCD_String_xy@msg+1
  3063     0971  3002               	movlw	2
  3064     0972  160A  118A  229D  120A  158A  	fcall	_LCD_String_xy
  3065     0977                     l4045:
  3066                           
  3067                           ;mainseguridad.c: 203:     if(value_temperature > 30 ){
  3068     0977  1683               	bsf	3,5	;RP0=1, select bank1
  3069     0978  1303               	bcf	3,6	;RP1=0, select bank1
  3070     0979  0854               	movf	(function_monitoreo_ambiental@value_temperature+1)^(0+128),w
  3071     097A  3A80               	xorlw	128
  3072     097B  00FF               	movwf	btemp+1
  3073     097C  3080               	movlw	128
  3074     097D  027F               	subwf	btemp+1,w
  3075     097E  1D03               	skipz
  3076     097F  2982               	goto	u5575
  3077     0980  301F               	movlw	31
  3078     0981  0253               	subwf	function_monitoreo_ambiental@value_temperature^(0+128),w
  3079     0982                     u5575:
  3080     0982  1C03               	skipc
  3081     0983  2985               	goto	u5571
  3082     0984  2986               	goto	u5570
  3083     0985                     u5571:
  3084     0985  298B               	goto	l238
  3085     0986                     u5570:
  3086     0986                     l4047:
  3087                           
  3088                           ;mainseguridad.c: 204:         estado = alarma_ambiental;
  3089     0986  3005               	movlw	5
  3090     0987  1283               	bcf	3,5	;RP0=0, select bank0
  3091     0988  1303               	bcf	3,6	;RP1=0, select bank0
  3092     0989  00EF               	movwf	_estado
  3093                           
  3094                           ;mainseguridad.c: 205:     }
  3095     098A  298F               	goto	l4049
  3096     098B                     l238:	
  3097                           ;mainseguridad.c: 206:     else{
  3098                           
  3099                           
  3100                           ;mainseguridad.c: 207:            estado = monitoreo_digital;
  3101     098B  1283               	bcf	3,5	;RP0=0, select bank0
  3102     098C  1303               	bcf	3,6	;RP1=0, select bank0
  3103     098D  01EF               	clrf	_estado
  3104     098E  0AEF               	incf	_estado,f
  3105     098F                     l4049:
  3106                           
  3107                           ;mainseguridad.c: 209:     _delay((unsigned long)((3000)*(8000000/4000.0)));
  3108     098F  301F               	movlw	31
  3109     0990  1683               	bsf	3,5	;RP0=1, select bank1
  3110     0991  1303               	bcf	3,6	;RP1=0, select bank1
  3111     0992  00CE               	movwf	(??_function_monitoreo_ambiental^(0+128)+2)
  3112     0993  3071               	movlw	113
  3113     0994  00CD               	movwf	(??_function_monitoreo_ambiental^(0+128)+1)
  3114     0995  301D               	movlw	29
  3115     0996  00CC               	movwf	??_function_monitoreo_ambiental^(0+128)
  3116     0997                     u5747:
  3117     0997  0BCC               	decfsz	??_function_monitoreo_ambiental^(0+128),f
  3118     0998  2997               	goto	u5747
  3119     0999  0BCD               	decfsz	(??_function_monitoreo_ambiental^(0+128)+1),f
  3120     099A  2997               	goto	u5747
  3121     099B  0BCE               	decfsz	(??_function_monitoreo_ambiental^(0+128)+2),f
  3122     099C  2997               	goto	u5747
  3123     099D  299E               	nop2
  3124     099E                     l240:
  3125     099E  0008               	return
  3126     099F                     __end_of_function_monitoreo_ambiental:
  3127                           
  3128                           	psect	text8
  3129     0C3D                     __ptext8:	
  3130 ;; *************** function _sprintf *****************
  3131 ;; Defined at:
  3132 ;;		line 505 in file "C:\Program Files\Microchip\xc8\v2.41\pic\sources\c90\common\doprnt.c"
  3133 ;; Parameters:    Size  Location     Type
  3134 ;;  sp              1    wreg     PTR unsigned char 
  3135 ;;		 -> buffer(17), 
  3136 ;;  f               1    0[BANK0 ] PTR const unsigned char 
  3137 ;;		 -> STR_5(5), STR_4(10), STR_3(18), 
  3138 ;; Auto vars:     Size  Location     Type
  3139 ;;  sp              1   17[BANK0 ] PTR unsigned char 
  3140 ;;		 -> buffer(17), 
  3141 ;;  tmpval          4    0        struct .
  3142 ;;  val             2   15[BANK0 ] unsigned int 
  3143 ;;  ccnt            2   12[BANK0 ] int 
  3144 ;;  cp              2    0        PTR const unsigned char 
  3145 ;;  len             2    0        unsigned int 
  3146 ;;  c               1   18[BANK0 ] unsigned char 
  3147 ;;  prec            1   14[BANK0 ] char 
  3148 ;;  flag            1   11[BANK0 ] unsigned char 
  3149 ;;  ap              1   10[BANK0 ] PTR void [1]
  3150 ;;		 -> ?_sprintf(2), 
  3151 ;; Return value:  Size  Location     Type
  3152 ;;                  2    0[BANK0 ] int 
  3153 ;; Registers used:
  3154 ;;		wreg, fsr0l, fsr0h, status,2, status,0, btemp+1, pclath, cstack
  3155 ;; Tracked objects:
  3156 ;;		On entry : 0/0
  3157 ;;		On exit  : 0/0
  3158 ;;		Unchanged: 0/0
  3159 ;; Data sizes:     COMMON   BANK0   BANK1   BANK3   BANK2
  3160 ;;      Params:         0       7       0       0       0
  3161 ;;      Locals:         0       9       0       0       0
  3162 ;;      Temps:          0       3       0       0       0
  3163 ;;      Totals:         0      19       0       0       0
  3164 ;;Total ram usage:       19 bytes
  3165 ;; Hardware stack levels used: 1
  3166 ;; Hardware stack levels required when called: 1
  3167 ;; This function calls:
  3168 ;;		___lwdiv
  3169 ;;		___lwmod
  3170 ;; This function is called by:
  3171 ;;		_function_monitoreo_digital
  3172 ;;		_function_monitoreo_ambiental
  3173 ;; This function uses a non-reentrant model
  3174 ;;
  3175                           
  3176     0C3D                     _sprintf:	
  3177                           ;psect for function _sprintf
  3178                           
  3179                           
  3180                           ;incstack = 0
  3181                           ; Regs used in _sprintf: [wreg-fsr0h+status,2+status,0+btemp+1+pclath+cstack]
  3182                           ;sprintf@sp stored from wreg
  3183     0C3D  1283               	bcf	3,5	;RP0=0, select bank0
  3184     0C3E  1303               	bcf	3,6	;RP1=0, select bank0
  3185     0C3F  00B1               	movwf	sprintf@sp
  3186     0C40                     l3155:
  3187                           
  3188                           ;C:\Program Files\Microchip\xc8\v2.41\pic\sources\c90\common\doprnt.c: 505: sprintf(char
      +                           * sp, const char * f, ...);C:\Program Files\Microchip\xc8\v2.41\pic\sources\c90\common\
      +                          doprnt.c: 506: {;C:\Program Files\Microchip\xc8\v2.41\pic\sources\c90\common\doprnt.c: 5
      +                          07:  va_list ap;;C:\Program Files\Microchip\xc8\v2.41\pic\sources\c90\common\doprnt.c: 5
      +                          12:  char c;;C:\Program Files\Microchip\xc8\v2.41\pic\sources\c90\common\doprnt.c: 521: 
      +                           signed char prec;;C:\Program Files\Microchip\xc8\v2.41\pic\sources\c90\common\doprnt.c:
      +                           525:  unsigned char flag;
  3189     0C40  01AC               	clrf	sprintf@ccnt
  3190     0C41  01AD               	clrf	sprintf@ccnt+1
  3191     0C42                     l3157:
  3192                           
  3193                           ;C:\Program Files\Microchip\xc8\v2.41\pic\sources\c90\common\doprnt.c: 543:  } tmpval;;C
      +                          :\Program Files\Microchip\xc8\v2.41\pic\sources\c90\common\doprnt.c: 545:  unsigned int 
      +                          val;;C:\Program Files\Microchip\xc8\v2.41\pic\sources\c90\common\doprnt.c: 546:  unsigne
      +                          d len;;C:\Program Files\Microchip\xc8\v2.41\pic\sources\c90\common\doprnt.c: 547:  const
      +                           char * cp;;C:\Program Files\Microchip\xc8\v2.41\pic\sources\c90\common\doprnt.c: 550:  
      +                          *ap = __va_start();
  3194     0C42  3021               	movlw	(low ((?_sprintf| 0+1)))& (0+255)
  3195     0C43  00AA               	movwf	sprintf@ap
  3196                           
  3197                           ;C:\Program Files\Microchip\xc8\v2.41\pic\sources\c90\common\doprnt.c: 553:  while((c = 
      +                          *f++)) {
  3198     0C44  2D16               	goto	l3217
  3199     0C45                     l3159:
  3200                           
  3201                           ;C:\Program Files\Microchip\xc8\v2.41\pic\sources\c90\common\doprnt.c: 555:   if(c != '%
      +                          ')
  3202     0C45  3025               	movlw	37
  3203     0C46  0632               	xorwf	sprintf@c,w
  3204     0C47  1903               	btfsc	3,2
  3205     0C48  2C4A               	goto	u4181
  3206     0C49  2C4B               	goto	u4180
  3207     0C4A                     u4181:
  3208     0C4A  2C5B               	goto	l3167
  3209     0C4B                     u4180:
  3210     0C4B                     l3161:
  3211                           
  3212                           ;C:\Program Files\Microchip\xc8\v2.41\pic\sources\c90\common\doprnt.c: 557:   {;C:\Progr
      +                          am Files\Microchip\xc8\v2.41\pic\sources\c90\common\doprnt.c: 558:    ((*sp++ = (c)),(++
      +                          ccnt));
  3213     0C4B  0831               	movf	sprintf@sp,w
  3214     0C4C  0084               	movwf	4
  3215     0C4D  0832               	movf	sprintf@c,w
  3216     0C4E  1783               	bsf	3,7	;select IRP bank2
  3217     0C4F  0080               	movwf	0
  3218     0C50                     l3163:
  3219     0C50  3001               	movlw	1
  3220     0C51  00FF               	movwf	btemp+1
  3221     0C52  087F               	movf	btemp+1,w
  3222     0C53  07B1               	addwf	sprintf@sp,f
  3223     0C54                     l3165:
  3224     0C54  3001               	movlw	1
  3225     0C55  07AC               	addwf	sprintf@ccnt,f
  3226     0C56  1803               	skipnc
  3227     0C57  0AAD               	incf	sprintf@ccnt+1,f
  3228     0C58  3000               	movlw	0
  3229     0C59  07AD               	addwf	sprintf@ccnt+1,f
  3230                           
  3231                           ;C:\Program Files\Microchip\xc8\v2.41\pic\sources\c90\common\doprnt.c: 559:    continue;
  3232     0C5A  2D16               	goto	l3217
  3233     0C5B                     l3167:
  3234                           
  3235                           ;C:\Program Files\Microchip\xc8\v2.41\pic\sources\c90\common\doprnt.c: 565:   flag = 0;
  3236     0C5B  01AB               	clrf	sprintf@flag
  3237     0C5C                     l3171:	
  3238                           ;C:\Program Files\Microchip\xc8\v2.41\pic\sources\c90\common\doprnt.c: 661:   switch(c =
      +                           *f++) {
  3239                           
  3240     0C5C  3001               	movlw	1
  3241     0C5D  07A0               	addwf	sprintf@f,f
  3242     0C5E  30FF               	movlw	-1
  3243     0C5F  0720               	addwf	sprintf@f,w
  3244     0C60  0084               	movwf	4
  3245     0C61  120A  158A  200A  120A  158A  	fcall	stringdir
  3246     0C66  00B2               	movwf	sprintf@c
  3247     0C67  00A7               	movwf	??_sprintf
  3248     0C68  01A8               	clrf	??_sprintf+1
  3249                           
  3250                           ; Switch on 2 bytes has been partitioned into a top level switch of size 1, and 1 sub-sw
      +                          itches
  3251                           ; Switch size 1, requested type "simple"
  3252                           ; Number of cases is 1, Range of values is 0 to 0
  3253                           ; switch strategies available:
  3254                           ; Name         Instructions Cycles
  3255                           ; simple_byte            4     3 (average)
  3256                           ; direct_byte           11     8 (fixed)
  3257                           ; jumptable            260     6 (fixed)
  3258                           ;	Chosen strategy is simple_byte
  3259     0C69  0828               	movf	??_sprintf+1,w
  3260     0C6A  3A00               	xorlw	0	; case 0
  3261     0C6B  1903               	skipnz
  3262     0C6C  2C6E               	goto	l4131
  3263     0C6D  2D16               	goto	l3217
  3264     0C6E                     l4131:
  3265                           
  3266                           ; Switch size 1, requested type "simple"
  3267                           ; Number of cases is 3, Range of values is 0 to 105
  3268                           ; switch strategies available:
  3269                           ; Name         Instructions Cycles
  3270                           ; simple_byte           10     6 (average)
  3271                           ; jumptable            260     6 (fixed)
  3272                           ;	Chosen strategy is simple_byte
  3273     0C6E  0827               	movf	??_sprintf,w
  3274     0C6F  3A00               	xorlw	0	; case 0
  3275     0C70  1903               	skipnz
  3276     0C71  2D26               	goto	l3219
  3277     0C72  3A64               	xorlw	100	; case 100
  3278     0C73  1903               	skipnz
  3279     0C74  2C79               	goto	l3173
  3280     0C75  3A0D               	xorlw	13	; case 105
  3281     0C76  1903               	skipnz
  3282     0C77  2C79               	goto	l3173
  3283     0C78  2D16               	goto	l3217
  3284     0C79                     l3173:
  3285                           
  3286                           ;C:\Program Files\Microchip\xc8\v2.41\pic\sources\c90\common\doprnt.c: 1279:   {;C:\Prog
      +                          ram Files\Microchip\xc8\v2.41\pic\sources\c90\common\doprnt.c: 1285:     val = (unsigned
      +                           int)(*(int *)__va_arg((*(int **)ap), (int)0));
  3287     0C79  082A               	movf	sprintf@ap,w
  3288     0C7A  0084               	movwf	4
  3289     0C7B  1383               	bcf	3,7	;select IRP bank0
  3290     0C7C  0800               	movf	0,w
  3291     0C7D  00AF               	movwf	sprintf@val
  3292     0C7E  0A84               	incf	4,f
  3293     0C7F  0800               	movf	0,w
  3294     0C80  00B0               	movwf	sprintf@val+1
  3295     0C81                     l3175:
  3296     0C81  3002               	movlw	2
  3297     0C82  00FF               	movwf	btemp+1
  3298     0C83  087F               	movf	btemp+1,w
  3299     0C84  07AA               	addwf	sprintf@ap,f
  3300     0C85                     l3177:
  3301                           
  3302                           ;C:\Program Files\Microchip\xc8\v2.41\pic\sources\c90\common\doprnt.c: 1287:    if((int)
      +                          val < 0) {
  3303     0C85  1FB0               	btfss	sprintf@val+1,7
  3304     0C86  2C88               	goto	u4191
  3305     0C87  2C89               	goto	u4190
  3306     0C88                     u4191:
  3307     0C88  2C92               	goto	l3183
  3308     0C89                     u4190:
  3309     0C89                     l3179:
  3310                           
  3311                           ;C:\Program Files\Microchip\xc8\v2.41\pic\sources\c90\common\doprnt.c: 1288:     flag |=
      +                           0x03;
  3312     0C89  3003               	movlw	3
  3313     0C8A  00FF               	movwf	btemp+1
  3314     0C8B  087F               	movf	btemp+1,w
  3315     0C8C  04AB               	iorwf	sprintf@flag,f
  3316     0C8D                     l3181:
  3317                           
  3318                           ;C:\Program Files\Microchip\xc8\v2.41\pic\sources\c90\common\doprnt.c: 1289:     val = -
      +                          val;
  3319     0C8D  09AF               	comf	sprintf@val,f
  3320     0C8E  09B0               	comf	sprintf@val+1,f
  3321     0C8F  0AAF               	incf	sprintf@val,f
  3322     0C90  1903               	skipnz
  3323     0C91  0AB0               	incf	sprintf@val+1,f
  3324     0C92                     l3183:
  3325                           
  3326                           ;C:\Program Files\Microchip\xc8\v2.41\pic\sources\c90\common\doprnt.c: 1292:   };C:\Prog
      +                          ram Files\Microchip\xc8\v2.41\pic\sources\c90\common\doprnt.c: 1331:    for(c = 1 ; c !=
      +                           sizeof dpowers/sizeof dpowers[0] ; c++)
  3327     0C92  01B2               	clrf	sprintf@c
  3328     0C93  0AB2               	incf	sprintf@c,f
  3329     0C94                     l3189:
  3330                           
  3331                           ;C:\Program Files\Microchip\xc8\v2.41\pic\sources\c90\common\doprnt.c: 1332:     if(val 
      +                          < dpowers[c])
  3332     0C94  0832               	movf	sprintf@c,w
  3333     0C95  00A7               	movwf	??_sprintf
  3334     0C96  0727               	addwf	??_sprintf,w
  3335     0C97  3E01               	addlw	low ((_dpowers-__stringbase)| (0+32768))
  3336     0C98  0084               	movwf	4
  3337     0C99  120A  158A  200A  120A  158A  	fcall	stringdir
  3338     0C9E  00A8               	movwf	??_sprintf+1
  3339     0C9F  120A  158A  200A  120A  158A  	fcall	stringdir
  3340     0CA4  00A9               	movwf	??_sprintf+2
  3341     0CA5  0829               	movf	??_sprintf+2,w
  3342     0CA6  0230               	subwf	sprintf@val+1,w
  3343     0CA7  1D03               	skipz
  3344     0CA8  2CAB               	goto	u4205
  3345     0CA9  0828               	movf	??_sprintf+1,w
  3346     0CAA  022F               	subwf	sprintf@val,w
  3347     0CAB                     u4205:
  3348     0CAB  1803               	skipnc
  3349     0CAC  2CAE               	goto	u4201
  3350     0CAD  2CAF               	goto	u4200
  3351     0CAE                     u4201:
  3352     0CAE  2CB0               	goto	l3193
  3353     0CAF                     u4200:
  3354     0CAF  2CBA               	goto	l3197
  3355     0CB0                     l3193:
  3356     0CB0  3001               	movlw	1
  3357     0CB1  00FF               	movwf	btemp+1
  3358     0CB2  087F               	movf	btemp+1,w
  3359     0CB3  07B2               	addwf	sprintf@c,f
  3360     0CB4                     l3195:
  3361     0CB4  3005               	movlw	5
  3362     0CB5  0632               	xorwf	sprintf@c,w
  3363     0CB6  1D03               	btfss	3,2
  3364     0CB7  2CB9               	goto	u4211
  3365     0CB8  2CBA               	goto	u4210
  3366     0CB9                     u4211:
  3367     0CB9  2C94               	goto	l3189
  3368     0CBA                     u4210:
  3369     0CBA                     l3197:
  3370                           
  3371                           ;C:\Program Files\Microchip\xc8\v2.41\pic\sources\c90\common\doprnt.c: 1448:   {;C:\Prog
      +                          ram Files\Microchip\xc8\v2.41\pic\sources\c90\common\doprnt.c: 1464:    if(flag & 0x03)
  3372     0CBA  082B               	movf	sprintf@flag,w
  3373     0CBB  3903               	andlw	3
  3374     0CBC  1903               	btfsc	3,2
  3375     0CBD  2CBF               	goto	u4221
  3376     0CBE  2CC0               	goto	u4220
  3377     0CBF                     u4221:
  3378     0CBF  2CCF               	goto	l3205
  3379     0CC0                     u4220:
  3380     0CC0                     l3199:
  3381                           
  3382                           ;C:\Program Files\Microchip\xc8\v2.41\pic\sources\c90\common\doprnt.c: 1465:     ((*sp++
      +                           = ('-')),(++ccnt));
  3383     0CC0  0831               	movf	sprintf@sp,w
  3384     0CC1  0084               	movwf	4
  3385     0CC2  302D               	movlw	45
  3386     0CC3  1783               	bsf	3,7	;select IRP bank2
  3387     0CC4  0080               	movwf	0
  3388     0CC5                     l3201:
  3389     0CC5  3001               	movlw	1
  3390     0CC6  00FF               	movwf	btemp+1
  3391     0CC7  087F               	movf	btemp+1,w
  3392     0CC8  07B1               	addwf	sprintf@sp,f
  3393     0CC9                     l3203:
  3394     0CC9  3001               	movlw	1
  3395     0CCA  07AC               	addwf	sprintf@ccnt,f
  3396     0CCB  1803               	skipnc
  3397     0CCC  0AAD               	incf	sprintf@ccnt+1,f
  3398     0CCD  3000               	movlw	0
  3399     0CCE  07AD               	addwf	sprintf@ccnt+1,f
  3400     0CCF                     l3205:
  3401                           
  3402                           ;C:\Program Files\Microchip\xc8\v2.41\pic\sources\c90\common\doprnt.c: 1495:   };C:\Prog
      +                          ram Files\Microchip\xc8\v2.41\pic\sources\c90\common\doprnt.c: 1498:   prec = c;
  3403     0CCF  0832               	movf	sprintf@c,w
  3404     0CD0  00AE               	movwf	sprintf@prec
  3405                           
  3406                           ;C:\Program Files\Microchip\xc8\v2.41\pic\sources\c90\common\doprnt.c: 1500:   while(pre
      +                          c--) {
  3407     0CD1  2D0D               	goto	l3215
  3408     0CD2                     l3207:
  3409                           
  3410                           ;C:\Program Files\Microchip\xc8\v2.41\pic\sources\c90\common\doprnt.c: 1504:    {;C:\Pro
      +                          gram Files\Microchip\xc8\v2.41\pic\sources\c90\common\doprnt.c: 1515:     c = (val / dpo
      +                          wers[(unsigned char)prec]) % 10 + '0';
  3411     0CD2  300A               	movlw	10
  3412     0CD3  00F7               	movwf	___lwmod@divisor
  3413     0CD4  3000               	movlw	0
  3414     0CD5  00F8               	movwf	___lwmod@divisor+1
  3415     0CD6  082E               	movf	sprintf@prec,w
  3416     0CD7  00A7               	movwf	??_sprintf
  3417     0CD8  0727               	addwf	??_sprintf,w
  3418     0CD9  3E01               	addlw	low ((_dpowers-__stringbase)| (0+32768))
  3419     0CDA  0084               	movwf	4
  3420     0CDB  120A  158A  200A  120A  158A  	fcall	stringdir
  3421     0CE0  00F0               	movwf	___lwdiv@divisor
  3422     0CE1  120A  158A  200A  120A  158A  	fcall	stringdir
  3423     0CE6  00F1               	movwf	___lwdiv@divisor+1
  3424     0CE7  0830               	movf	sprintf@val+1,w
  3425     0CE8  00F3               	movwf	___lwdiv@dividend+1
  3426     0CE9  082F               	movf	sprintf@val,w
  3427     0CEA  00F2               	movwf	___lwdiv@dividend
  3428     0CEB  160A  118A  2451  120A  158A  	fcall	___lwdiv
  3429     0CF0  0871               	movf	?___lwdiv+1,w
  3430     0CF1  00FA               	movwf	___lwmod@dividend+1
  3431     0CF2  0870               	movf	?___lwdiv,w
  3432     0CF3  00F9               	movwf	___lwmod@dividend
  3433     0CF4  160A  118A  2417  120A  158A  	fcall	___lwmod
  3434     0CF9  0877               	movf	?___lwmod,w
  3435     0CFA  3E30               	addlw	48
  3436     0CFB  1283               	bcf	3,5	;RP0=0, select bank0
  3437     0CFC  1303               	bcf	3,6	;RP1=0, select bank0
  3438     0CFD  00B2               	movwf	sprintf@c
  3439     0CFE                     l3209:
  3440                           
  3441                           ;C:\Program Files\Microchip\xc8\v2.41\pic\sources\c90\common\doprnt.c: 1549:    };C:\Pro
      +                          gram Files\Microchip\xc8\v2.41\pic\sources\c90\common\doprnt.c: 1550:    ((*sp++ = (c)),
      +                          (++ccnt));
  3442     0CFE  0831               	movf	sprintf@sp,w
  3443     0CFF  0084               	movwf	4
  3444     0D00  0832               	movf	sprintf@c,w
  3445     0D01  1783               	bsf	3,7	;select IRP bank2
  3446     0D02  0080               	movwf	0
  3447     0D03                     l3211:
  3448     0D03  3001               	movlw	1
  3449     0D04  00FF               	movwf	btemp+1
  3450     0D05  087F               	movf	btemp+1,w
  3451     0D06  07B1               	addwf	sprintf@sp,f
  3452     0D07                     l3213:
  3453     0D07  3001               	movlw	1
  3454     0D08  07AC               	addwf	sprintf@ccnt,f
  3455     0D09  1803               	skipnc
  3456     0D0A  0AAD               	incf	sprintf@ccnt+1,f
  3457     0D0B  3000               	movlw	0
  3458     0D0C  07AD               	addwf	sprintf@ccnt+1,f
  3459     0D0D                     l3215:
  3460                           
  3461                           ;C:\Program Files\Microchip\xc8\v2.41\pic\sources\c90\common\doprnt.c: 1500:   while(pre
      +                          c--) {
  3462     0D0D  30FF               	movlw	255
  3463     0D0E  00FF               	movwf	btemp+1
  3464     0D0F  087F               	movf	btemp+1,w
  3465     0D10  07AE               	addwf	sprintf@prec,f
  3466     0D11  0A2E               	incf	sprintf@prec,w
  3467     0D12  1D03               	btfss	3,2
  3468     0D13  2D15               	goto	u4231
  3469     0D14  2D16               	goto	u4230
  3470     0D15                     u4231:
  3471     0D15  2CD2               	goto	l3207
  3472     0D16                     u4230:
  3473     0D16                     l3217:
  3474                           
  3475                           ;C:\Program Files\Microchip\xc8\v2.41\pic\sources\c90\common\doprnt.c: 553:  while((c = 
      +                          *f++)) {
  3476     0D16  3001               	movlw	1
  3477     0D17  07A0               	addwf	sprintf@f,f
  3478     0D18  30FF               	movlw	-1
  3479     0D19  0720               	addwf	sprintf@f,w
  3480     0D1A  0084               	movwf	4
  3481     0D1B  120A  158A  200A  120A  158A  	fcall	stringdir
  3482     0D20  00B2               	movwf	sprintf@c
  3483     0D21  0832               	movf	sprintf@c,w
  3484     0D22  1D03               	btfss	3,2
  3485     0D23  2D25               	goto	u4241
  3486     0D24  2D26               	goto	u4240
  3487     0D25                     u4241:
  3488     0D25  2C45               	goto	l3159
  3489     0D26                     u4240:
  3490     0D26                     l3219:
  3491                           
  3492                           ;C:\Program Files\Microchip\xc8\v2.41\pic\sources\c90\common\doprnt.c: 1564:  *sp = 0;
  3493     0D26  0831               	movf	sprintf@sp,w
  3494     0D27  0084               	movwf	4
  3495     0D28  1783               	bsf	3,7	;select IRP bank2
  3496     0D29  0180               	clrf	0
  3497     0D2A                     l3221:
  3498                           
  3499                           ;C:\Program Files\Microchip\xc8\v2.41\pic\sources\c90\common\doprnt.c: 1566:  return ccn
      +                          t;
  3500     0D2A  082D               	movf	sprintf@ccnt+1,w
  3501     0D2B  00A1               	movwf	?_sprintf+1
  3502     0D2C  082C               	movf	sprintf@ccnt,w
  3503     0D2D  00A0               	movwf	?_sprintf
  3504     0D2E                     l402:
  3505     0D2E  0008               	return
  3506     0D2F                     __end_of_sprintf:
  3507                           
  3508                           	psect	text9
  3509     1417                     __ptext9:	
  3510 ;; *************** function ___lwmod *****************
  3511 ;; Defined at:
  3512 ;;		line 5 in file "C:\Program Files\Microchip\xc8\v2.41\pic\sources\c90\common\lwmod.c"
  3513 ;; Parameters:    Size  Location     Type
  3514 ;;  divisor         2    7[COMMON] unsigned int 
  3515 ;;  dividend        2    9[COMMON] unsigned int 
  3516 ;; Auto vars:     Size  Location     Type
  3517 ;;  counter         1   11[COMMON] unsigned char 
  3518 ;; Return value:  Size  Location     Type
  3519 ;;                  2    7[COMMON] unsigned int 
  3520 ;; Registers used:
  3521 ;;		wreg, status,2, status,0, btemp+1
  3522 ;; Tracked objects:
  3523 ;;		On entry : 0/0
  3524 ;;		On exit  : 0/0
  3525 ;;		Unchanged: 0/0
  3526 ;; Data sizes:     COMMON   BANK0   BANK1   BANK3   BANK2
  3527 ;;      Params:         4       0       0       0       0
  3528 ;;      Locals:         1       0       0       0       0
  3529 ;;      Temps:          0       0       0       0       0
  3530 ;;      Totals:         5       0       0       0       0
  3531 ;;Total ram usage:        5 bytes
  3532 ;; Hardware stack levels used: 1
  3533 ;; This function calls:
  3534 ;;		Nothing
  3535 ;; This function is called by:
  3536 ;;		_sprintf
  3537 ;; This function uses a non-reentrant model
  3538 ;;
  3539                           
  3540     1417                     ___lwmod:	
  3541                           ;psect for function ___lwmod
  3542                           
  3543     1417                     l2855:	
  3544                           ;incstack = 0
  3545                           ; Regs used in ___lwmod: [wreg+status,2+status,0+btemp+1]
  3546                           
  3547     1417  0877               	movf	___lwmod@divisor,w
  3548     1418  0478               	iorwf	___lwmod@divisor+1,w
  3549     1419  1903               	btfsc	3,2
  3550     141A  2C1C               	goto	u3571
  3551     141B  2C1D               	goto	u3570
  3552     141C                     u3571:
  3553     141C  2C4C               	goto	l2873
  3554     141D                     u3570:
  3555     141D                     l2857:
  3556     141D  01FB               	clrf	___lwmod@counter
  3557     141E  0AFB               	incf	___lwmod@counter,f
  3558     141F  2C2B               	goto	l2863
  3559     1420                     l2859:
  3560     1420  3001               	movlw	1
  3561     1421                     u3585:
  3562     1421  1003               	clrc
  3563     1422  0DF7               	rlf	___lwmod@divisor,f
  3564     1423  0DF8               	rlf	___lwmod@divisor+1,f
  3565     1424  3EFF               	addlw	-1
  3566     1425  1D03               	skipz
  3567     1426  2C21               	goto	u3585
  3568     1427                     l2861:
  3569     1427  3001               	movlw	1
  3570     1428  00FF               	movwf	btemp+1
  3571     1429  087F               	movf	btemp+1,w
  3572     142A  07FB               	addwf	___lwmod@counter,f
  3573     142B                     l2863:
  3574     142B  1FF8               	btfss	___lwmod@divisor+1,7
  3575     142C  2C2E               	goto	u3591
  3576     142D  2C2F               	goto	u3590
  3577     142E                     u3591:
  3578     142E  2C20               	goto	l2859
  3579     142F                     u3590:
  3580     142F                     l2865:
  3581     142F  0878               	movf	___lwmod@divisor+1,w
  3582     1430  027A               	subwf	___lwmod@dividend+1,w
  3583     1431  1D03               	skipz
  3584     1432  2C35               	goto	u3605
  3585     1433  0877               	movf	___lwmod@divisor,w
  3586     1434  0279               	subwf	___lwmod@dividend,w
  3587     1435                     u3605:
  3588     1435  1C03               	skipc
  3589     1436  2C38               	goto	u3601
  3590     1437  2C39               	goto	u3600
  3591     1438                     u3601:
  3592     1438  2C3F               	goto	l2869
  3593     1439                     u3600:
  3594     1439                     l2867:
  3595     1439  0877               	movf	___lwmod@divisor,w
  3596     143A  02F9               	subwf	___lwmod@dividend,f
  3597     143B  0878               	movf	___lwmod@divisor+1,w
  3598     143C  1C03               	skipc
  3599     143D  03FA               	decf	___lwmod@dividend+1,f
  3600     143E  02FA               	subwf	___lwmod@dividend+1,f
  3601     143F                     l2869:
  3602     143F  3001               	movlw	1
  3603     1440                     u3615:
  3604     1440  1003               	clrc
  3605     1441  0CF8               	rrf	___lwmod@divisor+1,f
  3606     1442  0CF7               	rrf	___lwmod@divisor,f
  3607     1443  3EFF               	addlw	-1
  3608     1444  1D03               	skipz
  3609     1445  2C40               	goto	u3615
  3610     1446                     l2871:
  3611     1446  3001               	movlw	1
  3612     1447  02FB               	subwf	___lwmod@counter,f
  3613     1448  1D03               	btfss	3,2
  3614     1449  2C4B               	goto	u3621
  3615     144A  2C4C               	goto	u3620
  3616     144B                     u3621:
  3617     144B  2C2F               	goto	l2865
  3618     144C                     u3620:
  3619     144C                     l2873:
  3620     144C  087A               	movf	___lwmod@dividend+1,w
  3621     144D  00F8               	movwf	?___lwmod+1
  3622     144E  0879               	movf	___lwmod@dividend,w
  3623     144F  00F7               	movwf	?___lwmod
  3624     1450                     l688:
  3625     1450  0008               	return
  3626     1451                     __end_of___lwmod:
  3627                           
  3628                           	psect	text10
  3629     1451                     __ptext10:	
  3630 ;; *************** function ___lwdiv *****************
  3631 ;; Defined at:
  3632 ;;		line 5 in file "C:\Program Files\Microchip\xc8\v2.41\pic\sources\c90\common\lwdiv.c"
  3633 ;; Parameters:    Size  Location     Type
  3634 ;;  divisor         2    0[COMMON] unsigned int 
  3635 ;;  dividend        2    2[COMMON] unsigned int 
  3636 ;; Auto vars:     Size  Location     Type
  3637 ;;  quotient        2    4[COMMON] unsigned int 
  3638 ;;  counter         1    6[COMMON] unsigned char 
  3639 ;; Return value:  Size  Location     Type
  3640 ;;                  2    0[COMMON] unsigned int 
  3641 ;; Registers used:
  3642 ;;		wreg, status,2, status,0, btemp+1
  3643 ;; Tracked objects:
  3644 ;;		On entry : 0/0
  3645 ;;		On exit  : 0/0
  3646 ;;		Unchanged: 0/0
  3647 ;; Data sizes:     COMMON   BANK0   BANK1   BANK3   BANK2
  3648 ;;      Params:         4       0       0       0       0
  3649 ;;      Locals:         3       0       0       0       0
  3650 ;;      Temps:          0       0       0       0       0
  3651 ;;      Totals:         7       0       0       0       0
  3652 ;;Total ram usage:        7 bytes
  3653 ;; Hardware stack levels used: 1
  3654 ;; This function calls:
  3655 ;;		Nothing
  3656 ;; This function is called by:
  3657 ;;		_sprintf
  3658 ;; This function uses a non-reentrant model
  3659 ;;
  3660                           
  3661     1451                     ___lwdiv:	
  3662                           ;psect for function ___lwdiv
  3663                           
  3664     1451                     l2829:	
  3665                           ;incstack = 0
  3666                           ; Regs used in ___lwdiv: [wreg+status,2+status,0+btemp+1]
  3667                           
  3668     1451  01F4               	clrf	___lwdiv@quotient
  3669     1452  01F5               	clrf	___lwdiv@quotient+1
  3670     1453                     l2831:
  3671     1453  0870               	movf	___lwdiv@divisor,w
  3672     1454  0471               	iorwf	___lwdiv@divisor+1,w
  3673     1455  1903               	btfsc	3,2
  3674     1456  2C58               	goto	u3501
  3675     1457  2C59               	goto	u3500
  3676     1458                     u3501:
  3677     1458  2C90               	goto	l2851
  3678     1459                     u3500:
  3679     1459                     l2833:
  3680     1459  01F6               	clrf	___lwdiv@counter
  3681     145A  0AF6               	incf	___lwdiv@counter,f
  3682     145B  2C67               	goto	l2839
  3683     145C                     l2835:
  3684     145C  3001               	movlw	1
  3685     145D                     u3515:
  3686     145D  1003               	clrc
  3687     145E  0DF0               	rlf	___lwdiv@divisor,f
  3688     145F  0DF1               	rlf	___lwdiv@divisor+1,f
  3689     1460  3EFF               	addlw	-1
  3690     1461  1D03               	skipz
  3691     1462  2C5D               	goto	u3515
  3692     1463                     l2837:
  3693     1463  3001               	movlw	1
  3694     1464  00FF               	movwf	btemp+1
  3695     1465  087F               	movf	btemp+1,w
  3696     1466  07F6               	addwf	___lwdiv@counter,f
  3697     1467                     l2839:
  3698     1467  1FF1               	btfss	___lwdiv@divisor+1,7
  3699     1468  2C6A               	goto	u3521
  3700     1469  2C6B               	goto	u3520
  3701     146A                     u3521:
  3702     146A  2C5C               	goto	l2835
  3703     146B                     u3520:
  3704     146B                     l2841:
  3705     146B  3001               	movlw	1
  3706     146C                     u3535:
  3707     146C  1003               	clrc
  3708     146D  0DF4               	rlf	___lwdiv@quotient,f
  3709     146E  0DF5               	rlf	___lwdiv@quotient+1,f
  3710     146F  3EFF               	addlw	-1
  3711     1470  1D03               	skipz
  3712     1471  2C6C               	goto	u3535
  3713     1472  0871               	movf	___lwdiv@divisor+1,w
  3714     1473  0273               	subwf	___lwdiv@dividend+1,w
  3715     1474  1D03               	skipz
  3716     1475  2C78               	goto	u3545
  3717     1476  0870               	movf	___lwdiv@divisor,w
  3718     1477  0272               	subwf	___lwdiv@dividend,w
  3719     1478                     u3545:
  3720     1478  1C03               	skipc
  3721     1479  2C7B               	goto	u3541
  3722     147A  2C7C               	goto	u3540
  3723     147B                     u3541:
  3724     147B  2C83               	goto	l2847
  3725     147C                     u3540:
  3726     147C                     l2843:
  3727     147C  0870               	movf	___lwdiv@divisor,w
  3728     147D  02F2               	subwf	___lwdiv@dividend,f
  3729     147E  0871               	movf	___lwdiv@divisor+1,w
  3730     147F  1C03               	skipc
  3731     1480  03F3               	decf	___lwdiv@dividend+1,f
  3732     1481  02F3               	subwf	___lwdiv@dividend+1,f
  3733     1482                     l2845:
  3734     1482  1474               	bsf	___lwdiv@quotient,0
  3735     1483                     l2847:
  3736     1483  3001               	movlw	1
  3737     1484                     u3555:
  3738     1484  1003               	clrc
  3739     1485  0CF1               	rrf	___lwdiv@divisor+1,f
  3740     1486  0CF0               	rrf	___lwdiv@divisor,f
  3741     1487  3EFF               	addlw	-1
  3742     1488  1D03               	skipz
  3743     1489  2C84               	goto	u3555
  3744     148A                     l2849:
  3745     148A  3001               	movlw	1
  3746     148B  02F6               	subwf	___lwdiv@counter,f
  3747     148C  1D03               	btfss	3,2
  3748     148D  2C8F               	goto	u3561
  3749     148E  2C90               	goto	u3560
  3750     148F                     u3561:
  3751     148F  2C6B               	goto	l2841
  3752     1490                     u3560:
  3753     1490                     l2851:
  3754     1490  0875               	movf	___lwdiv@quotient+1,w
  3755     1491  00F1               	movwf	?___lwdiv+1
  3756     1492  0874               	movf	___lwdiv@quotient,w
  3757     1493  00F0               	movwf	?___lwdiv
  3758     1494                     l678:
  3759     1494  0008               	return
  3760     1495                     __end_of___lwdiv:
  3761                           
  3762                           	psect	text11
  3763     0E75                     __ptext11:	
  3764 ;; *************** function _convertir_temperature *****************
  3765 ;; Defined at:
  3766 ;;		line 403 in file "mainseguridad.c"
  3767 ;; Parameters:    Size  Location     Type
  3768 ;;  temperature     2   20[BANK1 ] int 
  3769 ;; Auto vars:     Size  Location     Type
  3770 ;;  tempC           4   40[BANK1 ] float 
  3771 ;;  a               4   24[BANK1 ] long 
  3772 ;;  tempF           4    0        float 
  3773 ;; Return value:  Size  Location     Type
  3774 ;;                  2   20[BANK1 ] int 
  3775 ;; Registers used:
  3776 ;;		wreg, fsr0l, fsr0h, status,2, status,0, btemp+1, pclath, cstack
  3777 ;; Tracked objects:
  3778 ;;		On entry : 0/0
  3779 ;;		On exit  : 0/0
  3780 ;;		Unchanged: 0/0
  3781 ;; Data sizes:     COMMON   BANK0   BANK1   BANK3   BANK2
  3782 ;;      Params:         0       0       2       0       0
  3783 ;;      Locals:         0       0      20       0       0
  3784 ;;      Temps:          0       0       2       0       0
  3785 ;;      Totals:         0       0      24       0       0
  3786 ;;Total ram usage:       24 bytes
  3787 ;; Hardware stack levels used: 1
  3788 ;; Hardware stack levels required when called: 4
  3789 ;; This function calls:
  3790 ;;		___fladd
  3791 ;;		___fldiv
  3792 ;;		___fltol
  3793 ;;		___xxtofl
  3794 ;;		_log
  3795 ;; This function is called by:
  3796 ;;		_function_monitoreo_ambiental
  3797 ;; This function uses a non-reentrant model
  3798 ;;
  3799                           
  3800     0E75                     _convertir_temperature:	
  3801                           ;psect for function _convertir_temperature
  3802                           
  3803     0E75                     l4009:	
  3804                           ;incstack = 0
  3805                           ; Regs used in _convertir_temperature: [wreg-fsr0h+status,2+status,0+btemp+1+pclath+csta
      +                          ck]
  3806                           
  3807                           
  3808                           ;mainseguridad.c: 405:     long a =1023 - temperature;
  3809     0E75  30FF               	movlw	255
  3810     0E76  1683               	bsf	3,5	;RP0=1, select bank1
  3811     0E77  1303               	bcf	3,6	;RP1=0, select bank1
  3812     0E78  00B6               	movwf	??_convertir_temperature^(0+128)
  3813     0E79  3003               	movlw	3
  3814     0E7A  00B7               	movwf	(??_convertir_temperature^(0+128)+1)
  3815     0E7B  0834               	movf	convertir_temperature@temperature^(0+128),w
  3816     0E7C  0236               	subwf	??_convertir_temperature^(0+128),w
  3817     0E7D  00B8               	movwf	convertir_temperature@a^(0+128)
  3818     0E7E  0835               	movf	(convertir_temperature@temperature+1)^(0+128),w
  3819     0E7F  1C03               	skipc
  3820     0E80  0A35               	incf	(convertir_temperature@temperature+1)^(0+128),w
  3821     0E81  0237               	subwf	(??_convertir_temperature+1)^(0+128),w
  3822     0E82  00B9               	movwf	(convertir_temperature@a+1)^(0+128)
  3823     0E83  01BA               	clrf	(convertir_temperature@a^(0+128)+2)
  3824     0E84  1BB9               	btfsc	(convertir_temperature@a^(0+128)+1),7
  3825     0E85  03BA               	decf	(convertir_temperature@a+2)^(0+128),f
  3826     0E86  083A               	movf	(convertir_temperature@a^(0+128)+2),w
  3827     0E87  00BB               	movwf	(convertir_temperature@a+3)^(0+128)
  3828     0E88                     l4011:
  3829                           
  3830                           ;mainseguridad.c: 407:     float tempC = (float) (4090 /(log((1025.0 * 10 / a - 10) / 10
      +                          ) + 4090 / 298.0) - 273.0);
  3831     0E88  30C1               	movlw	193
  3832     0E89  1283               	bcf	3,5	;RP0=0, select bank0
  3833     0E8A  1303               	bcf	3,6	;RP1=0, select bank0
  3834     0E8B  00DC               	movwf	___fladd@b+3
  3835     0E8C  3020               	movlw	32
  3836     0E8D  00DB               	movwf	___fladd@b+2
  3837     0E8E  3000               	movlw	0
  3838     0E8F  00DA               	movwf	___fladd@b+1
  3839     0E90  3000               	movlw	0
  3840     0E91  00D9               	movwf	___fladd@b
  3841     0E92  1683               	bsf	3,5	;RP0=1, select bank1
  3842     0E93  1303               	bcf	3,6	;RP1=0, select bank1
  3843     0E94  083B               	movf	(convertir_temperature@a+3)^(0+128),w
  3844     0E95  00F3               	movwf	___xxtofl@val+3
  3845     0E96  083A               	movf	(convertir_temperature@a+2)^(0+128),w
  3846     0E97  00F2               	movwf	___xxtofl@val+2
  3847     0E98  0839               	movf	(convertir_temperature@a+1)^(0+128),w
  3848     0E99  00F1               	movwf	___xxtofl@val+1
  3849     0E9A  0838               	movf	convertir_temperature@a^(0+128),w
  3850     0E9B  00F0               	movwf	___xxtofl@val
  3851     0E9C  3001               	movlw	1
  3852     0E9D  160A  118A  2748  120A  158A  	fcall	___xxtofl
  3853     0EA2  0873               	movf	?___xxtofl+3,w
  3854     0EA3  1283               	bcf	3,5	;RP0=0, select bank0
  3855     0EA4  1303               	bcf	3,6	;RP1=0, select bank0
  3856     0EA5  00C2               	movwf	___fldiv@a+3
  3857     0EA6  0872               	movf	?___xxtofl+2,w
  3858     0EA7  00C1               	movwf	___fldiv@a+2
  3859     0EA8  0871               	movf	?___xxtofl+1,w
  3860     0EA9  00C0               	movwf	___fldiv@a+1
  3861     0EAA  0870               	movf	?___xxtofl,w
  3862     0EAB  00BF               	movwf	___fldiv@a
  3863     0EAC  3046               	movlw	70
  3864     0EAD  00C6               	movwf	___fldiv@b+3
  3865     0EAE  3020               	movlw	32
  3866     0EAF  00C5               	movwf	___fldiv@b+2
  3867     0EB0  3028               	movlw	40
  3868     0EB1  00C4               	movwf	___fldiv@b+1
  3869     0EB2  3000               	movlw	0
  3870     0EB3  00C3               	movwf	___fldiv@b
  3871     0EB4  120A  118A  2070  120A  158A  	fcall	___fldiv
  3872     0EB9  1283               	bcf	3,5	;RP0=0, select bank0
  3873     0EBA  1303               	bcf	3,6	;RP1=0, select bank0
  3874     0EBB  0842               	movf	?___fldiv+3,w
  3875     0EBC  00E0               	movwf	___fladd@a+3
  3876     0EBD  0841               	movf	?___fldiv+2,w
  3877     0EBE  00DF               	movwf	___fladd@a+2
  3878     0EBF  0840               	movf	?___fldiv+1,w
  3879     0EC0  00DE               	movwf	___fladd@a+1
  3880     0EC1  083F               	movf	?___fldiv,w
  3881     0EC2  00DD               	movwf	___fladd@a
  3882     0EC3  120A  118A  223F  120A  158A  	fcall	___fladd
  3883     0EC8  1283               	bcf	3,5	;RP0=0, select bank0
  3884     0EC9  1303               	bcf	3,6	;RP1=0, select bank0
  3885     0ECA  085C               	movf	?___fladd+3,w
  3886     0ECB  1683               	bsf	3,5	;RP0=1, select bank1
  3887     0ECC  1303               	bcf	3,6	;RP1=0, select bank1
  3888     0ECD  00BF               	movwf	(_convertir_temperature$1043+3)^(0+128)
  3889     0ECE  1283               	bcf	3,5	;RP0=0, select bank0
  3890     0ECF  1303               	bcf	3,6	;RP1=0, select bank0
  3891     0ED0  085B               	movf	?___fladd+2,w
  3892     0ED1  1683               	bsf	3,5	;RP0=1, select bank1
  3893     0ED2  1303               	bcf	3,6	;RP1=0, select bank1
  3894     0ED3  00BE               	movwf	(_convertir_temperature$1043+2)^(0+128)
  3895     0ED4  1283               	bcf	3,5	;RP0=0, select bank0
  3896     0ED5  1303               	bcf	3,6	;RP1=0, select bank0
  3897     0ED6  085A               	movf	?___fladd+1,w
  3898     0ED7  1683               	bsf	3,5	;RP0=1, select bank1
  3899     0ED8  1303               	bcf	3,6	;RP1=0, select bank1
  3900     0ED9  00BD               	movwf	(_convertir_temperature$1043+1)^(0+128)
  3901     0EDA  1283               	bcf	3,5	;RP0=0, select bank0
  3902     0EDB  1303               	bcf	3,6	;RP1=0, select bank0
  3903     0EDC  0859               	movf	?___fladd,w
  3904     0EDD  1683               	bsf	3,5	;RP0=1, select bank1
  3905     0EDE  1303               	bcf	3,6	;RP1=0, select bank1
  3906     0EDF  00BC               	movwf	_convertir_temperature$1043^(0+128)
  3907     0EE0                     l4013:
  3908                           
  3909                           ;mainseguridad.c: 407:     float tempC = (float) (4090 /(log((1025.0 * 10 / a - 10) / 10
      +                          ) + 4090 / 298.0) - 273.0);
  3910     0EE0  3041               	movlw	65
  3911     0EE1  1283               	bcf	3,5	;RP0=0, select bank0
  3912     0EE2  1303               	bcf	3,6	;RP1=0, select bank0
  3913     0EE3  00C2               	movwf	___fldiv@a+3
  3914     0EE4  3020               	movlw	32
  3915     0EE5  00C1               	movwf	___fldiv@a+2
  3916     0EE6  3000               	movlw	0
  3917     0EE7  00C0               	movwf	___fldiv@a+1
  3918     0EE8  3000               	movlw	0
  3919     0EE9  00BF               	movwf	___fldiv@a
  3920     0EEA  1683               	bsf	3,5	;RP0=1, select bank1
  3921     0EEB  1303               	bcf	3,6	;RP1=0, select bank1
  3922     0EEC  083F               	movf	(_convertir_temperature$1043+3)^(0+128),w
  3923     0EED  1283               	bcf	3,5	;RP0=0, select bank0
  3924     0EEE  1303               	bcf	3,6	;RP1=0, select bank0
  3925     0EEF  00C6               	movwf	___fldiv@b+3
  3926     0EF0  1683               	bsf	3,5	;RP0=1, select bank1
  3927     0EF1  1303               	bcf	3,6	;RP1=0, select bank1
  3928     0EF2  083E               	movf	(_convertir_temperature$1043+2)^(0+128),w
  3929     0EF3  1283               	bcf	3,5	;RP0=0, select bank0
  3930     0EF4  1303               	bcf	3,6	;RP1=0, select bank0
  3931     0EF5  00C5               	movwf	___fldiv@b+2
  3932     0EF6  1683               	bsf	3,5	;RP0=1, select bank1
  3933     0EF7  1303               	bcf	3,6	;RP1=0, select bank1
  3934     0EF8  083D               	movf	(_convertir_temperature$1043+1)^(0+128),w
  3935     0EF9  1283               	bcf	3,5	;RP0=0, select bank0
  3936     0EFA  1303               	bcf	3,6	;RP1=0, select bank0
  3937     0EFB  00C4               	movwf	___fldiv@b+1
  3938     0EFC  1683               	bsf	3,5	;RP0=1, select bank1
  3939     0EFD  1303               	bcf	3,6	;RP1=0, select bank1
  3940     0EFE  083C               	movf	_convertir_temperature$1043^(0+128),w
  3941     0EFF  1283               	bcf	3,5	;RP0=0, select bank0
  3942     0F00  1303               	bcf	3,6	;RP1=0, select bank0
  3943     0F01  00C3               	movwf	___fldiv@b
  3944     0F02  120A  118A  2070  120A  158A  	fcall	___fldiv
  3945     0F07  1283               	bcf	3,5	;RP0=0, select bank0
  3946     0F08  1303               	bcf	3,6	;RP1=0, select bank0
  3947     0F09  0842               	movf	?___fldiv+3,w
  3948     0F0A  1683               	bsf	3,5	;RP0=1, select bank1
  3949     0F0B  1303               	bcf	3,6	;RP1=0, select bank1
  3950     0F0C  00B3               	movwf	(log@x+3)^(0+128)
  3951     0F0D  1283               	bcf	3,5	;RP0=0, select bank0
  3952     0F0E  1303               	bcf	3,6	;RP1=0, select bank0
  3953     0F0F  0841               	movf	?___fldiv+2,w
  3954     0F10  1683               	bsf	3,5	;RP0=1, select bank1
  3955     0F11  1303               	bcf	3,6	;RP1=0, select bank1
  3956     0F12  00B2               	movwf	(log@x+2)^(0+128)
  3957     0F13  1283               	bcf	3,5	;RP0=0, select bank0
  3958     0F14  1303               	bcf	3,6	;RP1=0, select bank0
  3959     0F15  0840               	movf	?___fldiv+1,w
  3960     0F16  1683               	bsf	3,5	;RP0=1, select bank1
  3961     0F17  1303               	bcf	3,6	;RP1=0, select bank1
  3962     0F18  00B1               	movwf	(log@x+1)^(0+128)
  3963     0F19  1283               	bcf	3,5	;RP0=0, select bank0
  3964     0F1A  1303               	bcf	3,6	;RP1=0, select bank0
  3965     0F1B  083F               	movf	?___fldiv,w
  3966     0F1C  1683               	bsf	3,5	;RP0=1, select bank1
  3967     0F1D  1303               	bcf	3,6	;RP1=0, select bank1
  3968     0F1E  00B0               	movwf	log@x^(0+128)
  3969     0F1F  120A  158A  252F  120A  158A  	fcall	_log
  3970     0F24  1683               	bsf	3,5	;RP0=1, select bank1
  3971     0F25  1303               	bcf	3,6	;RP1=0, select bank1
  3972     0F26  0833               	movf	(?_log+3)^(0+128),w
  3973     0F27  00C3               	movwf	(_convertir_temperature$1044+3)^(0+128)
  3974     0F28  0832               	movf	(?_log+2)^(0+128),w
  3975     0F29  00C2               	movwf	(_convertir_temperature$1044+2)^(0+128)
  3976     0F2A  0831               	movf	(?_log+1)^(0+128),w
  3977     0F2B  00C1               	movwf	(_convertir_temperature$1044+1)^(0+128)
  3978     0F2C  0830               	movf	?_log^(0+128),w
  3979     0F2D  00C0               	movwf	_convertir_temperature$1044^(0+128)
  3980     0F2E                     l4015:
  3981                           
  3982                           ;mainseguridad.c: 407:     float tempC = (float) (4090 /(log((1025.0 * 10 / a - 10) / 10
      +                          ) + 4090 / 298.0) - 273.0);
  3983     0F2E  3041               	movlw	65
  3984     0F2F  1283               	bcf	3,5	;RP0=0, select bank0
  3985     0F30  1303               	bcf	3,6	;RP1=0, select bank0
  3986     0F31  00DC               	movwf	___fladd@b+3
  3987     0F32  305B               	movlw	91
  3988     0F33  00DB               	movwf	___fladd@b+2
  3989     0F34  3098               	movlw	152
  3990     0F35  00DA               	movwf	___fladd@b+1
  3991     0F36  30EA               	movlw	234
  3992     0F37  00D9               	movwf	___fladd@b
  3993     0F38  1683               	bsf	3,5	;RP0=1, select bank1
  3994     0F39  1303               	bcf	3,6	;RP1=0, select bank1
  3995     0F3A  0843               	movf	(_convertir_temperature$1044+3)^(0+128),w
  3996     0F3B  1283               	bcf	3,5	;RP0=0, select bank0
  3997     0F3C  1303               	bcf	3,6	;RP1=0, select bank0
  3998     0F3D  00E0               	movwf	___fladd@a+3
  3999     0F3E  1683               	bsf	3,5	;RP0=1, select bank1
  4000     0F3F  1303               	bcf	3,6	;RP1=0, select bank1
  4001     0F40  0842               	movf	(_convertir_temperature$1044+2)^(0+128),w
  4002     0F41  1283               	bcf	3,5	;RP0=0, select bank0
  4003     0F42  1303               	bcf	3,6	;RP1=0, select bank0
  4004     0F43  00DF               	movwf	___fladd@a+2
  4005     0F44  1683               	bsf	3,5	;RP0=1, select bank1
  4006     0F45  1303               	bcf	3,6	;RP1=0, select bank1
  4007     0F46  0841               	movf	(_convertir_temperature$1044+1)^(0+128),w
  4008     0F47  1283               	bcf	3,5	;RP0=0, select bank0
  4009     0F48  1303               	bcf	3,6	;RP1=0, select bank0
  4010     0F49  00DE               	movwf	___fladd@a+1
  4011     0F4A  1683               	bsf	3,5	;RP0=1, select bank1
  4012     0F4B  1303               	bcf	3,6	;RP1=0, select bank1
  4013     0F4C  0840               	movf	_convertir_temperature$1044^(0+128),w
  4014     0F4D  1283               	bcf	3,5	;RP0=0, select bank0
  4015     0F4E  1303               	bcf	3,6	;RP1=0, select bank0
  4016     0F4F  00DD               	movwf	___fladd@a
  4017     0F50  120A  118A  223F  120A  158A  	fcall	___fladd
  4018     0F55  1283               	bcf	3,5	;RP0=0, select bank0
  4019     0F56  1303               	bcf	3,6	;RP1=0, select bank0
  4020     0F57  085C               	movf	?___fladd+3,w
  4021     0F58  00C2               	movwf	___fldiv@a+3
  4022     0F59  085B               	movf	?___fladd+2,w
  4023     0F5A  00C1               	movwf	___fldiv@a+2
  4024     0F5B  085A               	movf	?___fladd+1,w
  4025     0F5C  00C0               	movwf	___fldiv@a+1
  4026     0F5D  0859               	movf	?___fladd,w
  4027     0F5E  00BF               	movwf	___fldiv@a
  4028     0F5F  3045               	movlw	69
  4029     0F60  00C6               	movwf	___fldiv@b+3
  4030     0F61  307F               	movlw	127
  4031     0F62  00C5               	movwf	___fldiv@b+2
  4032     0F63  30A0               	movlw	160
  4033     0F64  00C4               	movwf	___fldiv@b+1
  4034     0F65  3000               	movlw	0
  4035     0F66  00C3               	movwf	___fldiv@b
  4036     0F67  120A  118A  2070  120A  158A  	fcall	___fldiv
  4037     0F6C  1283               	bcf	3,5	;RP0=0, select bank0
  4038     0F6D  1303               	bcf	3,6	;RP1=0, select bank0
  4039     0F6E  0842               	movf	?___fldiv+3,w
  4040     0F6F  1683               	bsf	3,5	;RP0=1, select bank1
  4041     0F70  1303               	bcf	3,6	;RP1=0, select bank1
  4042     0F71  00C7               	movwf	(_convertir_temperature$1045+3)^(0+128)
  4043     0F72  1283               	bcf	3,5	;RP0=0, select bank0
  4044     0F73  1303               	bcf	3,6	;RP1=0, select bank0
  4045     0F74  0841               	movf	?___fldiv+2,w
  4046     0F75  1683               	bsf	3,5	;RP0=1, select bank1
  4047     0F76  1303               	bcf	3,6	;RP1=0, select bank1
  4048     0F77  00C6               	movwf	(_convertir_temperature$1045+2)^(0+128)
  4049     0F78  1283               	bcf	3,5	;RP0=0, select bank0
  4050     0F79  1303               	bcf	3,6	;RP1=0, select bank0
  4051     0F7A  0840               	movf	?___fldiv+1,w
  4052     0F7B  1683               	bsf	3,5	;RP0=1, select bank1
  4053     0F7C  1303               	bcf	3,6	;RP1=0, select bank1
  4054     0F7D  00C5               	movwf	(_convertir_temperature$1045+1)^(0+128)
  4055     0F7E  1283               	bcf	3,5	;RP0=0, select bank0
  4056     0F7F  1303               	bcf	3,6	;RP1=0, select bank0
  4057     0F80  083F               	movf	?___fldiv,w
  4058     0F81  1683               	bsf	3,5	;RP0=1, select bank1
  4059     0F82  1303               	bcf	3,6	;RP1=0, select bank1
  4060     0F83  00C4               	movwf	_convertir_temperature$1045^(0+128)
  4061     0F84                     l4017:
  4062                           
  4063                           ;mainseguridad.c: 407:     float tempC = (float) (4090 /(log((1025.0 * 10 / a - 10) / 10
      +                          ) + 4090 / 298.0) - 273.0);
  4064     0F84  30C3               	movlw	195
  4065     0F85  1283               	bcf	3,5	;RP0=0, select bank0
  4066     0F86  1303               	bcf	3,6	;RP1=0, select bank0
  4067     0F87  00DC               	movwf	___fladd@b+3
  4068     0F88  3088               	movlw	136
  4069     0F89  00DB               	movwf	___fladd@b+2
  4070     0F8A  3080               	movlw	128
  4071     0F8B  00DA               	movwf	___fladd@b+1
  4072     0F8C  3000               	movlw	0
  4073     0F8D  00D9               	movwf	___fladd@b
  4074     0F8E  1683               	bsf	3,5	;RP0=1, select bank1
  4075     0F8F  1303               	bcf	3,6	;RP1=0, select bank1
  4076     0F90  0847               	movf	(_convertir_temperature$1045+3)^(0+128),w
  4077     0F91  1283               	bcf	3,5	;RP0=0, select bank0
  4078     0F92  1303               	bcf	3,6	;RP1=0, select bank0
  4079     0F93  00E0               	movwf	___fladd@a+3
  4080     0F94  1683               	bsf	3,5	;RP0=1, select bank1
  4081     0F95  1303               	bcf	3,6	;RP1=0, select bank1
  4082     0F96  0846               	movf	(_convertir_temperature$1045+2)^(0+128),w
  4083     0F97  1283               	bcf	3,5	;RP0=0, select bank0
  4084     0F98  1303               	bcf	3,6	;RP1=0, select bank0
  4085     0F99  00DF               	movwf	___fladd@a+2
  4086     0F9A  1683               	bsf	3,5	;RP0=1, select bank1
  4087     0F9B  1303               	bcf	3,6	;RP1=0, select bank1
  4088     0F9C  0845               	movf	(_convertir_temperature$1045+1)^(0+128),w
  4089     0F9D  1283               	bcf	3,5	;RP0=0, select bank0
  4090     0F9E  1303               	bcf	3,6	;RP1=0, select bank0
  4091     0F9F  00DE               	movwf	___fladd@a+1
  4092     0FA0  1683               	bsf	3,5	;RP0=1, select bank1
  4093     0FA1  1303               	bcf	3,6	;RP1=0, select bank1
  4094     0FA2  0844               	movf	_convertir_temperature$1045^(0+128),w
  4095     0FA3  1283               	bcf	3,5	;RP0=0, select bank0
  4096     0FA4  1303               	bcf	3,6	;RP1=0, select bank0
  4097     0FA5  00DD               	movwf	___fladd@a
  4098     0FA6  120A  118A  223F  120A  158A  	fcall	___fladd
  4099     0FAB  1283               	bcf	3,5	;RP0=0, select bank0
  4100     0FAC  1303               	bcf	3,6	;RP1=0, select bank0
  4101     0FAD  085C               	movf	?___fladd+3,w
  4102     0FAE  1683               	bsf	3,5	;RP0=1, select bank1
  4103     0FAF  1303               	bcf	3,6	;RP1=0, select bank1
  4104     0FB0  00CB               	movwf	(convertir_temperature@tempC+3)^(0+128)
  4105     0FB1  1283               	bcf	3,5	;RP0=0, select bank0
  4106     0FB2  1303               	bcf	3,6	;RP1=0, select bank0
  4107     0FB3  085B               	movf	?___fladd+2,w
  4108     0FB4  1683               	bsf	3,5	;RP0=1, select bank1
  4109     0FB5  1303               	bcf	3,6	;RP1=0, select bank1
  4110     0FB6  00CA               	movwf	(convertir_temperature@tempC+2)^(0+128)
  4111     0FB7  1283               	bcf	3,5	;RP0=0, select bank0
  4112     0FB8  1303               	bcf	3,6	;RP1=0, select bank0
  4113     0FB9  085A               	movf	?___fladd+1,w
  4114     0FBA  1683               	bsf	3,5	;RP0=1, select bank1
  4115     0FBB  1303               	bcf	3,6	;RP1=0, select bank1
  4116     0FBC  00C9               	movwf	(convertir_temperature@tempC+1)^(0+128)
  4117     0FBD  1283               	bcf	3,5	;RP0=0, select bank0
  4118     0FBE  1303               	bcf	3,6	;RP1=0, select bank0
  4119     0FBF  0859               	movf	?___fladd,w
  4120     0FC0  1683               	bsf	3,5	;RP0=1, select bank1
  4121     0FC1  1303               	bcf	3,6	;RP1=0, select bank1
  4122     0FC2  00C8               	movwf	convertir_temperature@tempC^(0+128)
  4123     0FC3                     l4019:
  4124     0FC3  3043               	movlw	67
  4125     0FC4  1283               	bcf	3,5	;RP0=0, select bank0
  4126     0FC5  1303               	bcf	3,6	;RP1=0, select bank0
  4127     0FC6  00DC               	movwf	___fladd@b+3
  4128     0FC7  3088               	movlw	136
  4129     0FC8  00DB               	movwf	___fladd@b+2
  4130     0FC9  3093               	movlw	147
  4131     0FCA  00DA               	movwf	___fladd@b+1
  4132     0FCB  3033               	movlw	51
  4133     0FCC  00D9               	movwf	___fladd@b
  4134     0FCD  1683               	bsf	3,5	;RP0=1, select bank1
  4135     0FCE  1303               	bcf	3,6	;RP1=0, select bank1
  4136     0FCF  084B               	movf	(convertir_temperature@tempC+3)^(0+128),w
  4137     0FD0  1283               	bcf	3,5	;RP0=0, select bank0
  4138     0FD1  1303               	bcf	3,6	;RP1=0, select bank0
  4139     0FD2  00E0               	movwf	___fladd@a+3
  4140     0FD3  1683               	bsf	3,5	;RP0=1, select bank1
  4141     0FD4  1303               	bcf	3,6	;RP1=0, select bank1
  4142     0FD5  084A               	movf	(convertir_temperature@tempC+2)^(0+128),w
  4143     0FD6  1283               	bcf	3,5	;RP0=0, select bank0
  4144     0FD7  1303               	bcf	3,6	;RP1=0, select bank0
  4145     0FD8  00DF               	movwf	___fladd@a+2
  4146     0FD9  1683               	bsf	3,5	;RP0=1, select bank1
  4147     0FDA  1303               	bcf	3,6	;RP1=0, select bank1
  4148     0FDB  0849               	movf	(convertir_temperature@tempC+1)^(0+128),w
  4149     0FDC  1283               	bcf	3,5	;RP0=0, select bank0
  4150     0FDD  1303               	bcf	3,6	;RP1=0, select bank0
  4151     0FDE  00DE               	movwf	___fladd@a+1
  4152     0FDF  1683               	bsf	3,5	;RP0=1, select bank1
  4153     0FE0  1303               	bcf	3,6	;RP1=0, select bank1
  4154     0FE1  0848               	movf	convertir_temperature@tempC^(0+128),w
  4155     0FE2  1283               	bcf	3,5	;RP0=0, select bank0
  4156     0FE3  1303               	bcf	3,6	;RP1=0, select bank0
  4157     0FE4  00DD               	movwf	___fladd@a
  4158     0FE5  120A  118A  223F  120A  158A  	fcall	___fladd
  4159     0FEA                     l4021:
  4160                           
  4161                           ;mainseguridad.c: 409:     return (int)tempC;
  4162     0FEA  1683               	bsf	3,5	;RP0=1, select bank1
  4163     0FEB  1303               	bcf	3,6	;RP1=0, select bank1
  4164     0FEC  084B               	movf	(convertir_temperature@tempC+3)^(0+128),w
  4165     0FED  00F3               	movwf	___fltol@f1+3
  4166     0FEE  084A               	movf	(convertir_temperature@tempC+2)^(0+128),w
  4167     0FEF  00F2               	movwf	___fltol@f1+2
  4168     0FF0  0849               	movf	(convertir_temperature@tempC+1)^(0+128),w
  4169     0FF1  00F1               	movwf	___fltol@f1+1
  4170     0FF2  0848               	movf	convertir_temperature@tempC^(0+128),w
  4171     0FF3  00F0               	movwf	___fltol@f1
  4172     0FF4  160A  118A  2585  120A  158A  	fcall	___fltol
  4173     0FF9  0871               	movf	?___fltol+1,w
  4174     0FFA  1683               	bsf	3,5	;RP0=1, select bank1
  4175     0FFB  1303               	bcf	3,6	;RP1=0, select bank1
  4176     0FFC  00B5               	movwf	(?_convertir_temperature+1)^(0+128)
  4177     0FFD  0870               	movf	?___fltol,w
  4178     0FFE  00B4               	movwf	?_convertir_temperature^(0+128)
  4179     0FFF                     l270:
  4180     0FFF  0008               	return
  4181     1000                     __end_of_convertir_temperature:
  4182                           
  4183                           	psect	text12
  4184     0D2F                     __ptext12:	
  4185 ;; *************** function _log *****************
  4186 ;; Defined at:
  4187 ;;		line 5 in file "C:\Program Files\Microchip\xc8\v2.41\pic\sources\c90\common\log.c"
  4188 ;; Parameters:    Size  Location     Type
  4189 ;;  x               4   16[BANK1 ] int 
  4190 ;; Auto vars:     Size  Location     Type
  4191 ;;  exponent        2   77[BANK0 ] int 
  4192 ;; Return value:  Size  Location     Type
  4193 ;;                  4   16[BANK1 ] int 
  4194 ;; Registers used:
  4195 ;;		wreg, fsr0l, fsr0h, status,2, status,0, btemp+1, pclath, cstack
  4196 ;; Tracked objects:
  4197 ;;		On entry : 0/0
  4198 ;;		On exit  : 0/0
  4199 ;;		Unchanged: 0/0
  4200 ;; Data sizes:     COMMON   BANK0   BANK1   BANK3   BANK2
  4201 ;;      Params:         0       0       4       0       0
  4202 ;;      Locals:         0       2       0       0       0
  4203 ;;      Temps:          0       0       0       0       0
  4204 ;;      Totals:         0       2       4       0       0
  4205 ;;Total ram usage:        6 bytes
  4206 ;; Hardware stack levels used: 1
  4207 ;; Hardware stack levels required when called: 3
  4208 ;; This function calls:
  4209 ;;		___fladd
  4210 ;;		___fleq
  4211 ;;		___flge
  4212 ;;		___flmul
  4213 ;;		___xxtofl
  4214 ;;		_eval_poly
  4215 ;;		_frexp
  4216 ;; This function is called by:
  4217 ;;		_convertir_temperature
  4218 ;; This function uses a non-reentrant model
  4219 ;;
  4220                           
  4221     0D2F                     _log:	
  4222                           ;psect for function _log
  4223                           
  4224     0D2F                     l3987:	
  4225                           ;incstack = 0
  4226                           ; Regs used in _log: [wreg-fsr0h+status,2+status,0+btemp+1+pclath+cstack]
  4227                           
  4228     0D2F  1683               	bsf	3,5	;RP0=1, select bank1
  4229     0D30  1303               	bcf	3,6	;RP1=0, select bank1
  4230     0D31  0833               	movf	(log@x+3)^(0+128),w
  4231     0D32  00F3               	movwf	___flge@ff1+3
  4232     0D33  0832               	movf	(log@x+2)^(0+128),w
  4233     0D34  00F2               	movwf	___flge@ff1+2
  4234     0D35  0831               	movf	(log@x+1)^(0+128),w
  4235     0D36  00F1               	movwf	___flge@ff1+1
  4236     0D37  0830               	movf	log@x^(0+128),w
  4237     0D38  00F0               	movwf	___flge@ff1
  4238     0D39  3000               	movlw	0
  4239     0D3A  00F7               	movwf	___flge@ff2+3
  4240     0D3B  3000               	movlw	0
  4241     0D3C  00F6               	movwf	___flge@ff2+2
  4242     0D3D  3000               	movlw	0
  4243     0D3E  00F5               	movwf	___flge@ff2+1
  4244     0D3F  3000               	movlw	0
  4245     0D40  00F4               	movwf	___flge@ff2
  4246     0D41  160A  118A  25FB  120A  158A  	fcall	___flge
  4247     0D46  1803               	btfsc	3,0
  4248     0D47  2D49               	goto	u5551
  4249     0D48  2D4A               	goto	u5550
  4250     0D49                     u5551:
  4251     0D49  2D59               	goto	l3993
  4252     0D4A                     u5550:
  4253     0D4A                     l3989:
  4254     0D4A  3021               	movlw	33
  4255     0D4B  1683               	bsf	3,5	;RP0=1, select bank1
  4256     0D4C  1303               	bcf	3,6	;RP1=0, select bank1
  4257     0D4D  00D8               	movwf	_errno^(0+128)
  4258     0D4E  3000               	movlw	0
  4259     0D4F  00D9               	movwf	(_errno^(0+128)+1)
  4260     0D50  3000               	movlw	0
  4261     0D51  00B3               	movwf	(?_log+3)^(0+128)
  4262     0D52  3000               	movlw	0
  4263     0D53  00B2               	movwf	(?_log+2)^(0+128)
  4264     0D54  3000               	movlw	0
  4265     0D55  00B1               	movwf	(?_log+1)^(0+128)
  4266     0D56  3000               	movlw	0
  4267     0D57  00B0               	movwf	?_log^(0+128)
  4268     0D58  2E74               	goto	l866
  4269     0D59                     l3993:
  4270     0D59  1683               	bsf	3,5	;RP0=1, select bank1
  4271     0D5A  1303               	bcf	3,6	;RP1=0, select bank1
  4272     0D5B  0833               	movf	(log@x+3)^(0+128),w
  4273     0D5C  00F3               	movwf	___fleq@ff1+3
  4274     0D5D  0832               	movf	(log@x+2)^(0+128),w
  4275     0D5E  00F2               	movwf	___fleq@ff1+2
  4276     0D5F  0831               	movf	(log@x+1)^(0+128),w
  4277     0D60  00F1               	movwf	___fleq@ff1+1
  4278     0D61  0830               	movf	log@x^(0+128),w
  4279     0D62  00F0               	movwf	___fleq@ff1
  4280     0D63  3000               	movlw	0
  4281     0D64  00F7               	movwf	___fleq@ff2+3
  4282     0D65  3000               	movlw	0
  4283     0D66  00F6               	movwf	___fleq@ff2+2
  4284     0D67  3000               	movlw	0
  4285     0D68  00F5               	movwf	___fleq@ff2+1
  4286     0D69  3000               	movlw	0
  4287     0D6A  00F4               	movwf	___fleq@ff2
  4288     0D6B  160A  118A  24DB  120A  158A  	fcall	___fleq
  4289     0D70  1C03               	btfss	3,0
  4290     0D71  2D73               	goto	u5561
  4291     0D72  2D74               	goto	u5560
  4292     0D73                     u5561:
  4293     0D73  2D83               	goto	l3999
  4294     0D74                     u5560:
  4295     0D74                     l3995:
  4296     0D74  3022               	movlw	34
  4297     0D75  1683               	bsf	3,5	;RP0=1, select bank1
  4298     0D76  1303               	bcf	3,6	;RP1=0, select bank1
  4299     0D77  00D8               	movwf	_errno^(0+128)
  4300     0D78  3000               	movlw	0
  4301     0D79  00D9               	movwf	(_errno^(0+128)+1)
  4302     0D7A  3000               	movlw	0
  4303     0D7B  00B3               	movwf	(?_log+3)^(0+128)
  4304     0D7C  3000               	movlw	0
  4305     0D7D  00B2               	movwf	(?_log+2)^(0+128)
  4306     0D7E  3000               	movlw	0
  4307     0D7F  00B1               	movwf	(?_log+1)^(0+128)
  4308     0D80  3000               	movlw	0
  4309     0D81  00B0               	movwf	?_log^(0+128)
  4310     0D82  2E74               	goto	l866
  4311     0D83                     l3999:
  4312     0D83  30BF               	movlw	191
  4313     0D84  1283               	bcf	3,5	;RP0=0, select bank0
  4314     0D85  1303               	bcf	3,6	;RP1=0, select bank0
  4315     0D86  00DC               	movwf	___fladd@b+3
  4316     0D87  3080               	movlw	128
  4317     0D88  00DB               	movwf	___fladd@b+2
  4318     0D89  3000               	movlw	0
  4319     0D8A  00DA               	movwf	___fladd@b+1
  4320     0D8B  3000               	movlw	0
  4321     0D8C  00D9               	movwf	___fladd@b
  4322     0D8D  3040               	movlw	64
  4323     0D8E  00A8               	movwf	___flmul@b+3
  4324     0D8F  3000               	movlw	0
  4325     0D90  00A7               	movwf	___flmul@b+2
  4326     0D91  3000               	movlw	0
  4327     0D92  00A6               	movwf	___flmul@b+1
  4328     0D93  3000               	movlw	0
  4329     0D94  00A5               	movwf	___flmul@b
  4330     0D95  306D               	movlw	(low (log@exponent| 0))& (0+255)
  4331     0D96  00A4               	movwf	frexp@eptr
  4332     0D97  1683               	bsf	3,5	;RP0=1, select bank1
  4333     0D98  1303               	bcf	3,6	;RP1=0, select bank1
  4334     0D99  0833               	movf	(log@x+3)^(0+128),w
  4335     0D9A  1283               	bcf	3,5	;RP0=0, select bank0
  4336     0D9B  1303               	bcf	3,6	;RP1=0, select bank0
  4337     0D9C  00A3               	movwf	frexp@value+3
  4338     0D9D  1683               	bsf	3,5	;RP0=1, select bank1
  4339     0D9E  1303               	bcf	3,6	;RP1=0, select bank1
  4340     0D9F  0832               	movf	(log@x+2)^(0+128),w
  4341     0DA0  1283               	bcf	3,5	;RP0=0, select bank0
  4342     0DA1  1303               	bcf	3,6	;RP1=0, select bank0
  4343     0DA2  00A2               	movwf	frexp@value+2
  4344     0DA3  1683               	bsf	3,5	;RP0=1, select bank1
  4345     0DA4  1303               	bcf	3,6	;RP1=0, select bank1
  4346     0DA5  0831               	movf	(log@x+1)^(0+128),w
  4347     0DA6  1283               	bcf	3,5	;RP0=0, select bank0
  4348     0DA7  1303               	bcf	3,6	;RP1=0, select bank0
  4349     0DA8  00A1               	movwf	frexp@value+1
  4350     0DA9  1683               	bsf	3,5	;RP0=1, select bank1
  4351     0DAA  1303               	bcf	3,6	;RP1=0, select bank1
  4352     0DAB  0830               	movf	log@x^(0+128),w
  4353     0DAC  1283               	bcf	3,5	;RP0=0, select bank0
  4354     0DAD  1303               	bcf	3,6	;RP1=0, select bank0
  4355     0DAE  00A0               	movwf	frexp@value
  4356     0DAF  160A  118A  2529  120A  158A  	fcall	_frexp
  4357     0DB4  1283               	bcf	3,5	;RP0=0, select bank0
  4358     0DB5  1303               	bcf	3,6	;RP1=0, select bank0
  4359     0DB6  0823               	movf	?_frexp+3,w
  4360     0DB7  00AC               	movwf	___flmul@a+3
  4361     0DB8  0822               	movf	?_frexp+2,w
  4362     0DB9  00AB               	movwf	___flmul@a+2
  4363     0DBA  0821               	movf	?_frexp+1,w
  4364     0DBB  00AA               	movwf	___flmul@a+1
  4365     0DBC  0820               	movf	?_frexp,w
  4366     0DBD  00A9               	movwf	___flmul@a
  4367     0DBE  120A  118A  2497  120A  158A  	fcall	___flmul
  4368     0DC3  1283               	bcf	3,5	;RP0=0, select bank0
  4369     0DC4  1303               	bcf	3,6	;RP1=0, select bank0
  4370     0DC5  0828               	movf	?___flmul+3,w
  4371     0DC6  00E0               	movwf	___fladd@a+3
  4372     0DC7  0827               	movf	?___flmul+2,w
  4373     0DC8  00DF               	movwf	___fladd@a+2
  4374     0DC9  0826               	movf	?___flmul+1,w
  4375     0DCA  00DE               	movwf	___fladd@a+1
  4376     0DCB  0825               	movf	?___flmul,w
  4377     0DCC  00DD               	movwf	___fladd@a
  4378     0DCD  120A  118A  223F  120A  158A  	fcall	___fladd
  4379     0DD2  1283               	bcf	3,5	;RP0=0, select bank0
  4380     0DD3  1303               	bcf	3,6	;RP1=0, select bank0
  4381     0DD4  085C               	movf	?___fladd+3,w
  4382     0DD5  1683               	bsf	3,5	;RP0=1, select bank1
  4383     0DD6  1303               	bcf	3,6	;RP1=0, select bank1
  4384     0DD7  00B3               	movwf	(log@x+3)^(0+128)
  4385     0DD8  1283               	bcf	3,5	;RP0=0, select bank0
  4386     0DD9  1303               	bcf	3,6	;RP1=0, select bank0
  4387     0DDA  085B               	movf	?___fladd+2,w
  4388     0DDB  1683               	bsf	3,5	;RP0=1, select bank1
  4389     0DDC  1303               	bcf	3,6	;RP1=0, select bank1
  4390     0DDD  00B2               	movwf	(log@x+2)^(0+128)
  4391     0DDE  1283               	bcf	3,5	;RP0=0, select bank0
  4392     0DDF  1303               	bcf	3,6	;RP1=0, select bank0
  4393     0DE0  085A               	movf	?___fladd+1,w
  4394     0DE1  1683               	bsf	3,5	;RP0=1, select bank1
  4395     0DE2  1303               	bcf	3,6	;RP1=0, select bank1
  4396     0DE3  00B1               	movwf	(log@x+1)^(0+128)
  4397     0DE4  1283               	bcf	3,5	;RP0=0, select bank0
  4398     0DE5  1303               	bcf	3,6	;RP1=0, select bank0
  4399     0DE6  0859               	movf	?___fladd,w
  4400     0DE7  1683               	bsf	3,5	;RP0=1, select bank1
  4401     0DE8  1303               	bcf	3,6	;RP1=0, select bank1
  4402     0DE9  00B0               	movwf	log@x^(0+128)
  4403     0DEA                     l4001:
  4404     0DEA  30FF               	movlw	255
  4405     0DEB  1283               	bcf	3,5	;RP0=0, select bank0
  4406     0DEC  1303               	bcf	3,6	;RP1=0, select bank0
  4407     0DED  07ED               	addwf	log@exponent,f
  4408     0DEE  1803               	skipnc
  4409     0DEF  0AEE               	incf	log@exponent+1,f
  4410     0DF0  30FF               	movlw	255
  4411     0DF1  07EE               	addwf	log@exponent+1,f
  4412     0DF2                     l4003:
  4413     0DF2  1683               	bsf	3,5	;RP0=1, select bank1
  4414     0DF3  1303               	bcf	3,6	;RP1=0, select bank1
  4415     0DF4  0833               	movf	(log@x+3)^(0+128),w
  4416     0DF5  00A3               	movwf	(eval_poly@x+3)^(0+128)
  4417     0DF6  0832               	movf	(log@x+2)^(0+128),w
  4418     0DF7  00A2               	movwf	(eval_poly@x+2)^(0+128)
  4419     0DF8  0831               	movf	(log@x+1)^(0+128),w
  4420     0DF9  00A1               	movwf	(eval_poly@x+1)^(0+128)
  4421     0DFA  0830               	movf	log@x^(0+128),w
  4422     0DFB  00A0               	movwf	eval_poly@x^(0+128)
  4423     0DFC  300B               	movlw	(low ((log@coeff-__stringbase)| (0+32768)))& (0+255)
  4424     0DFD  00A4               	movwf	eval_poly@d^(0+128)
  4425     0DFE  3008               	movlw	8
  4426     0DFF  00A5               	movwf	eval_poly@n^(0+128)
  4427     0E00  3000               	movlw	0
  4428     0E01  00A6               	movwf	(eval_poly@n^(0+128)+1)
  4429     0E02  120A  158A  219F  120A  158A  	fcall	_eval_poly
  4430     0E07  1683               	bsf	3,5	;RP0=1, select bank1
  4431     0E08  1303               	bcf	3,6	;RP1=0, select bank1
  4432     0E09  0823               	movf	(?_eval_poly+3)^(0+128),w
  4433     0E0A  00B3               	movwf	(log@x+3)^(0+128)
  4434     0E0B  0822               	movf	(?_eval_poly+2)^(0+128),w
  4435     0E0C  00B2               	movwf	(log@x+2)^(0+128)
  4436     0E0D  0821               	movf	(?_eval_poly+1)^(0+128),w
  4437     0E0E  00B1               	movwf	(log@x+1)^(0+128)
  4438     0E0F  0820               	movf	?_eval_poly^(0+128),w
  4439     0E10  00B0               	movwf	log@x^(0+128)
  4440     0E11                     l4005:
  4441     0E11  0833               	movf	(log@x+3)^(0+128),w
  4442     0E12  1283               	bcf	3,5	;RP0=0, select bank0
  4443     0E13  1303               	bcf	3,6	;RP1=0, select bank0
  4444     0E14  00DC               	movwf	___fladd@b+3
  4445     0E15  1683               	bsf	3,5	;RP0=1, select bank1
  4446     0E16  1303               	bcf	3,6	;RP1=0, select bank1
  4447     0E17  0832               	movf	(log@x+2)^(0+128),w
  4448     0E18  1283               	bcf	3,5	;RP0=0, select bank0
  4449     0E19  1303               	bcf	3,6	;RP1=0, select bank0
  4450     0E1A  00DB               	movwf	___fladd@b+2
  4451     0E1B  1683               	bsf	3,5	;RP0=1, select bank1
  4452     0E1C  1303               	bcf	3,6	;RP1=0, select bank1
  4453     0E1D  0831               	movf	(log@x+1)^(0+128),w
  4454     0E1E  1283               	bcf	3,5	;RP0=0, select bank0
  4455     0E1F  1303               	bcf	3,6	;RP1=0, select bank0
  4456     0E20  00DA               	movwf	___fladd@b+1
  4457     0E21  1683               	bsf	3,5	;RP0=1, select bank1
  4458     0E22  1303               	bcf	3,6	;RP1=0, select bank1
  4459     0E23  0830               	movf	log@x^(0+128),w
  4460     0E24  1283               	bcf	3,5	;RP0=0, select bank0
  4461     0E25  1303               	bcf	3,6	;RP1=0, select bank0
  4462     0E26  00D9               	movwf	___fladd@b
  4463     0E27  303F               	movlw	63
  4464     0E28  00A8               	movwf	___flmul@b+3
  4465     0E29  3031               	movlw	49
  4466     0E2A  00A7               	movwf	___flmul@b+2
  4467     0E2B  3072               	movlw	114
  4468     0E2C  00A6               	movwf	___flmul@b+1
  4469     0E2D  3018               	movlw	24
  4470     0E2E  00A5               	movwf	___flmul@b
  4471     0E2F  086D               	movf	log@exponent,w
  4472     0E30  00F0               	movwf	___xxtofl@val
  4473     0E31  086E               	movf	log@exponent+1,w
  4474     0E32  00F1               	movwf	___xxtofl@val+1
  4475     0E33  3000               	movlw	0
  4476     0E34  1BF1               	btfsc	___xxtofl@val+1,7
  4477     0E35  30FF               	movlw	255
  4478     0E36  00F2               	movwf	___xxtofl@val+2
  4479     0E37  00F3               	movwf	___xxtofl@val+3
  4480     0E38  3001               	movlw	1
  4481     0E39  160A  118A  2748  120A  158A  	fcall	___xxtofl
  4482     0E3E  0873               	movf	?___xxtofl+3,w
  4483     0E3F  1283               	bcf	3,5	;RP0=0, select bank0
  4484     0E40  1303               	bcf	3,6	;RP1=0, select bank0
  4485     0E41  00AC               	movwf	___flmul@a+3
  4486     0E42  0872               	movf	?___xxtofl+2,w
  4487     0E43  00AB               	movwf	___flmul@a+2
  4488     0E44  0871               	movf	?___xxtofl+1,w
  4489     0E45  00AA               	movwf	___flmul@a+1
  4490     0E46  0870               	movf	?___xxtofl,w
  4491     0E47  00A9               	movwf	___flmul@a
  4492     0E48  120A  118A  2497  120A  158A  	fcall	___flmul
  4493     0E4D  1283               	bcf	3,5	;RP0=0, select bank0
  4494     0E4E  1303               	bcf	3,6	;RP1=0, select bank0
  4495     0E4F  0828               	movf	?___flmul+3,w
  4496     0E50  00E0               	movwf	___fladd@a+3
  4497     0E51  0827               	movf	?___flmul+2,w
  4498     0E52  00DF               	movwf	___fladd@a+2
  4499     0E53  0826               	movf	?___flmul+1,w
  4500     0E54  00DE               	movwf	___fladd@a+1
  4501     0E55  0825               	movf	?___flmul,w
  4502     0E56  00DD               	movwf	___fladd@a
  4503     0E57  120A  118A  223F  120A  158A  	fcall	___fladd
  4504     0E5C  1283               	bcf	3,5	;RP0=0, select bank0
  4505     0E5D  1303               	bcf	3,6	;RP1=0, select bank0
  4506     0E5E  085C               	movf	?___fladd+3,w
  4507     0E5F  1683               	bsf	3,5	;RP0=1, select bank1
  4508     0E60  1303               	bcf	3,6	;RP1=0, select bank1
  4509     0E61  00B3               	movwf	(?_log+3)^(0+128)
  4510     0E62  1283               	bcf	3,5	;RP0=0, select bank0
  4511     0E63  1303               	bcf	3,6	;RP1=0, select bank0
  4512     0E64  085B               	movf	?___fladd+2,w
  4513     0E65  1683               	bsf	3,5	;RP0=1, select bank1
  4514     0E66  1303               	bcf	3,6	;RP1=0, select bank1
  4515     0E67  00B2               	movwf	(?_log+2)^(0+128)
  4516     0E68  1283               	bcf	3,5	;RP0=0, select bank0
  4517     0E69  1303               	bcf	3,6	;RP1=0, select bank0
  4518     0E6A  085A               	movf	?___fladd+1,w
  4519     0E6B  1683               	bsf	3,5	;RP0=1, select bank1
  4520     0E6C  1303               	bcf	3,6	;RP1=0, select bank1
  4521     0E6D  00B1               	movwf	(?_log+1)^(0+128)
  4522     0E6E  1283               	bcf	3,5	;RP0=0, select bank0
  4523     0E6F  1303               	bcf	3,6	;RP1=0, select bank0
  4524     0E70  0859               	movf	?___fladd,w
  4525     0E71  1683               	bsf	3,5	;RP0=1, select bank1
  4526     0E72  1303               	bcf	3,6	;RP1=0, select bank1
  4527     0E73  00B0               	movwf	?_log^(0+128)
  4528     0E74                     l866:
  4529     0E74  0008               	return
  4530     0E75                     __end_of_log:
  4531                           
  4532                           	psect	text13
  4533     1529                     __ptext13:	
  4534 ;; *************** function _frexp *****************
  4535 ;; Defined at:
  4536 ;;		line 254 in file "C:\Program Files\Microchip\xc8\v2.41\pic\sources\c90\common\frexp.c"
  4537 ;; Parameters:    Size  Location     Type
  4538 ;;  value           4    0[BANK0 ] int 
  4539 ;;  eptr            1    4[BANK0 ] PTR int 
  4540 ;;		 -> log@exponent(2), 
  4541 ;; Auto vars:     Size  Location     Type
  4542 ;;		None
  4543 ;; Return value:  Size  Location     Type
  4544 ;;                  4    0[BANK0 ] PTR int 
  4545 ;; Registers used:
  4546 ;;		wreg, fsr0l, fsr0h, status,2, status,0, btemp+1, pclath, cstack
  4547 ;; Tracked objects:
  4548 ;;		On entry : 0/0
  4549 ;;		On exit  : 0/0
  4550 ;;		Unchanged: 0/0
  4551 ;; Data sizes:     COMMON   BANK0   BANK1   BANK3   BANK2
  4552 ;;      Params:         0       5       0       0       0
  4553 ;;      Locals:         0       0       0       0       0
  4554 ;;      Temps:          2       0       0       0       0
  4555 ;;      Totals:         2       5       0       0       0
  4556 ;;Total ram usage:        7 bytes
  4557 ;; Hardware stack levels used: 1
  4558 ;; Hardware stack levels required when called: 1
  4559 ;; This function calls:
  4560 ;;		___fleq
  4561 ;; This function is called by:
  4562 ;;		_log
  4563 ;; This function uses a non-reentrant model
  4564 ;;
  4565                           
  4566     1529                     _frexp:	
  4567                           ;psect for function _frexp
  4568                           
  4569     1529                     l3957:	
  4570                           ;incstack = 0
  4571                           ; Regs used in _frexp: [wreg-fsr0h+status,2+status,0+btemp+1+pclath+cstack]
  4572                           
  4573     1529  1283               	bcf	3,5	;RP0=0, select bank0
  4574     152A  1303               	bcf	3,6	;RP1=0, select bank0
  4575     152B  0823               	movf	frexp@value+3,w
  4576     152C  00F3               	movwf	___fleq@ff1+3
  4577     152D  0822               	movf	frexp@value+2,w
  4578     152E  00F2               	movwf	___fleq@ff1+2
  4579     152F  0821               	movf	frexp@value+1,w
  4580     1530  00F1               	movwf	___fleq@ff1+1
  4581     1531  0820               	movf	frexp@value,w
  4582     1532  00F0               	movwf	___fleq@ff1
  4583     1533  3000               	movlw	0
  4584     1534  00F7               	movwf	___fleq@ff2+3
  4585     1535  3000               	movlw	0
  4586     1536  00F6               	movwf	___fleq@ff2+2
  4587     1537  3000               	movlw	0
  4588     1538  00F5               	movwf	___fleq@ff2+1
  4589     1539  3000               	movlw	0
  4590     153A  00F4               	movwf	___fleq@ff2
  4591     153B  160A  118A  24DB  160A  118A  	fcall	___fleq
  4592     1540  1C03               	btfss	3,0
  4593     1541  2D43               	goto	u5511
  4594     1542  2D44               	goto	u5510
  4595     1543                     u5511:
  4596     1543  2D55               	goto	l3965
  4597     1544                     u5510:
  4598     1544                     l3959:
  4599     1544  1283               	bcf	3,5	;RP0=0, select bank0
  4600     1545  1303               	bcf	3,6	;RP1=0, select bank0
  4601     1546  0824               	movf	frexp@eptr,w
  4602     1547  0084               	movwf	4
  4603     1548  1383               	bcf	3,7	;select IRP bank0
  4604     1549  0180               	clrf	0
  4605     154A  0A84               	incf	4,f
  4606     154B  0180               	clrf	0
  4607     154C                     l3961:
  4608     154C  3000               	movlw	0
  4609     154D  00A3               	movwf	?_frexp+3
  4610     154E  3000               	movlw	0
  4611     154F  00A2               	movwf	?_frexp+2
  4612     1550  3000               	movlw	0
  4613     1551  00A1               	movwf	?_frexp+1
  4614     1552  3000               	movlw	0
  4615     1553  00A0               	movwf	?_frexp
  4616     1554  2D84               	goto	l884
  4617     1555                     l3965:
  4618     1555  1283               	bcf	3,5	;RP0=0, select bank0
  4619     1556  1303               	bcf	3,6	;RP1=0, select bank0
  4620     1557  0823               	movf	frexp@value+3,w
  4621     1558  397F               	andlw	127
  4622     1559  00FC               	movwf	??_frexp
  4623     155A  01FD               	clrf	??_frexp+1
  4624     155B  1003               	clrc
  4625     155C  0DFC               	rlf	??_frexp,f
  4626     155D  0DFD               	rlf	??_frexp+1,f
  4627     155E  0824               	movf	frexp@eptr,w
  4628     155F  0084               	movwf	4
  4629     1560  087C               	movf	??_frexp,w
  4630     1561  1383               	bcf	3,7	;select IRP bank0
  4631     1562  0080               	movwf	0
  4632     1563  0A84               	incf	4,f
  4633     1564  087D               	movf	??_frexp+1,w
  4634     1565  0080               	movwf	0
  4635     1566  0D22               	rlf	frexp@value+2,w
  4636     1567  0D22               	rlf	frexp@value+2,w
  4637     1568  3901               	andlw	1
  4638     1569  00FC               	movwf	??_frexp
  4639     156A  01FD               	clrf	??_frexp+1
  4640     156B  0824               	movf	frexp@eptr,w
  4641     156C  0084               	movwf	4
  4642     156D  087C               	movf	??_frexp,w
  4643     156E  0480               	iorwf	0,f
  4644     156F  0A84               	incf	4,f
  4645     1570  087D               	movf	??_frexp+1,w
  4646     1571  0480               	iorwf	0,f
  4647     1572                     l3967:
  4648     1572  0824               	movf	frexp@eptr,w
  4649     1573  0084               	movwf	4
  4650     1574  3082               	movlw	130
  4651     1575  0780               	addwf	0,f
  4652     1576  0F84               	incfsz	4,f
  4653     1577  0800               	movf	0,w
  4654     1578  1803               	skipnc
  4655     1579  0A00               	incf	0,w
  4656     157A  00FF               	movwf	btemp+1
  4657     157B  30FF               	movlw	255
  4658     157C  077F               	addwf	btemp+1,w
  4659     157D  0080               	movwf	0
  4660     157E  0384               	decf	4,f
  4661     157F                     l3969:
  4662     157F  0823               	movf	frexp@value+3,w
  4663     1580  3980               	andlw	-128
  4664     1581  383F               	iorlw	63
  4665     1582  00A3               	movwf	frexp@value+3
  4666     1583                     l3971:
  4667     1583  13A2               	bcf	frexp@value+2,7
  4668     1584                     l3973:
  4669     1584                     l884:
  4670     1584  0008               	return
  4671     1585                     __end_of_frexp:
  4672                           
  4673                           	psect	text14
  4674     14DB                     __ptext14:	
  4675 ;; *************** function ___fleq *****************
  4676 ;; Defined at:
  4677 ;;		line 4 in file "C:\Program Files\Microchip\xc8\v2.41\pic\sources\c90\common\fleq.c"
  4678 ;; Parameters:    Size  Location     Type
  4679 ;;  ff1             4    0[COMMON] PTR int 
  4680 ;;  ff2             4    4[COMMON] PTR int 
  4681 ;; Auto vars:     Size  Location     Type
  4682 ;;		None
  4683 ;; Return value:  Size  Location     Type
  4684 ;;		None               void
  4685 ;; Registers used:
  4686 ;;		wreg, status,2, status,0
  4687 ;; Tracked objects:
  4688 ;;		On entry : 0/0
  4689 ;;		On exit  : 0/0
  4690 ;;		Unchanged: 0/0
  4691 ;; Data sizes:     COMMON   BANK0   BANK1   BANK3   BANK2
  4692 ;;      Params:         8       0       0       0       0
  4693 ;;      Locals:         0       0       0       0       0
  4694 ;;      Temps:          4       0       0       0       0
  4695 ;;      Totals:        12       0       0       0       0
  4696 ;;Total ram usage:       12 bytes
  4697 ;; Hardware stack levels used: 1
  4698 ;; This function calls:
  4699 ;;		Nothing
  4700 ;; This function is called by:
  4701 ;;		_log
  4702 ;;		_frexp
  4703 ;; This function uses a non-reentrant model
  4704 ;;
  4705                           
  4706     14DB                     ___fleq:	
  4707                           ;psect for function ___fleq
  4708                           
  4709     14DB                     l3535:	
  4710                           ;incstack = 0
  4711                           ; Regs used in ___fleq: [wreg+status,2+status,0]
  4712                           
  4713     14DB  3000               	movlw	0
  4714     14DC  0570               	andwf	___fleq@ff1,w
  4715     14DD  00F8               	movwf	??___fleq
  4716     14DE  3000               	movlw	0
  4717     14DF  0571               	andwf	___fleq@ff1+1,w
  4718     14E0  00F9               	movwf	??___fleq+1
  4719     14E1  3080               	movlw	128
  4720     14E2  0572               	andwf	___fleq@ff1+2,w
  4721     14E3  00FA               	movwf	??___fleq+2
  4722     14E4  307F               	movlw	127
  4723     14E5  0573               	andwf	___fleq@ff1+3,w
  4724     14E6  00FB               	movwf	??___fleq+3
  4725     14E7  087B               	movf	??___fleq+3,w
  4726     14E8  047A               	iorwf	??___fleq+2,w
  4727     14E9  0479               	iorwf	??___fleq+1,w
  4728     14EA  0478               	iorwf	??___fleq,w
  4729     14EB  1D03               	skipz
  4730     14EC  2CEE               	goto	u4441
  4731     14ED  2CEF               	goto	u4440
  4732     14EE                     u4441:
  4733     14EE  2CF7               	goto	l575
  4734     14EF                     u4440:
  4735     14EF                     l3537:
  4736     14EF  3000               	movlw	0
  4737     14F0  00F3               	movwf	___fleq@ff1+3
  4738     14F1  3000               	movlw	0
  4739     14F2  00F2               	movwf	___fleq@ff1+2
  4740     14F3  3000               	movlw	0
  4741     14F4  00F1               	movwf	___fleq@ff1+1
  4742     14F5  3000               	movlw	0
  4743     14F6  00F0               	movwf	___fleq@ff1
  4744     14F7                     l575:
  4745     14F7  3000               	movlw	0
  4746     14F8  0574               	andwf	___fleq@ff2,w
  4747     14F9  00F8               	movwf	??___fleq
  4748     14FA  3000               	movlw	0
  4749     14FB  0575               	andwf	___fleq@ff2+1,w
  4750     14FC  00F9               	movwf	??___fleq+1
  4751     14FD  3080               	movlw	128
  4752     14FE  0576               	andwf	___fleq@ff2+2,w
  4753     14FF  00FA               	movwf	??___fleq+2
  4754     1500  307F               	movlw	127
  4755     1501  0577               	andwf	___fleq@ff2+3,w
  4756     1502  00FB               	movwf	??___fleq+3
  4757     1503  087B               	movf	??___fleq+3,w
  4758     1504  047A               	iorwf	??___fleq+2,w
  4759     1505  0479               	iorwf	??___fleq+1,w
  4760     1506  0478               	iorwf	??___fleq,w
  4761     1507  1D03               	skipz
  4762     1508  2D0A               	goto	u4451
  4763     1509  2D0B               	goto	u4450
  4764     150A                     u4451:
  4765     150A  2D13               	goto	l576
  4766     150B                     u4450:
  4767     150B                     l3539:
  4768     150B  3000               	movlw	0
  4769     150C  00F7               	movwf	___fleq@ff2+3
  4770     150D  3000               	movlw	0
  4771     150E  00F6               	movwf	___fleq@ff2+2
  4772     150F  3000               	movlw	0
  4773     1510  00F5               	movwf	___fleq@ff2+1
  4774     1511  3000               	movlw	0
  4775     1512  00F4               	movwf	___fleq@ff2
  4776     1513                     l576:
  4777     1513  0877               	movf	___fleq@ff2+3,w
  4778     1514  0673               	xorwf	___fleq@ff1+3,w
  4779     1515  1D03               	skipz
  4780     1516  2D21               	goto	u4465
  4781     1517  0876               	movf	___fleq@ff2+2,w
  4782     1518  0672               	xorwf	___fleq@ff1+2,w
  4783     1519  1D03               	skipz
  4784     151A  2D21               	goto	u4465
  4785     151B  0875               	movf	___fleq@ff2+1,w
  4786     151C  0671               	xorwf	___fleq@ff1+1,w
  4787     151D  1D03               	skipz
  4788     151E  2D21               	goto	u4465
  4789     151F  0874               	movf	___fleq@ff2,w
  4790     1520  0670               	xorwf	___fleq@ff1,w
  4791     1521                     u4465:
  4792     1521  1903               	skipnz
  4793     1522  2D24               	goto	u4461
  4794     1523  2D25               	goto	u4460
  4795     1524                     u4461:
  4796     1524  2D27               	goto	l3543
  4797     1525                     u4460:
  4798     1525                     l3541:
  4799     1525  1003               	clrc
  4800     1526  2D28               	goto	l577
  4801     1527                     l3543:
  4802     1527  1403               	setc
  4803     1528                     l577:
  4804     1528  0008               	return
  4805     1529                     __end_of___fleq:
  4806                           
  4807                           	psect	text15
  4808     099F                     __ptext15:	
  4809 ;; *************** function _eval_poly *****************
  4810 ;; Defined at:
  4811 ;;		line 4 in file "C:\Program Files\Microchip\xc8\v2.41\pic\sources\c90\common\evalpoly.c"
  4812 ;; Parameters:    Size  Location     Type
  4813 ;;  x               4    0[BANK1 ] PTR int 
  4814 ;;  d               1    4[BANK1 ] PTR const 
  4815 ;;		 -> log@coeff(36), 
  4816 ;;  n               2    5[BANK1 ] int 
  4817 ;; Auto vars:     Size  Location     Type
  4818 ;;  res             4   12[BANK1 ] int 
  4819 ;; Return value:  Size  Location     Type
  4820 ;;                  4    0[BANK1 ] int 
  4821 ;; Registers used:
  4822 ;;		wreg, fsr0l, fsr0h, status,2, status,0, btemp+1, pclath, cstack
  4823 ;; Tracked objects:
  4824 ;;		On entry : 0/0
  4825 ;;		On exit  : 0/0
  4826 ;;		Unchanged: 0/0
  4827 ;; Data sizes:     COMMON   BANK0   BANK1   BANK3   BANK2
  4828 ;;      Params:         0       0       7       0       0
  4829 ;;      Locals:         0       0       4       0       0
  4830 ;;      Temps:          0       0       5       0       0
  4831 ;;      Totals:         0       0      16       0       0
  4832 ;;Total ram usage:       16 bytes
  4833 ;; Hardware stack levels used: 1
  4834 ;; Hardware stack levels required when called: 2
  4835 ;; This function calls:
  4836 ;;		___fladd
  4837 ;;		___flmul
  4838 ;; This function is called by:
  4839 ;;		_log
  4840 ;; This function uses a non-reentrant model
  4841 ;;
  4842                           
  4843     099F                     _eval_poly:	
  4844                           ;psect for function _eval_poly
  4845                           
  4846     099F                     l3977:	
  4847                           ;incstack = 0
  4848                           ; Regs used in _eval_poly: [wreg-fsr0h+status,2+status,0+btemp+1+pclath+cstack]
  4849                           
  4850     099F  1683               	bsf	3,5	;RP0=1, select bank1
  4851     09A0  1303               	bcf	3,6	;RP1=0, select bank1
  4852     09A1  0825               	movf	eval_poly@n^(0+128),w
  4853     09A2  00A7               	movwf	??_eval_poly^(0+128)
  4854     09A3  3001               	movlw	1
  4855     09A4                     u5525:
  4856     09A4  1003               	clrc
  4857     09A5  0DA7               	rlf	??_eval_poly^(0+128),f
  4858     09A6  3EFF               	addlw	-1
  4859     09A7  1D03               	skipz
  4860     09A8  29A4               	goto	u5525
  4861     09A9  1003               	clrc
  4862     09AA  0D27               	rlf	??_eval_poly^(0+128),w
  4863     09AB  0724               	addwf	eval_poly@d^(0+128),w
  4864     09AC  0084               	movwf	4
  4865     09AD  120A  158A  200A  120A  158A  	fcall	stringdir
  4866     09B2  00A8               	movwf	(??_eval_poly+1)^(0+128)
  4867     09B3  120A  158A  200A  120A  158A  	fcall	stringdir
  4868     09B8  00A9               	movwf	((??_eval_poly+1)^(0+128)+1)
  4869     09B9  120A  158A  200A  120A  158A  	fcall	stringdir
  4870     09BE  00AA               	movwf	((??_eval_poly+1)^(0+128)+2)
  4871     09BF  120A  158A  200A  120A  158A  	fcall	stringdir
  4872     09C4  00AB               	movwf	((??_eval_poly+1)^(0+128)+3)
  4873     09C5  082B               	movf	(??_eval_poly+4)^(0+128),w
  4874     09C6  00AF               	movwf	(eval_poly@res+3)^(0+128)
  4875     09C7  082A               	movf	(??_eval_poly+3)^(0+128),w
  4876     09C8  00AE               	movwf	(eval_poly@res+2)^(0+128)
  4877     09C9  0829               	movf	(??_eval_poly+2)^(0+128),w
  4878     09CA  00AD               	movwf	(eval_poly@res+1)^(0+128)
  4879     09CB  0828               	movf	(??_eval_poly+1)^(0+128),w
  4880     09CC  00AC               	movwf	eval_poly@res^(0+128)
  4881     09CD  2A6A               	goto	l3981
  4882     09CE                     l3979:
  4883     09CE  30FF               	movlw	255
  4884     09CF  07A5               	addwf	eval_poly@n^(0+128),f
  4885     09D0  1803               	skipnc
  4886     09D1  0AA6               	incf	(eval_poly@n+1)^(0+128),f
  4887     09D2  30FF               	movlw	255
  4888     09D3  07A6               	addwf	(eval_poly@n+1)^(0+128),f
  4889     09D4  0825               	movf	eval_poly@n^(0+128),w
  4890     09D5  00A7               	movwf	??_eval_poly^(0+128)
  4891     09D6  3001               	movlw	1
  4892     09D7                     u5535:
  4893     09D7  1003               	clrc
  4894     09D8  0DA7               	rlf	??_eval_poly^(0+128),f
  4895     09D9  3EFF               	addlw	-1
  4896     09DA  1D03               	skipz
  4897     09DB  29D7               	goto	u5535
  4898     09DC  1003               	clrc
  4899     09DD  0D27               	rlf	??_eval_poly^(0+128),w
  4900     09DE  0724               	addwf	eval_poly@d^(0+128),w
  4901     09DF  0084               	movwf	4
  4902     09E0  120A  158A  200A  120A  158A  	fcall	stringdir
  4903     09E5  00A8               	movwf	(??_eval_poly+1)^(0+128)
  4904     09E6  120A  158A  200A  120A  158A  	fcall	stringdir
  4905     09EB  00A9               	movwf	((??_eval_poly+1)^(0+128)+1)
  4906     09EC  120A  158A  200A  120A  158A  	fcall	stringdir
  4907     09F1  00AA               	movwf	((??_eval_poly+1)^(0+128)+2)
  4908     09F2  120A  158A  200A  120A  158A  	fcall	stringdir
  4909     09F7  00AB               	movwf	((??_eval_poly+1)^(0+128)+3)
  4910     09F8  082B               	movf	(??_eval_poly+4)^(0+128),w
  4911     09F9  1283               	bcf	3,5	;RP0=0, select bank0
  4912     09FA  1303               	bcf	3,6	;RP1=0, select bank0
  4913     09FB  00DC               	movwf	___fladd@b+3
  4914     09FC  1683               	bsf	3,5	;RP0=1, select bank1
  4915     09FD  1303               	bcf	3,6	;RP1=0, select bank1
  4916     09FE  082A               	movf	(??_eval_poly+3)^(0+128),w
  4917     09FF  1283               	bcf	3,5	;RP0=0, select bank0
  4918     0A00  1303               	bcf	3,6	;RP1=0, select bank0
  4919     0A01  00DB               	movwf	___fladd@b+2
  4920     0A02  1683               	bsf	3,5	;RP0=1, select bank1
  4921     0A03  1303               	bcf	3,6	;RP1=0, select bank1
  4922     0A04  0829               	movf	(??_eval_poly+2)^(0+128),w
  4923     0A05  1283               	bcf	3,5	;RP0=0, select bank0
  4924     0A06  1303               	bcf	3,6	;RP1=0, select bank0
  4925     0A07  00DA               	movwf	___fladd@b+1
  4926     0A08  1683               	bsf	3,5	;RP0=1, select bank1
  4927     0A09  1303               	bcf	3,6	;RP1=0, select bank1
  4928     0A0A  0828               	movf	(??_eval_poly+1)^(0+128),w
  4929     0A0B  1283               	bcf	3,5	;RP0=0, select bank0
  4930     0A0C  1303               	bcf	3,6	;RP1=0, select bank0
  4931     0A0D  00D9               	movwf	___fladd@b
  4932     0A0E  1683               	bsf	3,5	;RP0=1, select bank1
  4933     0A0F  1303               	bcf	3,6	;RP1=0, select bank1
  4934     0A10  082F               	movf	(eval_poly@res+3)^(0+128),w
  4935     0A11  1283               	bcf	3,5	;RP0=0, select bank0
  4936     0A12  1303               	bcf	3,6	;RP1=0, select bank0
  4937     0A13  00A8               	movwf	___flmul@b+3
  4938     0A14  1683               	bsf	3,5	;RP0=1, select bank1
  4939     0A15  1303               	bcf	3,6	;RP1=0, select bank1
  4940     0A16  082E               	movf	(eval_poly@res+2)^(0+128),w
  4941     0A17  1283               	bcf	3,5	;RP0=0, select bank0
  4942     0A18  1303               	bcf	3,6	;RP1=0, select bank0
  4943     0A19  00A7               	movwf	___flmul@b+2
  4944     0A1A  1683               	bsf	3,5	;RP0=1, select bank1
  4945     0A1B  1303               	bcf	3,6	;RP1=0, select bank1
  4946     0A1C  082D               	movf	(eval_poly@res+1)^(0+128),w
  4947     0A1D  1283               	bcf	3,5	;RP0=0, select bank0
  4948     0A1E  1303               	bcf	3,6	;RP1=0, select bank0
  4949     0A1F  00A6               	movwf	___flmul@b+1
  4950     0A20  1683               	bsf	3,5	;RP0=1, select bank1
  4951     0A21  1303               	bcf	3,6	;RP1=0, select bank1
  4952     0A22  082C               	movf	eval_poly@res^(0+128),w
  4953     0A23  1283               	bcf	3,5	;RP0=0, select bank0
  4954     0A24  1303               	bcf	3,6	;RP1=0, select bank0
  4955     0A25  00A5               	movwf	___flmul@b
  4956     0A26  1683               	bsf	3,5	;RP0=1, select bank1
  4957     0A27  1303               	bcf	3,6	;RP1=0, select bank1
  4958     0A28  0823               	movf	(eval_poly@x+3)^(0+128),w
  4959     0A29  1283               	bcf	3,5	;RP0=0, select bank0
  4960     0A2A  1303               	bcf	3,6	;RP1=0, select bank0
  4961     0A2B  00AC               	movwf	___flmul@a+3
  4962     0A2C  1683               	bsf	3,5	;RP0=1, select bank1
  4963     0A2D  1303               	bcf	3,6	;RP1=0, select bank1
  4964     0A2E  0822               	movf	(eval_poly@x+2)^(0+128),w
  4965     0A2F  1283               	bcf	3,5	;RP0=0, select bank0
  4966     0A30  1303               	bcf	3,6	;RP1=0, select bank0
  4967     0A31  00AB               	movwf	___flmul@a+2
  4968     0A32  1683               	bsf	3,5	;RP0=1, select bank1
  4969     0A33  1303               	bcf	3,6	;RP1=0, select bank1
  4970     0A34  0821               	movf	(eval_poly@x+1)^(0+128),w
  4971     0A35  1283               	bcf	3,5	;RP0=0, select bank0
  4972     0A36  1303               	bcf	3,6	;RP1=0, select bank0
  4973     0A37  00AA               	movwf	___flmul@a+1
  4974     0A38  1683               	bsf	3,5	;RP0=1, select bank1
  4975     0A39  1303               	bcf	3,6	;RP1=0, select bank1
  4976     0A3A  0820               	movf	eval_poly@x^(0+128),w
  4977     0A3B  1283               	bcf	3,5	;RP0=0, select bank0
  4978     0A3C  1303               	bcf	3,6	;RP1=0, select bank0
  4979     0A3D  00A9               	movwf	___flmul@a
  4980     0A3E  120A  118A  2497  120A  158A  	fcall	___flmul
  4981     0A43  1283               	bcf	3,5	;RP0=0, select bank0
  4982     0A44  1303               	bcf	3,6	;RP1=0, select bank0
  4983     0A45  0828               	movf	?___flmul+3,w
  4984     0A46  00E0               	movwf	___fladd@a+3
  4985     0A47  0827               	movf	?___flmul+2,w
  4986     0A48  00DF               	movwf	___fladd@a+2
  4987     0A49  0826               	movf	?___flmul+1,w
  4988     0A4A  00DE               	movwf	___fladd@a+1
  4989     0A4B  0825               	movf	?___flmul,w
  4990     0A4C  00DD               	movwf	___fladd@a
  4991     0A4D  120A  118A  223F  120A  158A  	fcall	___fladd
  4992     0A52  1283               	bcf	3,5	;RP0=0, select bank0
  4993     0A53  1303               	bcf	3,6	;RP1=0, select bank0
  4994     0A54  085C               	movf	?___fladd+3,w
  4995     0A55  1683               	bsf	3,5	;RP0=1, select bank1
  4996     0A56  1303               	bcf	3,6	;RP1=0, select bank1
  4997     0A57  00AF               	movwf	(eval_poly@res+3)^(0+128)
  4998     0A58  1283               	bcf	3,5	;RP0=0, select bank0
  4999     0A59  1303               	bcf	3,6	;RP1=0, select bank0
  5000     0A5A  085B               	movf	?___fladd+2,w
  5001     0A5B  1683               	bsf	3,5	;RP0=1, select bank1
  5002     0A5C  1303               	bcf	3,6	;RP1=0, select bank1
  5003     0A5D  00AE               	movwf	(eval_poly@res+2)^(0+128)
  5004     0A5E  1283               	bcf	3,5	;RP0=0, select bank0
  5005     0A5F  1303               	bcf	3,6	;RP1=0, select bank0
  5006     0A60  085A               	movf	?___fladd+1,w
  5007     0A61  1683               	bsf	3,5	;RP0=1, select bank1
  5008     0A62  1303               	bcf	3,6	;RP1=0, select bank1
  5009     0A63  00AD               	movwf	(eval_poly@res+1)^(0+128)
  5010     0A64  1283               	bcf	3,5	;RP0=0, select bank0
  5011     0A65  1303               	bcf	3,6	;RP1=0, select bank0
  5012     0A66  0859               	movf	?___fladd,w
  5013     0A67  1683               	bsf	3,5	;RP0=1, select bank1
  5014     0A68  1303               	bcf	3,6	;RP1=0, select bank1
  5015     0A69  00AC               	movwf	eval_poly@res^(0+128)
  5016     0A6A                     l3981:
  5017     0A6A  0825               	movf	eval_poly@n^(0+128),w
  5018     0A6B  0426               	iorwf	(eval_poly@n+1)^(0+128),w
  5019     0A6C  1D03               	btfss	3,2
  5020     0A6D  2A6F               	goto	u5541
  5021     0A6E  2A70               	goto	u5540
  5022     0A6F                     u5541:
  5023     0A6F  29CE               	goto	l3979
  5024     0A70                     u5540:
  5025     0A70                     l3983:
  5026     0A70  082F               	movf	(eval_poly@res+3)^(0+128),w
  5027     0A71  00A3               	movwf	(?_eval_poly+3)^(0+128)
  5028     0A72  082E               	movf	(eval_poly@res+2)^(0+128),w
  5029     0A73  00A2               	movwf	(?_eval_poly+2)^(0+128)
  5030     0A74  082D               	movf	(eval_poly@res+1)^(0+128),w
  5031     0A75  00A1               	movwf	(?_eval_poly+1)^(0+128)
  5032     0A76  082C               	movf	eval_poly@res^(0+128),w
  5033     0A77  00A0               	movwf	?_eval_poly^(0+128)
  5034     0A78                     l878:
  5035     0A78  0008               	return
  5036     0A79                     __end_of_eval_poly:
  5037                           
  5038                           	psect	text16
  5039     0497                     __ptext16:	
  5040 ;; *************** function ___flmul *****************
  5041 ;; Defined at:
  5042 ;;		line 8 in file "C:\Program Files\Microchip\xc8\v2.41\pic\sources\c90\common\sprcmul.c"
  5043 ;; Parameters:    Size  Location     Type
  5044 ;;  b               4    5[BANK0 ] int 
  5045 ;;  a               4    9[BANK0 ] int 
  5046 ;; Auto vars:     Size  Location     Type
  5047 ;;  prod            4   25[BANK0 ] struct .
  5048 ;;  grs             4   20[BANK0 ] unsigned long 
  5049 ;;  temp            2   29[BANK0 ] struct .
  5050 ;;  bexp            1   24[BANK0 ] unsigned char 
  5051 ;;  aexp            1   19[BANK0 ] unsigned char 
  5052 ;;  sign            1   18[BANK0 ] unsigned char 
  5053 ;; Return value:  Size  Location     Type
  5054 ;;                  4    5[BANK0 ] unsigned char 
  5055 ;; Registers used:
  5056 ;;		wreg, status,2, status,0, btemp+1, pclath, cstack
  5057 ;; Tracked objects:
  5058 ;;		On entry : 0/0
  5059 ;;		On exit  : 0/0
  5060 ;;		Unchanged: 0/0
  5061 ;; Data sizes:     COMMON   BANK0   BANK1   BANK3   BANK2
  5062 ;;      Params:         0       8       0       0       0
  5063 ;;      Locals:         0      13       0       0       0
  5064 ;;      Temps:          0       5       0       0       0
  5065 ;;      Totals:         0      26       0       0       0
  5066 ;;Total ram usage:       26 bytes
  5067 ;; Hardware stack levels used: 1
  5068 ;; Hardware stack levels required when called: 1
  5069 ;; This function calls:
  5070 ;;		__Umul8_16
  5071 ;; This function is called by:
  5072 ;;		_log
  5073 ;;		_eval_poly
  5074 ;; This function uses a non-reentrant model
  5075 ;;
  5076                           
  5077     0497                     ___flmul:	
  5078                           ;psect for function ___flmul
  5079                           
  5080     0497                     l3747:	
  5081                           ;incstack = 0
  5082                           ; Regs used in ___flmul: [wreg+status,2+status,0+btemp+1+pclath+cstack]
  5083                           
  5084     0497  1283               	bcf	3,5	;RP0=0, select bank0
  5085     0498  1303               	bcf	3,6	;RP1=0, select bank0
  5086     0499  0828               	movf	___flmul@b+3,w
  5087     049A  3980               	andlw	128
  5088     049B  00B2               	movwf	___flmul@sign
  5089     049C                     l3749:
  5090     049C  0828               	movf	___flmul@b+3,w
  5091     049D  00AD               	movwf	??___flmul
  5092     049E  072D               	addwf	??___flmul,w
  5093     049F  00B8               	movwf	___flmul@bexp
  5094     04A0                     l3751:
  5095     04A0  1FA7               	btfss	___flmul@b+2,7
  5096     04A1  2CA3               	goto	u4931
  5097     04A2  2CA4               	goto	u4930
  5098     04A3                     u4931:
  5099     04A3  2CA5               	goto	l3755
  5100     04A4                     u4930:
  5101     04A4                     l3753:
  5102     04A4  1438               	bsf	___flmul@bexp,0
  5103     04A5                     l3755:
  5104     04A5  0838               	movf	___flmul@bexp,w
  5105     04A6  1903               	btfsc	3,2
  5106     04A7  2CA9               	goto	u4941
  5107     04A8  2CAA               	goto	u4940
  5108     04A9                     u4941:
  5109     04A9  2CB9               	goto	l3763
  5110     04AA                     u4940:
  5111     04AA                     l3757:
  5112     04AA  0A38               	incf	___flmul@bexp,w
  5113     04AB  1D03               	btfss	3,2
  5114     04AC  2CAE               	goto	u4951
  5115     04AD  2CAF               	goto	u4950
  5116     04AE                     u4951:
  5117     04AE  2CB7               	goto	l3761
  5118     04AF                     u4950:
  5119     04AF                     l3759:
  5120     04AF  3000               	movlw	0
  5121     04B0  00A8               	movwf	___flmul@b+3
  5122     04B1  3000               	movlw	0
  5123     04B2  00A7               	movwf	___flmul@b+2
  5124     04B3  3000               	movlw	0
  5125     04B4  00A6               	movwf	___flmul@b+1
  5126     04B5  3000               	movlw	0
  5127     04B6  00A5               	movwf	___flmul@b
  5128     04B7                     l3761:
  5129     04B7  17A7               	bsf	___flmul@b+2,7
  5130     04B8  2CC1               	goto	l3765
  5131     04B9                     l3763:
  5132     04B9  3000               	movlw	0
  5133     04BA  00A8               	movwf	___flmul@b+3
  5134     04BB  3000               	movlw	0
  5135     04BC  00A7               	movwf	___flmul@b+2
  5136     04BD  3000               	movlw	0
  5137     04BE  00A6               	movwf	___flmul@b+1
  5138     04BF  3000               	movlw	0
  5139     04C0  00A5               	movwf	___flmul@b
  5140     04C1                     l3765:
  5141     04C1  082C               	movf	___flmul@a+3,w
  5142     04C2  3980               	andlw	128
  5143     04C3  00FF               	movwf	btemp+1
  5144     04C4  087F               	movf	btemp+1,w
  5145     04C5  06B2               	xorwf	___flmul@sign,f
  5146     04C6                     l3767:
  5147     04C6  082C               	movf	___flmul@a+3,w
  5148     04C7  00AD               	movwf	??___flmul
  5149     04C8  072D               	addwf	??___flmul,w
  5150     04C9  00B3               	movwf	___flmul@aexp
  5151     04CA                     l3769:
  5152     04CA  1FAB               	btfss	___flmul@a+2,7
  5153     04CB  2CCD               	goto	u4961
  5154     04CC  2CCE               	goto	u4960
  5155     04CD                     u4961:
  5156     04CD  2CCF               	goto	l3773
  5157     04CE                     u4960:
  5158     04CE                     l3771:
  5159     04CE  1433               	bsf	___flmul@aexp,0
  5160     04CF                     l3773:
  5161     04CF  0833               	movf	___flmul@aexp,w
  5162     04D0  1903               	btfsc	3,2
  5163     04D1  2CD3               	goto	u4971
  5164     04D2  2CD4               	goto	u4970
  5165     04D3                     u4971:
  5166     04D3  2CE3               	goto	l3781
  5167     04D4                     u4970:
  5168     04D4                     l3775:
  5169     04D4  0A33               	incf	___flmul@aexp,w
  5170     04D5  1D03               	btfss	3,2
  5171     04D6  2CD8               	goto	u4981
  5172     04D7  2CD9               	goto	u4980
  5173     04D8                     u4981:
  5174     04D8  2CE1               	goto	l3779
  5175     04D9                     u4980:
  5176     04D9                     l3777:
  5177     04D9  3000               	movlw	0
  5178     04DA  00AC               	movwf	___flmul@a+3
  5179     04DB  3000               	movlw	0
  5180     04DC  00AB               	movwf	___flmul@a+2
  5181     04DD  3000               	movlw	0
  5182     04DE  00AA               	movwf	___flmul@a+1
  5183     04DF  3000               	movlw	0
  5184     04E0  00A9               	movwf	___flmul@a
  5185     04E1                     l3779:
  5186     04E1  17AB               	bsf	___flmul@a+2,7
  5187     04E2  2CEB               	goto	l3783
  5188     04E3                     l3781:
  5189     04E3  3000               	movlw	0
  5190     04E4  00AC               	movwf	___flmul@a+3
  5191     04E5  3000               	movlw	0
  5192     04E6  00AB               	movwf	___flmul@a+2
  5193     04E7  3000               	movlw	0
  5194     04E8  00AA               	movwf	___flmul@a+1
  5195     04E9  3000               	movlw	0
  5196     04EA  00A9               	movwf	___flmul@a
  5197     04EB                     l3783:
  5198     04EB  0833               	movf	___flmul@aexp,w
  5199     04EC  1903               	btfsc	3,2
  5200     04ED  2CEF               	goto	u4991
  5201     04EE  2CF0               	goto	u4990
  5202     04EF                     u4991:
  5203     04EF  2CF5               	goto	l3787
  5204     04F0                     u4990:
  5205     04F0                     l3785:
  5206     04F0  0838               	movf	___flmul@bexp,w
  5207     04F1  1D03               	btfss	3,2
  5208     04F2  2CF4               	goto	u5001
  5209     04F3  2CF5               	goto	u5000
  5210     04F4                     u5001:
  5211     04F4  2CFE               	goto	l3791
  5212     04F5                     u5000:
  5213     04F5                     l3787:
  5214     04F5  3000               	movlw	0
  5215     04F6  00A8               	movwf	?___flmul+3
  5216     04F7  3000               	movlw	0
  5217     04F8  00A7               	movwf	?___flmul+2
  5218     04F9  3000               	movlw	0
  5219     04FA  00A6               	movwf	?___flmul+1
  5220     04FB  3000               	movlw	0
  5221     04FC  00A5               	movwf	?___flmul
  5222     04FD  2FDB               	goto	l795
  5223     04FE                     l3791:
  5224     04FE  0825               	movf	___flmul@b,w
  5225     04FF  00F0               	movwf	__Umul8_16@multiplicand
  5226     0500  082B               	movf	___flmul@a+2,w
  5227     0501  160A  118A  22C3  120A  118A  	fcall	__Umul8_16
  5228     0506  0871               	movf	?__Umul8_16+1,w
  5229     0507  1283               	bcf	3,5	;RP0=0, select bank0
  5230     0508  1303               	bcf	3,6	;RP1=0, select bank0
  5231     0509  00BE               	movwf	___flmul@temp+1
  5232     050A  0870               	movf	?__Umul8_16,w
  5233     050B  00BD               	movwf	___flmul@temp
  5234     050C                     l3793:
  5235     050C  083D               	movf	___flmul@temp,w
  5236     050D  00AD               	movwf	??___flmul
  5237     050E  01AE               	clrf	??___flmul+1
  5238     050F  01AF               	clrf	??___flmul+2
  5239     0510  01B0               	clrf	??___flmul+3
  5240     0511  0830               	movf	??___flmul+3,w
  5241     0512  00B7               	movwf	___flmul@grs+3
  5242     0513  082F               	movf	??___flmul+2,w
  5243     0514  00B6               	movwf	___flmul@grs+2
  5244     0515  082E               	movf	??___flmul+1,w
  5245     0516  00B5               	movwf	___flmul@grs+1
  5246     0517  082D               	movf	??___flmul,w
  5247     0518  00B4               	movwf	___flmul@grs
  5248     0519                     l3795:
  5249     0519  083E               	movf	___flmul@temp+1,w
  5250     051A  00AD               	movwf	??___flmul
  5251     051B  01AE               	clrf	??___flmul+1
  5252     051C  01AF               	clrf	??___flmul+2
  5253     051D  01B0               	clrf	??___flmul+3
  5254     051E  0830               	movf	??___flmul+3,w
  5255     051F  00BC               	movwf	___flmul@prod+3
  5256     0520  082F               	movf	??___flmul+2,w
  5257     0521  00BB               	movwf	___flmul@prod+2
  5258     0522  082E               	movf	??___flmul+1,w
  5259     0523  00BA               	movwf	___flmul@prod+1
  5260     0524  082D               	movf	??___flmul,w
  5261     0525  00B9               	movwf	___flmul@prod
  5262     0526  0826               	movf	___flmul@b+1,w
  5263     0527  00F0               	movwf	__Umul8_16@multiplicand
  5264     0528  082A               	movf	___flmul@a+1,w
  5265     0529  160A  118A  22C3  120A  118A  	fcall	__Umul8_16
  5266     052E  0871               	movf	?__Umul8_16+1,w
  5267     052F  1283               	bcf	3,5	;RP0=0, select bank0
  5268     0530  1303               	bcf	3,6	;RP1=0, select bank0
  5269     0531  00BE               	movwf	___flmul@temp+1
  5270     0532  0870               	movf	?__Umul8_16,w
  5271     0533  00BD               	movwf	___flmul@temp
  5272     0534                     l3797:
  5273     0534  083D               	movf	___flmul@temp,w
  5274     0535  00AD               	movwf	??___flmul
  5275     0536  01AE               	clrf	??___flmul+1
  5276     0537  01AF               	clrf	??___flmul+2
  5277     0538  01B0               	clrf	??___flmul+3
  5278     0539  082D               	movf	??___flmul,w
  5279     053A  07B4               	addwf	___flmul@grs,f
  5280     053B  082E               	movf	??___flmul+1,w
  5281     053C  1103               	clrz
  5282     053D  1803               	skipnc
  5283     053E  3E01               	addlw	1
  5284     053F  1903               	skipnz
  5285     0540  2D42               	goto	u5011
  5286     0541  07B5               	addwf	___flmul@grs+1,f
  5287     0542                     u5011:
  5288     0542  082F               	movf	??___flmul+2,w
  5289     0543  1103               	clrz
  5290     0544  1803               	skipnc
  5291     0545  3E01               	addlw	1
  5292     0546  1903               	skipnz
  5293     0547  2D49               	goto	u5012
  5294     0548  07B6               	addwf	___flmul@grs+2,f
  5295     0549                     u5012:
  5296     0549  0830               	movf	??___flmul+3,w
  5297     054A  1103               	clrz
  5298     054B  1803               	skipnc
  5299     054C  3E01               	addlw	1
  5300     054D  1903               	skipnz
  5301     054E  2D50               	goto	u5013
  5302     054F  07B7               	addwf	___flmul@grs+3,f
  5303     0550                     u5013:
  5304     0550                     l3799:
  5305     0550  083E               	movf	___flmul@temp+1,w
  5306     0551  00AD               	movwf	??___flmul
  5307     0552  01AE               	clrf	??___flmul+1
  5308     0553  01AF               	clrf	??___flmul+2
  5309     0554  01B0               	clrf	??___flmul+3
  5310     0555  082D               	movf	??___flmul,w
  5311     0556  07B9               	addwf	___flmul@prod,f
  5312     0557  082E               	movf	??___flmul+1,w
  5313     0558  1103               	clrz
  5314     0559  1803               	skipnc
  5315     055A  3E01               	addlw	1
  5316     055B  1903               	skipnz
  5317     055C  2D5E               	goto	u5021
  5318     055D  07BA               	addwf	___flmul@prod+1,f
  5319     055E                     u5021:
  5320     055E  082F               	movf	??___flmul+2,w
  5321     055F  1103               	clrz
  5322     0560  1803               	skipnc
  5323     0561  3E01               	addlw	1
  5324     0562  1903               	skipnz
  5325     0563  2D65               	goto	u5022
  5326     0564  07BB               	addwf	___flmul@prod+2,f
  5327     0565                     u5022:
  5328     0565  0830               	movf	??___flmul+3,w
  5329     0566  1103               	clrz
  5330     0567  1803               	skipnc
  5331     0568  3E01               	addlw	1
  5332     0569  1903               	skipnz
  5333     056A  2D6C               	goto	u5023
  5334     056B  07BC               	addwf	___flmul@prod+3,f
  5335     056C                     u5023:
  5336     056C  0827               	movf	___flmul@b+2,w
  5337     056D  00F0               	movwf	__Umul8_16@multiplicand
  5338     056E  0829               	movf	___flmul@a,w
  5339     056F  160A  118A  22C3  120A  118A  	fcall	__Umul8_16
  5340     0574  0871               	movf	?__Umul8_16+1,w
  5341     0575  1283               	bcf	3,5	;RP0=0, select bank0
  5342     0576  1303               	bcf	3,6	;RP1=0, select bank0
  5343     0577  00BE               	movwf	___flmul@temp+1
  5344     0578  0870               	movf	?__Umul8_16,w
  5345     0579  00BD               	movwf	___flmul@temp
  5346     057A                     l3801:
  5347     057A  083D               	movf	___flmul@temp,w
  5348     057B  00AD               	movwf	??___flmul
  5349     057C  01AE               	clrf	??___flmul+1
  5350     057D  01AF               	clrf	??___flmul+2
  5351     057E  01B0               	clrf	??___flmul+3
  5352     057F  082D               	movf	??___flmul,w
  5353     0580  07B4               	addwf	___flmul@grs,f
  5354     0581  082E               	movf	??___flmul+1,w
  5355     0582  1103               	clrz
  5356     0583  1803               	skipnc
  5357     0584  3E01               	addlw	1
  5358     0585  1903               	skipnz
  5359     0586  2D88               	goto	u5031
  5360     0587  07B5               	addwf	___flmul@grs+1,f
  5361     0588                     u5031:
  5362     0588  082F               	movf	??___flmul+2,w
  5363     0589  1103               	clrz
  5364     058A  1803               	skipnc
  5365     058B  3E01               	addlw	1
  5366     058C  1903               	skipnz
  5367     058D  2D8F               	goto	u5032
  5368     058E  07B6               	addwf	___flmul@grs+2,f
  5369     058F                     u5032:
  5370     058F  0830               	movf	??___flmul+3,w
  5371     0590  1103               	clrz
  5372     0591  1803               	skipnc
  5373     0592  3E01               	addlw	1
  5374     0593  1903               	skipnz
  5375     0594  2D96               	goto	u5033
  5376     0595  07B7               	addwf	___flmul@grs+3,f
  5377     0596                     u5033:
  5378     0596                     l3803:
  5379     0596  083E               	movf	___flmul@temp+1,w
  5380     0597  00AD               	movwf	??___flmul
  5381     0598  01AE               	clrf	??___flmul+1
  5382     0599  01AF               	clrf	??___flmul+2
  5383     059A  01B0               	clrf	??___flmul+3
  5384     059B  082D               	movf	??___flmul,w
  5385     059C  07B9               	addwf	___flmul@prod,f
  5386     059D  082E               	movf	??___flmul+1,w
  5387     059E  1103               	clrz
  5388     059F  1803               	skipnc
  5389     05A0  3E01               	addlw	1
  5390     05A1  1903               	skipnz
  5391     05A2  2DA4               	goto	u5041
  5392     05A3  07BA               	addwf	___flmul@prod+1,f
  5393     05A4                     u5041:
  5394     05A4  082F               	movf	??___flmul+2,w
  5395     05A5  1103               	clrz
  5396     05A6  1803               	skipnc
  5397     05A7  3E01               	addlw	1
  5398     05A8  1903               	skipnz
  5399     05A9  2DAB               	goto	u5042
  5400     05AA  07BB               	addwf	___flmul@prod+2,f
  5401     05AB                     u5042:
  5402     05AB  0830               	movf	??___flmul+3,w
  5403     05AC  1103               	clrz
  5404     05AD  1803               	skipnc
  5405     05AE  3E01               	addlw	1
  5406     05AF  1903               	skipnz
  5407     05B0  2DB2               	goto	u5043
  5408     05B1  07BC               	addwf	___flmul@prod+3,f
  5409     05B2                     u5043:
  5410     05B2                     l3805:
  5411     05B2  3008               	movlw	8
  5412     05B3  00AD               	movwf	??___flmul
  5413     05B4                     u5055:
  5414     05B4  1003               	clrc
  5415     05B5  0DB4               	rlf	___flmul@grs,f
  5416     05B6  0DB5               	rlf	___flmul@grs+1,f
  5417     05B7  0DB6               	rlf	___flmul@grs+2,f
  5418     05B8  0DB7               	rlf	___flmul@grs+3,f
  5419     05B9  0BAD               	decfsz	??___flmul,f
  5420     05BA  2DB4               	goto	u5055
  5421     05BB                     l3807:
  5422     05BB  0826               	movf	___flmul@b+1,w
  5423     05BC  00F0               	movwf	__Umul8_16@multiplicand
  5424     05BD  0829               	movf	___flmul@a,w
  5425     05BE  160A  118A  22C3  120A  118A  	fcall	__Umul8_16
  5426     05C3  0871               	movf	?__Umul8_16+1,w
  5427     05C4  1283               	bcf	3,5	;RP0=0, select bank0
  5428     05C5  1303               	bcf	3,6	;RP1=0, select bank0
  5429     05C6  00BE               	movwf	___flmul@temp+1
  5430     05C7  0870               	movf	?__Umul8_16,w
  5431     05C8  00BD               	movwf	___flmul@temp
  5432     05C9                     l3809:
  5433     05C9  083D               	movf	___flmul@temp,w
  5434     05CA  00AD               	movwf	??___flmul
  5435     05CB  083E               	movf	___flmul@temp+1,w
  5436     05CC  00AE               	movwf	??___flmul+1
  5437     05CD  01AF               	clrf	??___flmul+2
  5438     05CE  01B0               	clrf	??___flmul+3
  5439     05CF  082D               	movf	??___flmul,w
  5440     05D0  07B4               	addwf	___flmul@grs,f
  5441     05D1  082E               	movf	??___flmul+1,w
  5442     05D2  1103               	clrz
  5443     05D3  1803               	skipnc
  5444     05D4  3E01               	addlw	1
  5445     05D5  1903               	skipnz
  5446     05D6  2DD8               	goto	u5061
  5447     05D7  07B5               	addwf	___flmul@grs+1,f
  5448     05D8                     u5061:
  5449     05D8  082F               	movf	??___flmul+2,w
  5450     05D9  1103               	clrz
  5451     05DA  1803               	skipnc
  5452     05DB  3E01               	addlw	1
  5453     05DC  1903               	skipnz
  5454     05DD  2DDF               	goto	u5062
  5455     05DE  07B6               	addwf	___flmul@grs+2,f
  5456     05DF                     u5062:
  5457     05DF  0830               	movf	??___flmul+3,w
  5458     05E0  1103               	clrz
  5459     05E1  1803               	skipnc
  5460     05E2  3E01               	addlw	1
  5461     05E3  1903               	skipnz
  5462     05E4  2DE6               	goto	u5063
  5463     05E5  07B7               	addwf	___flmul@grs+3,f
  5464     05E6                     u5063:
  5465     05E6                     l3811:
  5466     05E6  0825               	movf	___flmul@b,w
  5467     05E7  00F0               	movwf	__Umul8_16@multiplicand
  5468     05E8  082A               	movf	___flmul@a+1,w
  5469     05E9  160A  118A  22C3  120A  118A  	fcall	__Umul8_16
  5470     05EE  0871               	movf	?__Umul8_16+1,w
  5471     05EF  1283               	bcf	3,5	;RP0=0, select bank0
  5472     05F0  1303               	bcf	3,6	;RP1=0, select bank0
  5473     05F1  00BE               	movwf	___flmul@temp+1
  5474     05F2  0870               	movf	?__Umul8_16,w
  5475     05F3  00BD               	movwf	___flmul@temp
  5476     05F4                     l3813:
  5477     05F4  083D               	movf	___flmul@temp,w
  5478     05F5  00AD               	movwf	??___flmul
  5479     05F6  083E               	movf	___flmul@temp+1,w
  5480     05F7  00AE               	movwf	??___flmul+1
  5481     05F8  01AF               	clrf	??___flmul+2
  5482     05F9  01B0               	clrf	??___flmul+3
  5483     05FA  082D               	movf	??___flmul,w
  5484     05FB  07B4               	addwf	___flmul@grs,f
  5485     05FC  082E               	movf	??___flmul+1,w
  5486     05FD  1103               	clrz
  5487     05FE  1803               	skipnc
  5488     05FF  3E01               	addlw	1
  5489     0600  1903               	skipnz
  5490     0601  2E03               	goto	u5071
  5491     0602  07B5               	addwf	___flmul@grs+1,f
  5492     0603                     u5071:
  5493     0603  082F               	movf	??___flmul+2,w
  5494     0604  1103               	clrz
  5495     0605  1803               	skipnc
  5496     0606  3E01               	addlw	1
  5497     0607  1903               	skipnz
  5498     0608  2E0A               	goto	u5072
  5499     0609  07B6               	addwf	___flmul@grs+2,f
  5500     060A                     u5072:
  5501     060A  0830               	movf	??___flmul+3,w
  5502     060B  1103               	clrz
  5503     060C  1803               	skipnc
  5504     060D  3E01               	addlw	1
  5505     060E  1903               	skipnz
  5506     060F  2E11               	goto	u5073
  5507     0610  07B7               	addwf	___flmul@grs+3,f
  5508     0611                     u5073:
  5509     0611                     l3815:
  5510     0611  3008               	movlw	8
  5511     0612  00AD               	movwf	??___flmul
  5512     0613                     u5085:
  5513     0613  1003               	clrc
  5514     0614  0DB4               	rlf	___flmul@grs,f
  5515     0615  0DB5               	rlf	___flmul@grs+1,f
  5516     0616  0DB6               	rlf	___flmul@grs+2,f
  5517     0617  0DB7               	rlf	___flmul@grs+3,f
  5518     0618  0BAD               	decfsz	??___flmul,f
  5519     0619  2E13               	goto	u5085
  5520     061A  0825               	movf	___flmul@b,w
  5521     061B  00F0               	movwf	__Umul8_16@multiplicand
  5522     061C  0829               	movf	___flmul@a,w
  5523     061D  160A  118A  22C3  120A  118A  	fcall	__Umul8_16
  5524     0622  0871               	movf	?__Umul8_16+1,w
  5525     0623  1283               	bcf	3,5	;RP0=0, select bank0
  5526     0624  1303               	bcf	3,6	;RP1=0, select bank0
  5527     0625  00BE               	movwf	___flmul@temp+1
  5528     0626  0870               	movf	?__Umul8_16,w
  5529     0627  00BD               	movwf	___flmul@temp
  5530     0628                     l3817:
  5531     0628  083D               	movf	___flmul@temp,w
  5532     0629  00AD               	movwf	??___flmul
  5533     062A  083E               	movf	___flmul@temp+1,w
  5534     062B  00AE               	movwf	??___flmul+1
  5535     062C  01AF               	clrf	??___flmul+2
  5536     062D  01B0               	clrf	??___flmul+3
  5537     062E  082D               	movf	??___flmul,w
  5538     062F  07B4               	addwf	___flmul@grs,f
  5539     0630  082E               	movf	??___flmul+1,w
  5540     0631  1103               	clrz
  5541     0632  1803               	skipnc
  5542     0633  3E01               	addlw	1
  5543     0634  1903               	skipnz
  5544     0635  2E37               	goto	u5091
  5545     0636  07B5               	addwf	___flmul@grs+1,f
  5546     0637                     u5091:
  5547     0637  082F               	movf	??___flmul+2,w
  5548     0638  1103               	clrz
  5549     0639  1803               	skipnc
  5550     063A  3E01               	addlw	1
  5551     063B  1903               	skipnz
  5552     063C  2E3E               	goto	u5092
  5553     063D  07B6               	addwf	___flmul@grs+2,f
  5554     063E                     u5092:
  5555     063E  0830               	movf	??___flmul+3,w
  5556     063F  1103               	clrz
  5557     0640  1803               	skipnc
  5558     0641  3E01               	addlw	1
  5559     0642  1903               	skipnz
  5560     0643  2E45               	goto	u5093
  5561     0644  07B7               	addwf	___flmul@grs+3,f
  5562     0645                     u5093:
  5563     0645                     l3819:
  5564     0645  0826               	movf	___flmul@b+1,w
  5565     0646  00F0               	movwf	__Umul8_16@multiplicand
  5566     0647  082B               	movf	___flmul@a+2,w
  5567     0648  160A  118A  22C3  120A  118A  	fcall	__Umul8_16
  5568     064D  0871               	movf	?__Umul8_16+1,w
  5569     064E  1283               	bcf	3,5	;RP0=0, select bank0
  5570     064F  1303               	bcf	3,6	;RP1=0, select bank0
  5571     0650  00BE               	movwf	___flmul@temp+1
  5572     0651  0870               	movf	?__Umul8_16,w
  5573     0652  00BD               	movwf	___flmul@temp
  5574     0653  083D               	movf	___flmul@temp,w
  5575     0654  00AD               	movwf	??___flmul
  5576     0655  083E               	movf	___flmul@temp+1,w
  5577     0656  00AE               	movwf	??___flmul+1
  5578     0657  01AF               	clrf	??___flmul+2
  5579     0658  01B0               	clrf	??___flmul+3
  5580     0659  082D               	movf	??___flmul,w
  5581     065A  07B9               	addwf	___flmul@prod,f
  5582     065B  082E               	movf	??___flmul+1,w
  5583     065C  1103               	clrz
  5584     065D  1803               	skipnc
  5585     065E  3E01               	addlw	1
  5586     065F  1903               	skipnz
  5587     0660  2E62               	goto	u5101
  5588     0661  07BA               	addwf	___flmul@prod+1,f
  5589     0662                     u5101:
  5590     0662  082F               	movf	??___flmul+2,w
  5591     0663  1103               	clrz
  5592     0664  1803               	skipnc
  5593     0665  3E01               	addlw	1
  5594     0666  1903               	skipnz
  5595     0667  2E69               	goto	u5102
  5596     0668  07BB               	addwf	___flmul@prod+2,f
  5597     0669                     u5102:
  5598     0669  0830               	movf	??___flmul+3,w
  5599     066A  1103               	clrz
  5600     066B  1803               	skipnc
  5601     066C  3E01               	addlw	1
  5602     066D  1903               	skipnz
  5603     066E  2E70               	goto	u5103
  5604     066F  07BC               	addwf	___flmul@prod+3,f
  5605     0670                     u5103:
  5606     0670                     l3821:
  5607     0670  0827               	movf	___flmul@b+2,w
  5608     0671  00F0               	movwf	__Umul8_16@multiplicand
  5609     0672  082A               	movf	___flmul@a+1,w
  5610     0673  160A  118A  22C3  120A  118A  	fcall	__Umul8_16
  5611     0678  0871               	movf	?__Umul8_16+1,w
  5612     0679  1283               	bcf	3,5	;RP0=0, select bank0
  5613     067A  1303               	bcf	3,6	;RP1=0, select bank0
  5614     067B  00BE               	movwf	___flmul@temp+1
  5615     067C  0870               	movf	?__Umul8_16,w
  5616     067D  00BD               	movwf	___flmul@temp
  5617     067E                     l3823:
  5618     067E  083D               	movf	___flmul@temp,w
  5619     067F  00AD               	movwf	??___flmul
  5620     0680  083E               	movf	___flmul@temp+1,w
  5621     0681  00AE               	movwf	??___flmul+1
  5622     0682  01AF               	clrf	??___flmul+2
  5623     0683  01B0               	clrf	??___flmul+3
  5624     0684  082D               	movf	??___flmul,w
  5625     0685  07B9               	addwf	___flmul@prod,f
  5626     0686  082E               	movf	??___flmul+1,w
  5627     0687  1103               	clrz
  5628     0688  1803               	skipnc
  5629     0689  3E01               	addlw	1
  5630     068A  1903               	skipnz
  5631     068B  2E8D               	goto	u5111
  5632     068C  07BA               	addwf	___flmul@prod+1,f
  5633     068D                     u5111:
  5634     068D  082F               	movf	??___flmul+2,w
  5635     068E  1103               	clrz
  5636     068F  1803               	skipnc
  5637     0690  3E01               	addlw	1
  5638     0691  1903               	skipnz
  5639     0692  2E94               	goto	u5112
  5640     0693  07BB               	addwf	___flmul@prod+2,f
  5641     0694                     u5112:
  5642     0694  0830               	movf	??___flmul+3,w
  5643     0695  1103               	clrz
  5644     0696  1803               	skipnc
  5645     0697  3E01               	addlw	1
  5646     0698  1903               	skipnz
  5647     0699  2E9B               	goto	u5113
  5648     069A  07BC               	addwf	___flmul@prod+3,f
  5649     069B                     u5113:
  5650     069B  0827               	movf	___flmul@b+2,w
  5651     069C  00F0               	movwf	__Umul8_16@multiplicand
  5652     069D  082B               	movf	___flmul@a+2,w
  5653     069E  160A  118A  22C3  120A  118A  	fcall	__Umul8_16
  5654     06A3  0871               	movf	?__Umul8_16+1,w
  5655     06A4  1283               	bcf	3,5	;RP0=0, select bank0
  5656     06A5  1303               	bcf	3,6	;RP1=0, select bank0
  5657     06A6  00BE               	movwf	___flmul@temp+1
  5658     06A7  0870               	movf	?__Umul8_16,w
  5659     06A8  00BD               	movwf	___flmul@temp
  5660     06A9                     l3825:
  5661     06A9  083D               	movf	___flmul@temp,w
  5662     06AA  00AD               	movwf	??___flmul
  5663     06AB  083E               	movf	___flmul@temp+1,w
  5664     06AC  00AE               	movwf	??___flmul+1
  5665     06AD  01AF               	clrf	??___flmul+2
  5666     06AE  01B0               	clrf	??___flmul+3
  5667     06AF  3008               	movlw	8
  5668     06B0                     u5125:
  5669     06B0  1003               	clrc
  5670     06B1  0DAD               	rlf	??___flmul,f
  5671     06B2  0DAE               	rlf	??___flmul+1,f
  5672     06B3  0DAF               	rlf	??___flmul+2,f
  5673     06B4  0DB0               	rlf	??___flmul+3,f
  5674     06B5                     u5120:
  5675     06B5  3EFF               	addlw	-1
  5676     06B6  1D03               	skipz
  5677     06B7  2EB0               	goto	u5125
  5678     06B8  082D               	movf	??___flmul,w
  5679     06B9  07B9               	addwf	___flmul@prod,f
  5680     06BA  082E               	movf	??___flmul+1,w
  5681     06BB  1103               	clrz
  5682     06BC  1803               	skipnc
  5683     06BD  3E01               	addlw	1
  5684     06BE  1903               	skipnz
  5685     06BF  2EC1               	goto	u5131
  5686     06C0  07BA               	addwf	___flmul@prod+1,f
  5687     06C1                     u5131:
  5688     06C1  082F               	movf	??___flmul+2,w
  5689     06C2  1103               	clrz
  5690     06C3  1803               	skipnc
  5691     06C4  3E01               	addlw	1
  5692     06C5  1903               	skipnz
  5693     06C6  2EC8               	goto	u5132
  5694     06C7  07BB               	addwf	___flmul@prod+2,f
  5695     06C8                     u5132:
  5696     06C8  0830               	movf	??___flmul+3,w
  5697     06C9  1103               	clrz
  5698     06CA  1803               	skipnc
  5699     06CB  3E01               	addlw	1
  5700     06CC  1903               	skipnz
  5701     06CD  2ECF               	goto	u5133
  5702     06CE  07BC               	addwf	___flmul@prod+3,f
  5703     06CF                     u5133:
  5704     06CF                     l3827:
  5705     06CF  0834               	movf	___flmul@grs,w
  5706     06D0  00AD               	movwf	??___flmul
  5707     06D1  0835               	movf	___flmul@grs+1,w
  5708     06D2  00AE               	movwf	??___flmul+1
  5709     06D3  0836               	movf	___flmul@grs+2,w
  5710     06D4  00AF               	movwf	??___flmul+2
  5711     06D5  0837               	movf	___flmul@grs+3,w
  5712     06D6  00B0               	movwf	??___flmul+3
  5713     06D7  3018               	movlw	24
  5714     06D8                     u5145:
  5715     06D8  1003               	clrc
  5716     06D9  0CB0               	rrf	??___flmul+3,f
  5717     06DA  0CAF               	rrf	??___flmul+2,f
  5718     06DB  0CAE               	rrf	??___flmul+1,f
  5719     06DC  0CAD               	rrf	??___flmul,f
  5720     06DD                     u5140:
  5721     06DD  3EFF               	addlw	-1
  5722     06DE  1D03               	skipz
  5723     06DF  2ED8               	goto	u5145
  5724     06E0  082D               	movf	??___flmul,w
  5725     06E1  07B9               	addwf	___flmul@prod,f
  5726     06E2  082E               	movf	??___flmul+1,w
  5727     06E3  1103               	clrz
  5728     06E4  1803               	skipnc
  5729     06E5  3E01               	addlw	1
  5730     06E6  1903               	skipnz
  5731     06E7  2EE9               	goto	u5151
  5732     06E8  07BA               	addwf	___flmul@prod+1,f
  5733     06E9                     u5151:
  5734     06E9  082F               	movf	??___flmul+2,w
  5735     06EA  1103               	clrz
  5736     06EB  1803               	skipnc
  5737     06EC  3E01               	addlw	1
  5738     06ED  1903               	skipnz
  5739     06EE  2EF0               	goto	u5152
  5740     06EF  07BB               	addwf	___flmul@prod+2,f
  5741     06F0                     u5152:
  5742     06F0  0830               	movf	??___flmul+3,w
  5743     06F1  1103               	clrz
  5744     06F2  1803               	skipnc
  5745     06F3  3E01               	addlw	1
  5746     06F4  1903               	skipnz
  5747     06F5  2EF7               	goto	u5153
  5748     06F6  07BC               	addwf	___flmul@prod+3,f
  5749     06F7                     u5153:
  5750     06F7                     l3829:
  5751     06F7  3008               	movlw	8
  5752     06F8  00AD               	movwf	??___flmul
  5753     06F9                     u5165:
  5754     06F9  1003               	clrc
  5755     06FA  0DB4               	rlf	___flmul@grs,f
  5756     06FB  0DB5               	rlf	___flmul@grs+1,f
  5757     06FC  0DB6               	rlf	___flmul@grs+2,f
  5758     06FD  0DB7               	rlf	___flmul@grs+3,f
  5759     06FE  0BAD               	decfsz	??___flmul,f
  5760     06FF  2EF9               	goto	u5165
  5761     0700                     l3831:
  5762     0700  0838               	movf	___flmul@bexp,w
  5763     0701  0733               	addwf	___flmul@aexp,w
  5764     0702  00AD               	movwf	??___flmul
  5765     0703  01AE               	clrf	??___flmul+1
  5766     0704  0DAE               	rlf	??___flmul+1,f
  5767     0705  082D               	movf	??___flmul,w
  5768     0706  3E82               	addlw	130
  5769     0707  00BD               	movwf	___flmul@temp
  5770     0708  082E               	movf	??___flmul+1,w
  5771     0709  1803               	skipnc
  5772     070A  3E01               	addlw	1
  5773     070B  3EFF               	addlw	255
  5774     070C  00BE               	movwf	___flmul@temp+1
  5775     070D  2F2B               	goto	l3843
  5776     070E                     l3833:
  5777     070E  3001               	movlw	1
  5778     070F  00AD               	movwf	??___flmul
  5779     0710                     u5175:
  5780     0710  1003               	clrc
  5781     0711  0DB9               	rlf	___flmul@prod,f
  5782     0712  0DBA               	rlf	___flmul@prod+1,f
  5783     0713  0DBB               	rlf	___flmul@prod+2,f
  5784     0714  0DBC               	rlf	___flmul@prod+3,f
  5785     0715  0BAD               	decfsz	??___flmul,f
  5786     0716  2F10               	goto	u5175
  5787     0717                     l3835:
  5788     0717  1FB7               	btfss	___flmul@grs+3,7
  5789     0718  2F1A               	goto	u5181
  5790     0719  2F1B               	goto	u5180
  5791     071A                     u5181:
  5792     071A  2F1C               	goto	l3839
  5793     071B                     u5180:
  5794     071B                     l3837:
  5795     071B  1439               	bsf	___flmul@prod,0
  5796     071C                     l3839:
  5797     071C  3001               	movlw	1
  5798     071D  00AD               	movwf	??___flmul
  5799     071E                     u5195:
  5800     071E  1003               	clrc
  5801     071F  0DB4               	rlf	___flmul@grs,f
  5802     0720  0DB5               	rlf	___flmul@grs+1,f
  5803     0721  0DB6               	rlf	___flmul@grs+2,f
  5804     0722  0DB7               	rlf	___flmul@grs+3,f
  5805     0723  0BAD               	decfsz	??___flmul,f
  5806     0724  2F1E               	goto	u5195
  5807     0725                     l3841:
  5808     0725  30FF               	movlw	255
  5809     0726  07BD               	addwf	___flmul@temp,f
  5810     0727  1803               	skipnc
  5811     0728  0ABE               	incf	___flmul@temp+1,f
  5812     0729  30FF               	movlw	255
  5813     072A  07BE               	addwf	___flmul@temp+1,f
  5814     072B                     l3843:
  5815     072B  1FBB               	btfss	___flmul@prod+2,7
  5816     072C  2F2E               	goto	u5201
  5817     072D  2F2F               	goto	u5200
  5818     072E                     u5201:
  5819     072E  2F0E               	goto	l3833
  5820     072F                     u5200:
  5821     072F                     l3845:
  5822     072F  01B3               	clrf	___flmul@aexp
  5823     0730                     l3847:
  5824     0730  1FB7               	btfss	___flmul@grs+3,7
  5825     0731  2F33               	goto	u5211
  5826     0732  2F34               	goto	u5210
  5827     0733                     u5211:
  5828     0733  2F50               	goto	l3855
  5829     0734                     u5210:
  5830     0734                     l3849:
  5831     0734  30FF               	movlw	255
  5832     0735  0534               	andwf	___flmul@grs,w
  5833     0736  00AD               	movwf	??___flmul
  5834     0737  30FF               	movlw	255
  5835     0738  0535               	andwf	___flmul@grs+1,w
  5836     0739  00AE               	movwf	??___flmul+1
  5837     073A  30FF               	movlw	255
  5838     073B  0536               	andwf	___flmul@grs+2,w
  5839     073C  00AF               	movwf	??___flmul+2
  5840     073D  307F               	movlw	127
  5841     073E  0537               	andwf	___flmul@grs+3,w
  5842     073F  00B0               	movwf	??___flmul+3
  5843     0740  0830               	movf	??___flmul+3,w
  5844     0741  042F               	iorwf	??___flmul+2,w
  5845     0742  042E               	iorwf	??___flmul+1,w
  5846     0743  042D               	iorwf	??___flmul,w
  5847     0744  1903               	skipnz
  5848     0745  2F47               	goto	u5221
  5849     0746  2F48               	goto	u5220
  5850     0747                     u5221:
  5851     0747  2F4B               	goto	l801
  5852     0748                     u5220:
  5853     0748                     l3851:
  5854     0748  01B3               	clrf	___flmul@aexp
  5855     0749  0AB3               	incf	___flmul@aexp,f
  5856     074A  2F50               	goto	l3855
  5857     074B                     l801:
  5858     074B  1C39               	btfss	___flmul@prod,0
  5859     074C  2F4E               	goto	u5231
  5860     074D  2F4F               	goto	u5230
  5861     074E                     u5231:
  5862     074E  2F50               	goto	l3855
  5863     074F                     u5230:
  5864     074F  2F48               	goto	l3851
  5865     0750                     l3855:
  5866     0750  0833               	movf	___flmul@aexp,w
  5867     0751  1903               	btfsc	3,2
  5868     0752  2F54               	goto	u5241
  5869     0753  2F55               	goto	u5240
  5870     0754                     u5241:
  5871     0754  2F86               	goto	l3865
  5872     0755                     u5240:
  5873     0755                     l3857:
  5874     0755  3001               	movlw	1
  5875     0756  07B9               	addwf	___flmul@prod,f
  5876     0757  3000               	movlw	0
  5877     0758  1803               	skipnc
  5878     0759  3001               	movlw	1
  5879     075A  07BA               	addwf	___flmul@prod+1,f
  5880     075B  3000               	movlw	0
  5881     075C  1803               	skipnc
  5882     075D  3001               	movlw	1
  5883     075E  07BB               	addwf	___flmul@prod+2,f
  5884     075F  3000               	movlw	0
  5885     0760  1803               	skipnc
  5886     0761  3001               	movlw	1
  5887     0762  07BC               	addwf	___flmul@prod+3,f
  5888     0763                     l3859:
  5889     0763  1C3C               	btfss	___flmul@prod+3,0
  5890     0764  2F66               	goto	u5251
  5891     0765  2F67               	goto	u5250
  5892     0766                     u5251:
  5893     0766  2F86               	goto	l3865
  5894     0767                     u5250:
  5895     0767                     l3861:
  5896     0767  0839               	movf	___flmul@prod,w
  5897     0768  00AD               	movwf	??___flmul
  5898     0769  083A               	movf	___flmul@prod+1,w
  5899     076A  00AE               	movwf	??___flmul+1
  5900     076B  083B               	movf	___flmul@prod+2,w
  5901     076C  00AF               	movwf	??___flmul+2
  5902     076D  083C               	movf	___flmul@prod+3,w
  5903     076E  00B0               	movwf	??___flmul+3
  5904     076F  3001               	movlw	1
  5905     0770  00B1               	movwf	??___flmul+4
  5906     0771                     u5265:
  5907     0771  0D30               	rlf	??___flmul+3,w
  5908     0772  0CB0               	rrf	??___flmul+3,f
  5909     0773  0CAF               	rrf	??___flmul+2,f
  5910     0774  0CAE               	rrf	??___flmul+1,f
  5911     0775  0CAD               	rrf	??___flmul,f
  5912     0776                     u5260:
  5913     0776  0BB1               	decfsz	??___flmul+4,f
  5914     0777  2F71               	goto	u5265
  5915     0778  0830               	movf	??___flmul+3,w
  5916     0779  00BC               	movwf	___flmul@prod+3
  5917     077A  082F               	movf	??___flmul+2,w
  5918     077B  00BB               	movwf	___flmul@prod+2
  5919     077C  082E               	movf	??___flmul+1,w
  5920     077D  00BA               	movwf	___flmul@prod+1
  5921     077E  082D               	movf	??___flmul,w
  5922     077F  00B9               	movwf	___flmul@prod
  5923     0780                     l3863:
  5924     0780  3001               	movlw	1
  5925     0781  07BD               	addwf	___flmul@temp,f
  5926     0782  1803               	skipnc
  5927     0783  0ABE               	incf	___flmul@temp+1,f
  5928     0784  3000               	movlw	0
  5929     0785  07BE               	addwf	___flmul@temp+1,f
  5930     0786                     l3865:
  5931     0786  083E               	movf	___flmul@temp+1,w
  5932     0787  3A80               	xorlw	128
  5933     0788  00FF               	movwf	btemp+1
  5934     0789  3080               	movlw	128
  5935     078A  027F               	subwf	btemp+1,w
  5936     078B  1D03               	skipz
  5937     078C  2F8F               	goto	u5275
  5938     078D  30FF               	movlw	255
  5939     078E  023D               	subwf	___flmul@temp,w
  5940     078F                     u5275:
  5941     078F  1C03               	skipc
  5942     0790  2F92               	goto	u5271
  5943     0791  2F93               	goto	u5270
  5944     0792                     u5271:
  5945     0792  2F9E               	goto	l3869
  5946     0793                     u5270:
  5947     0793                     l3867:
  5948     0793  307F               	movlw	127
  5949     0794  1283               	bcf	3,5	;RP0=0, select bank0
  5950     0795  1303               	bcf	3,6	;RP1=0, select bank0
  5951     0796  00BC               	movwf	___flmul@prod+3
  5952     0797  3080               	movlw	128
  5953     0798  00BB               	movwf	___flmul@prod+2
  5954     0799  3000               	movlw	0
  5955     079A  00BA               	movwf	___flmul@prod+1
  5956     079B  3000               	movlw	0
  5957     079C  00B9               	movwf	___flmul@prod
  5958     079D  2FCF               	goto	l3883
  5959     079E                     l3869:
  5960     079E  1283               	bcf	3,5	;RP0=0, select bank0
  5961     079F  1303               	bcf	3,6	;RP1=0, select bank0
  5962     07A0  083E               	movf	___flmul@temp+1,w
  5963     07A1  3A80               	xorlw	128
  5964     07A2  00FF               	movwf	btemp+1
  5965     07A3  3080               	movlw	128
  5966     07A4  027F               	subwf	btemp+1,w
  5967     07A5  1D03               	skipz
  5968     07A6  2FA9               	goto	u5285
  5969     07A7  3001               	movlw	1
  5970     07A8  023D               	subwf	___flmul@temp,w
  5971     07A9                     u5285:
  5972     07A9  1803               	skipnc
  5973     07AA  2FAC               	goto	u5281
  5974     07AB  2FAD               	goto	u5280
  5975     07AC                     u5281:
  5976     07AC  2FB9               	goto	l3875
  5977     07AD                     u5280:
  5978     07AD                     l3871:
  5979     07AD  3000               	movlw	0
  5980     07AE  1283               	bcf	3,5	;RP0=0, select bank0
  5981     07AF  1303               	bcf	3,6	;RP1=0, select bank0
  5982     07B0  00BC               	movwf	___flmul@prod+3
  5983     07B1  3000               	movlw	0
  5984     07B2  00BB               	movwf	___flmul@prod+2
  5985     07B3  3000               	movlw	0
  5986     07B4  00BA               	movwf	___flmul@prod+1
  5987     07B5  3000               	movlw	0
  5988     07B6  00B9               	movwf	___flmul@prod
  5989     07B7                     l3873:
  5990     07B7  01B2               	clrf	___flmul@sign
  5991     07B8  2FCF               	goto	l3883
  5992     07B9                     l3875:
  5993     07B9  1283               	bcf	3,5	;RP0=0, select bank0
  5994     07BA  1303               	bcf	3,6	;RP1=0, select bank0
  5995     07BB  083D               	movf	___flmul@temp,w
  5996     07BC  00B8               	movwf	___flmul@bexp
  5997     07BD  30FF               	movlw	255
  5998     07BE  05B9               	andwf	___flmul@prod,f
  5999     07BF  30FF               	movlw	255
  6000     07C0  05BA               	andwf	___flmul@prod+1,f
  6001     07C1  307F               	movlw	127
  6002     07C2  05BB               	andwf	___flmul@prod+2,f
  6003     07C3  3000               	movlw	0
  6004     07C4  05BC               	andwf	___flmul@prod+3,f
  6005     07C5                     l3877:
  6006     07C5  1C38               	btfss	___flmul@bexp,0
  6007     07C6  2FC8               	goto	u5291
  6008     07C7  2FC9               	goto	u5290
  6009     07C8                     u5291:
  6010     07C8  2FCA               	goto	l3881
  6011     07C9                     u5290:
  6012     07C9                     l3879:
  6013     07C9  17BB               	bsf	___flmul@prod+2,7
  6014     07CA                     l3881:
  6015     07CA  0838               	movf	___flmul@bexp,w
  6016     07CB  00AD               	movwf	??___flmul
  6017     07CC  1003               	clrc
  6018     07CD  0C2D               	rrf	??___flmul,w
  6019     07CE  00BC               	movwf	___flmul@prod+3
  6020     07CF                     l3883:
  6021     07CF  0832               	movf	___flmul@sign,w
  6022     07D0  00FF               	movwf	btemp+1
  6023     07D1  087F               	movf	btemp+1,w
  6024     07D2  04BC               	iorwf	___flmul@prod+3,f
  6025     07D3                     l3885:
  6026     07D3  083C               	movf	___flmul@prod+3,w
  6027     07D4  00A8               	movwf	?___flmul+3
  6028     07D5  083B               	movf	___flmul@prod+2,w
  6029     07D6  00A7               	movwf	?___flmul+2
  6030     07D7  083A               	movf	___flmul@prod+1,w
  6031     07D8  00A6               	movwf	?___flmul+1
  6032     07D9  0839               	movf	___flmul@prod,w
  6033     07DA  00A5               	movwf	?___flmul
  6034     07DB                     l795:
  6035     07DB  0008               	return
  6036     07DC                     __end_of___flmul:
  6037                           
  6038                           	psect	text17
  6039     12C3                     __ptext17:	
  6040 ;; *************** function __Umul8_16 *****************
  6041 ;; Defined at:
  6042 ;;		line 4 in file "C:\Program Files\Microchip\xc8\v2.41\pic\sources\c90\common\Umul8_16.c"
  6043 ;; Parameters:    Size  Location     Type
  6044 ;;  multiplier      1    wreg     unsigned char 
  6045 ;;  multiplicand    1    0[COMMON] unsigned char 
  6046 ;; Auto vars:     Size  Location     Type
  6047 ;;  multiplier      1    8[COMMON] unsigned char 
  6048 ;;  word_mpld       2    6[COMMON] unsigned int 
  6049 ;;  product         2    4[COMMON] unsigned int 
  6050 ;; Return value:  Size  Location     Type
  6051 ;;                  2    0[COMMON] unsigned int 
  6052 ;; Registers used:
  6053 ;;		wreg, status,2, status,0
  6054 ;; Tracked objects:
  6055 ;;		On entry : 0/0
  6056 ;;		On exit  : 0/0
  6057 ;;		Unchanged: 0/0
  6058 ;; Data sizes:     COMMON   BANK0   BANK1   BANK3   BANK2
  6059 ;;      Params:         2       0       0       0       0
  6060 ;;      Locals:         5       0       0       0       0
  6061 ;;      Temps:          2       0       0       0       0
  6062 ;;      Totals:         9       0       0       0       0
  6063 ;;Total ram usage:        9 bytes
  6064 ;; Hardware stack levels used: 1
  6065 ;; This function calls:
  6066 ;;		Nothing
  6067 ;; This function is called by:
  6068 ;;		___flmul
  6069 ;; This function uses a non-reentrant model
  6070 ;;
  6071                           
  6072     12C3                     __Umul8_16:	
  6073                           ;psect for function __Umul8_16
  6074                           
  6075                           
  6076                           ;incstack = 0
  6077                           ; Regs used in __Umul8_16: [wreg+status,2+status,0]
  6078                           ;__Umul8_16@multiplier stored from wreg
  6079     12C3  00F8               	movwf	__Umul8_16@multiplier
  6080     12C4                     l3521:
  6081     12C4  01F4               	clrf	__Umul8_16@product
  6082     12C5  01F5               	clrf	__Umul8_16@product+1
  6083     12C6                     l3523:
  6084     12C6  0870               	movf	__Umul8_16@multiplicand,w
  6085     12C7  00F2               	movwf	??__Umul8_16
  6086     12C8  01F3               	clrf	??__Umul8_16+1
  6087     12C9  0872               	movf	??__Umul8_16,w
  6088     12CA  00F6               	movwf	__Umul8_16@word_mpld
  6089     12CB  0873               	movf	??__Umul8_16+1,w
  6090     12CC  00F7               	movwf	__Umul8_16@word_mpld+1
  6091     12CD                     l3525:
  6092     12CD  1C78               	btfss	__Umul8_16@multiplier,0
  6093     12CE  2AD0               	goto	u4411
  6094     12CF  2AD1               	goto	u4410
  6095     12D0                     u4411:
  6096     12D0  2AD7               	goto	l814
  6097     12D1                     u4410:
  6098     12D1                     l3527:
  6099     12D1  0876               	movf	__Umul8_16@word_mpld,w
  6100     12D2  07F4               	addwf	__Umul8_16@product,f
  6101     12D3  1803               	skipnc
  6102     12D4  0AF5               	incf	__Umul8_16@product+1,f
  6103     12D5  0877               	movf	__Umul8_16@word_mpld+1,w
  6104     12D6  07F5               	addwf	__Umul8_16@product+1,f
  6105     12D7                     l814:
  6106     12D7  3001               	movlw	1
  6107     12D8                     u4425:
  6108     12D8  1003               	clrc
  6109     12D9  0DF6               	rlf	__Umul8_16@word_mpld,f
  6110     12DA  0DF7               	rlf	__Umul8_16@word_mpld+1,f
  6111     12DB  3EFF               	addlw	-1
  6112     12DC  1D03               	skipz
  6113     12DD  2AD8               	goto	u4425
  6114     12DE  1003               	clrc
  6115     12DF  0CF8               	rrf	__Umul8_16@multiplier,f
  6116     12E0                     l3529:
  6117     12E0  0878               	movf	__Umul8_16@multiplier,w
  6118     12E1  1D03               	btfss	3,2
  6119     12E2  2AE4               	goto	u4431
  6120     12E3  2AE5               	goto	u4430
  6121     12E4                     u4431:
  6122     12E4  2ACD               	goto	l3525
  6123     12E5                     u4430:
  6124     12E5                     l3531:
  6125     12E5  0875               	movf	__Umul8_16@product+1,w
  6126     12E6  00F1               	movwf	?__Umul8_16+1
  6127     12E7  0874               	movf	__Umul8_16@product,w
  6128     12E8  00F0               	movwf	?__Umul8_16
  6129     12E9                     l816:
  6130     12E9  0008               	return
  6131     12EA                     __end_of__Umul8_16:
  6132                           
  6133                           	psect	text18
  6134     023F                     __ptext18:	
  6135 ;; *************** function ___fladd *****************
  6136 ;; Defined at:
  6137 ;;		line 10 in file "C:\Program Files\Microchip\xc8\v2.41\pic\sources\c90\common\sprcadd.c"
  6138 ;; Parameters:    Size  Location     Type
  6139 ;;  b               4   57[BANK0 ] unsigned int 
  6140 ;;  a               4   61[BANK0 ] unsigned int 
  6141 ;; Auto vars:     Size  Location     Type
  6142 ;;  grs             1   76[BANK0 ] unsigned char 
  6143 ;;  bexp            1   75[BANK0 ] unsigned char 
  6144 ;;  aexp            1   74[BANK0 ] unsigned char 
  6145 ;;  signs           1   73[BANK0 ] unsigned char 
  6146 ;; Return value:  Size  Location     Type
  6147 ;;                  4   57[BANK0 ] unsigned char 
  6148 ;; Registers used:
  6149 ;;		wreg, status,2, status,0, btemp+1
  6150 ;; Tracked objects:
  6151 ;;		On entry : 0/0
  6152 ;;		On exit  : 0/0
  6153 ;;		Unchanged: 0/0
  6154 ;; Data sizes:     COMMON   BANK0   BANK1   BANK3   BANK2
  6155 ;;      Params:         0       8       0       0       0
  6156 ;;      Locals:         0       4       0       0       0
  6157 ;;      Temps:          0       8       0       0       0
  6158 ;;      Totals:         0      20       0       0       0
  6159 ;;Total ram usage:       20 bytes
  6160 ;; Hardware stack levels used: 1
  6161 ;; This function calls:
  6162 ;;		Nothing
  6163 ;; This function is called by:
  6164 ;;		_convertir_temperature
  6165 ;;		_log
  6166 ;;		_eval_poly
  6167 ;; This function uses a non-reentrant model
  6168 ;;
  6169                           
  6170     023F                     ___fladd:	
  6171                           ;psect for function ___fladd
  6172                           
  6173     023F                     l3547:	
  6174                           ;incstack = 0
  6175                           ; Regs used in ___fladd: [wreg+status,2+status,0+btemp+1]
  6176                           
  6177     023F  1283               	bcf	3,5	;RP0=0, select bank0
  6178     0240  1303               	bcf	3,6	;RP1=0, select bank0
  6179     0241  085C               	movf	___fladd@b+3,w
  6180     0242  3980               	andlw	128
  6181     0243  00E9               	movwf	___fladd@signs
  6182     0244                     l3549:
  6183     0244  085C               	movf	___fladd@b+3,w
  6184     0245  00E1               	movwf	??___fladd
  6185     0246  0761               	addwf	??___fladd,w
  6186     0247  00EB               	movwf	___fladd@bexp
  6187     0248                     l3551:
  6188     0248  1FDB               	btfss	___fladd@b+2,7
  6189     0249  2A4B               	goto	u4471
  6190     024A  2A4C               	goto	u4470
  6191     024B                     u4471:
  6192     024B  2A4D               	goto	l3555
  6193     024C                     u4470:
  6194     024C                     l3553:
  6195     024C  146B               	bsf	___fladd@bexp,0
  6196     024D                     l3555:
  6197     024D  086B               	movf	___fladd@bexp,w
  6198     024E  1903               	btfsc	3,2
  6199     024F  2A51               	goto	u4481
  6200     0250  2A52               	goto	u4480
  6201     0251                     u4481:
  6202     0251  2A62               	goto	l3565
  6203     0252                     u4480:
  6204     0252                     l3557:
  6205     0252  0A6B               	incf	___fladd@bexp,w
  6206     0253  1D03               	btfss	3,2
  6207     0254  2A56               	goto	u4491
  6208     0255  2A57               	goto	u4490
  6209     0256                     u4491:
  6210     0256  2A5F               	goto	l3561
  6211     0257                     u4490:
  6212     0257                     l3559:
  6213     0257  3000               	movlw	0
  6214     0258  00DC               	movwf	___fladd@b+3
  6215     0259  3000               	movlw	0
  6216     025A  00DB               	movwf	___fladd@b+2
  6217     025B  3000               	movlw	0
  6218     025C  00DA               	movwf	___fladd@b+1
  6219     025D  3000               	movlw	0
  6220     025E  00D9               	movwf	___fladd@b
  6221     025F                     l3561:
  6222     025F  17DB               	bsf	___fladd@b+2,7
  6223     0260                     l3563:
  6224     0260  01DC               	clrf	___fladd@b+3
  6225     0261  2A6A               	goto	l3567
  6226     0262                     l3565:
  6227     0262  3000               	movlw	0
  6228     0263  00DC               	movwf	___fladd@b+3
  6229     0264  3000               	movlw	0
  6230     0265  00DB               	movwf	___fladd@b+2
  6231     0266  3000               	movlw	0
  6232     0267  00DA               	movwf	___fladd@b+1
  6233     0268  3000               	movlw	0
  6234     0269  00D9               	movwf	___fladd@b
  6235     026A                     l3567:
  6236     026A  0860               	movf	___fladd@a+3,w
  6237     026B  3980               	andlw	128
  6238     026C  00EA               	movwf	___fladd@aexp
  6239     026D                     l3569:
  6240     026D  086A               	movf	___fladd@aexp,w
  6241     026E  0669               	xorwf	___fladd@signs,w
  6242     026F  1903               	skipnz
  6243     0270  2A72               	goto	u4501
  6244     0271  2A73               	goto	u4500
  6245     0272                     u4501:
  6246     0272  2A74               	goto	l3573
  6247     0273                     u4500:
  6248     0273                     l3571:
  6249     0273  1769               	bsf	___fladd@signs,6
  6250     0274                     l3573:
  6251     0274  0860               	movf	___fladd@a+3,w
  6252     0275  00E1               	movwf	??___fladd
  6253     0276  0761               	addwf	??___fladd,w
  6254     0277  00EA               	movwf	___fladd@aexp
  6255     0278                     l3575:
  6256     0278  1FDF               	btfss	___fladd@a+2,7
  6257     0279  2A7B               	goto	u4511
  6258     027A  2A7C               	goto	u4510
  6259     027B                     u4511:
  6260     027B  2A7D               	goto	l3579
  6261     027C                     u4510:
  6262     027C                     l3577:
  6263     027C  146A               	bsf	___fladd@aexp,0
  6264     027D                     l3579:
  6265     027D  086A               	movf	___fladd@aexp,w
  6266     027E  1903               	btfsc	3,2
  6267     027F  2A81               	goto	u4521
  6268     0280  2A82               	goto	u4520
  6269     0281                     u4521:
  6270     0281  2A92               	goto	l3589
  6271     0282                     u4520:
  6272     0282                     l3581:
  6273     0282  0A6A               	incf	___fladd@aexp,w
  6274     0283  1D03               	btfss	3,2
  6275     0284  2A86               	goto	u4531
  6276     0285  2A87               	goto	u4530
  6277     0286                     u4531:
  6278     0286  2A8F               	goto	l3585
  6279     0287                     u4530:
  6280     0287                     l3583:
  6281     0287  3000               	movlw	0
  6282     0288  00E0               	movwf	___fladd@a+3
  6283     0289  3000               	movlw	0
  6284     028A  00DF               	movwf	___fladd@a+2
  6285     028B  3000               	movlw	0
  6286     028C  00DE               	movwf	___fladd@a+1
  6287     028D  3000               	movlw	0
  6288     028E  00DD               	movwf	___fladd@a
  6289     028F                     l3585:
  6290     028F  17DF               	bsf	___fladd@a+2,7
  6291     0290                     l3587:
  6292     0290  01E0               	clrf	___fladd@a+3
  6293     0291  2A9A               	goto	l699
  6294     0292                     l3589:
  6295     0292  3000               	movlw	0
  6296     0293  00E0               	movwf	___fladd@a+3
  6297     0294  3000               	movlw	0
  6298     0295  00DF               	movwf	___fladd@a+2
  6299     0296  3000               	movlw	0
  6300     0297  00DE               	movwf	___fladd@a+1
  6301     0298  3000               	movlw	0
  6302     0299  00DD               	movwf	___fladd@a
  6303     029A                     l699:
  6304     029A  086B               	movf	___fladd@bexp,w
  6305     029B  026A               	subwf	___fladd@aexp,w
  6306     029C  1803               	skipnc
  6307     029D  2A9F               	goto	u4541
  6308     029E  2AA0               	goto	u4540
  6309     029F                     u4541:
  6310     029F  2AC6               	goto	l3625
  6311     02A0                     u4540:
  6312     02A0                     l3591:
  6313     02A0  1F69               	btfss	___fladd@signs,6
  6314     02A1  2AA3               	goto	u4551
  6315     02A2  2AA4               	goto	u4550
  6316     02A3                     u4551:
  6317     02A3  2AA8               	goto	l3595
  6318     02A4                     u4550:
  6319     02A4                     l3593:
  6320     02A4  3080               	movlw	128
  6321     02A5  00FF               	movwf	btemp+1
  6322     02A6  087F               	movf	btemp+1,w
  6323     02A7  06E9               	xorwf	___fladd@signs,f
  6324     02A8                     l3595:
  6325     02A8  086B               	movf	___fladd@bexp,w
  6326     02A9  00EC               	movwf	___fladd@grs
  6327     02AA                     l3597:
  6328     02AA  086A               	movf	___fladd@aexp,w
  6329     02AB  00EB               	movwf	___fladd@bexp
  6330     02AC                     l3599:
  6331     02AC  086C               	movf	___fladd@grs,w
  6332     02AD  00EA               	movwf	___fladd@aexp
  6333     02AE                     l3601:
  6334     02AE  0859               	movf	___fladd@b,w
  6335     02AF  00EC               	movwf	___fladd@grs
  6336     02B0                     l3603:
  6337     02B0  085D               	movf	___fladd@a,w
  6338     02B1  00D9               	movwf	___fladd@b
  6339     02B2                     l3605:
  6340     02B2  086C               	movf	___fladd@grs,w
  6341     02B3  00DD               	movwf	___fladd@a
  6342     02B4                     l3607:
  6343     02B4  085A               	movf	___fladd@b+1,w
  6344     02B5  00EC               	movwf	___fladd@grs
  6345     02B6                     l3609:
  6346     02B6  085E               	movf	___fladd@a+1,w
  6347     02B7  00DA               	movwf	___fladd@b+1
  6348     02B8                     l3611:
  6349     02B8  086C               	movf	___fladd@grs,w
  6350     02B9  00DE               	movwf	___fladd@a+1
  6351     02BA                     l3613:
  6352     02BA  085B               	movf	___fladd@b+2,w
  6353     02BB  00EC               	movwf	___fladd@grs
  6354     02BC                     l3615:
  6355     02BC  085F               	movf	___fladd@a+2,w
  6356     02BD  00DB               	movwf	___fladd@b+2
  6357     02BE                     l3617:
  6358     02BE  086C               	movf	___fladd@grs,w
  6359     02BF  00DF               	movwf	___fladd@a+2
  6360     02C0                     l3619:
  6361     02C0  085C               	movf	___fladd@b+3,w
  6362     02C1  00EC               	movwf	___fladd@grs
  6363     02C2                     l3621:
  6364     02C2  0860               	movf	___fladd@a+3,w
  6365     02C3  00DC               	movwf	___fladd@b+3
  6366     02C4                     l3623:
  6367     02C4  086C               	movf	___fladd@grs,w
  6368     02C5  00E0               	movwf	___fladd@a+3
  6369     02C6                     l3625:
  6370     02C6  01EC               	clrf	___fladd@grs
  6371     02C7                     l3627:
  6372     02C7  086A               	movf	___fladd@aexp,w
  6373     02C8  00E1               	movwf	??___fladd
  6374     02C9  01E2               	clrf	??___fladd+1
  6375     02CA  0862               	movf	??___fladd+1,w
  6376     02CB  00E4               	movwf	??___fladd+3
  6377     02CC  086B               	movf	___fladd@bexp,w
  6378     02CD  0261               	subwf	??___fladd,w
  6379     02CE  00E3               	movwf	??___fladd+2
  6380     02CF  1C03               	skipc
  6381     02D0  03E4               	decf	??___fladd+3,f
  6382     02D1  0864               	movf	??___fladd+3,w
  6383     02D2  3A80               	xorlw	128
  6384     02D3  00FF               	movwf	btemp+1
  6385     02D4  3080               	movlw	128
  6386     02D5  027F               	subwf	btemp+1,w
  6387     02D6  1D03               	skipz
  6388     02D7  2ADA               	goto	u4565
  6389     02D8  301A               	movlw	26
  6390     02D9  0263               	subwf	??___fladd+2,w
  6391     02DA                     u4565:
  6392     02DA  1C03               	skipc
  6393     02DB  2ADD               	goto	u4561
  6394     02DC  2ADE               	goto	u4560
  6395     02DD                     u4561:
  6396     02DD  2B15               	goto	l3643
  6397     02DE                     u4560:
  6398     02DE                     l3629:
  6399     02DE  1283               	bcf	3,5	;RP0=0, select bank0
  6400     02DF  1303               	bcf	3,6	;RP1=0, select bank0
  6401     02E0  085C               	movf	___fladd@b+3,w
  6402     02E1  045B               	iorwf	___fladd@b+2,w
  6403     02E2  045A               	iorwf	___fladd@b+1,w
  6404     02E3  0459               	iorwf	___fladd@b,w
  6405     02E4  1D03               	skipz
  6406     02E5  2AE7               	goto	u4571
  6407     02E6  2AE9               	goto	u4570
  6408     02E7                     u4571:
  6409     02E7  3001               	movlw	1
  6410     02E8  2AEA               	goto	u4580
  6411     02E9                     u4570:
  6412     02E9  3000               	movlw	0
  6413     02EA                     u4580:
  6414     02EA  00EC               	movwf	___fladd@grs
  6415     02EB  3000               	movlw	0
  6416     02EC  00DC               	movwf	___fladd@b+3
  6417     02ED  3000               	movlw	0
  6418     02EE  00DB               	movwf	___fladd@b+2
  6419     02EF  3000               	movlw	0
  6420     02F0  00DA               	movwf	___fladd@b+1
  6421     02F1  3000               	movlw	0
  6422     02F2  00D9               	movwf	___fladd@b
  6423     02F3  086A               	movf	___fladd@aexp,w
  6424     02F4  00EB               	movwf	___fladd@bexp
  6425     02F5  2B1D               	goto	l703
  6426     02F6                     l705:
  6427     02F6  1C6C               	btfss	___fladd@grs,0
  6428     02F7  2AF9               	goto	u4591
  6429     02F8  2AFA               	goto	u4590
  6430     02F9                     u4591:
  6431     02F9  2B01               	goto	l3633
  6432     02FA                     u4590:
  6433     02FA                     l3631:
  6434     02FA  086C               	movf	___fladd@grs,w
  6435     02FB  00E1               	movwf	??___fladd
  6436     02FC  1003               	clrc
  6437     02FD  0C61               	rrf	??___fladd,w
  6438     02FE  3801               	iorlw	1
  6439     02FF  00EC               	movwf	___fladd@grs
  6440     0300  2B03               	goto	l3635
  6441     0301                     l3633:
  6442     0301  1003               	clrc
  6443     0302  0CEC               	rrf	___fladd@grs,f
  6444     0303                     l3635:
  6445     0303  1C59               	btfss	___fladd@b,0
  6446     0304  2B06               	goto	u4601
  6447     0305  2B07               	goto	u4600
  6448     0306                     u4601:
  6449     0306  2B08               	goto	l3639
  6450     0307                     u4600:
  6451     0307                     l3637:
  6452     0307  17EC               	bsf	___fladd@grs,7
  6453     0308                     l3639:
  6454     0308  3001               	movlw	1
  6455     0309  00E1               	movwf	??___fladd
  6456     030A                     u4615:
  6457     030A  0D5C               	rlf	___fladd@b+3,w
  6458     030B  0CDC               	rrf	___fladd@b+3,f
  6459     030C  0CDB               	rrf	___fladd@b+2,f
  6460     030D  0CDA               	rrf	___fladd@b+1,f
  6461     030E  0CD9               	rrf	___fladd@b,f
  6462     030F  0BE1               	decfsz	??___fladd& (0+127),f
  6463     0310  2B0A               	goto	u4615
  6464     0311                     l3641:
  6465     0311  3001               	movlw	1
  6466     0312  00FF               	movwf	btemp+1
  6467     0313  087F               	movf	btemp+1,w
  6468     0314  07EB               	addwf	___fladd@bexp,f
  6469     0315                     l3643:
  6470     0315  1283               	bcf	3,5	;RP0=0, select bank0
  6471     0316  1303               	bcf	3,6	;RP1=0, select bank0
  6472     0317  086A               	movf	___fladd@aexp,w
  6473     0318  026B               	subwf	___fladd@bexp,w
  6474     0319  1C03               	skipc
  6475     031A  2B1C               	goto	u4621
  6476     031B  2B1D               	goto	u4620
  6477     031C                     u4621:
  6478     031C  2AF6               	goto	l705
  6479     031D                     u4620:
  6480     031D                     l703:
  6481     031D  1B69               	btfsc	___fladd@signs,6
  6482     031E  2B20               	goto	u4631
  6483     031F  2B21               	goto	u4630
  6484     0320                     u4631:
  6485     0320  2B6A               	goto	l3669
  6486     0321                     u4630:
  6487     0321                     l3645:
  6488     0321  086B               	movf	___fladd@bexp,w
  6489     0322  1D03               	btfss	3,2
  6490     0323  2B25               	goto	u4641
  6491     0324  2B26               	goto	u4640
  6492     0325                     u4641:
  6493     0325  2B2F               	goto	l3651
  6494     0326                     u4640:
  6495     0326                     l3647:
  6496     0326  3000               	movlw	0
  6497     0327  00DC               	movwf	?___fladd+3
  6498     0328  3000               	movlw	0
  6499     0329  00DB               	movwf	?___fladd+2
  6500     032A  3000               	movlw	0
  6501     032B  00DA               	movwf	?___fladd+1
  6502     032C  3000               	movlw	0
  6503     032D  00D9               	movwf	?___fladd
  6504     032E  2C96               	goto	l712
  6505     032F                     l3651:
  6506     032F  085D               	movf	___fladd@a,w
  6507     0330  07D9               	addwf	___fladd@b,f
  6508     0331  085E               	movf	___fladd@a+1,w
  6509     0332  1103               	clrz
  6510     0333  1803               	skipnc
  6511     0334  3E01               	addlw	1
  6512     0335  1903               	skipnz
  6513     0336  2B38               	goto	u4651
  6514     0337  07DA               	addwf	___fladd@b+1,f
  6515     0338                     u4651:
  6516     0338  085F               	movf	___fladd@a+2,w
  6517     0339  1103               	clrz
  6518     033A  1803               	skipnc
  6519     033B  3E01               	addlw	1
  6520     033C  1903               	skipnz
  6521     033D  2B3F               	goto	u4652
  6522     033E  07DB               	addwf	___fladd@b+2,f
  6523     033F                     u4652:
  6524     033F  0860               	movf	___fladd@a+3,w
  6525     0340  1103               	clrz
  6526     0341  1803               	skipnc
  6527     0342  3E01               	addlw	1
  6528     0343  1903               	skipnz
  6529     0344  2B46               	goto	u4653
  6530     0345  07DC               	addwf	___fladd@b+3,f
  6531     0346                     u4653:
  6532     0346                     l3653:
  6533     0346  1C5C               	btfss	___fladd@b+3,0
  6534     0347  2B49               	goto	u4661
  6535     0348  2B4A               	goto	u4660
  6536     0349                     u4661:
  6537     0349  2C1E               	goto	l3705
  6538     034A                     u4660:
  6539     034A                     l3655:
  6540     034A  1C6C               	btfss	___fladd@grs,0
  6541     034B  2B4D               	goto	u4671
  6542     034C  2B4E               	goto	u4670
  6543     034D                     u4671:
  6544     034D  2B55               	goto	l3659
  6545     034E                     u4670:
  6546     034E                     l3657:
  6547     034E  086C               	movf	___fladd@grs,w
  6548     034F  00E1               	movwf	??___fladd
  6549     0350  1003               	clrc
  6550     0351  0C61               	rrf	??___fladd,w
  6551     0352  3801               	iorlw	1
  6552     0353  00EC               	movwf	___fladd@grs
  6553     0354  2B57               	goto	l3661
  6554     0355                     l3659:
  6555     0355  1003               	clrc
  6556     0356  0CEC               	rrf	___fladd@grs,f
  6557     0357                     l3661:
  6558     0357  1C59               	btfss	___fladd@b,0
  6559     0358  2B5A               	goto	u4681
  6560     0359  2B5B               	goto	u4680
  6561     035A                     u4681:
  6562     035A  2B5C               	goto	l3665
  6563     035B                     u4680:
  6564     035B                     l3663:
  6565     035B  17EC               	bsf	___fladd@grs,7
  6566     035C                     l3665:
  6567     035C  3001               	movlw	1
  6568     035D  00E1               	movwf	??___fladd
  6569     035E                     u4695:
  6570     035E  0D5C               	rlf	___fladd@b+3,w
  6571     035F  0CDC               	rrf	___fladd@b+3,f
  6572     0360  0CDB               	rrf	___fladd@b+2,f
  6573     0361  0CDA               	rrf	___fladd@b+1,f
  6574     0362  0CD9               	rrf	___fladd@b,f
  6575     0363  0BE1               	decfsz	??___fladd& (0+127),f
  6576     0364  2B5E               	goto	u4695
  6577     0365                     l3667:
  6578     0365  3001               	movlw	1
  6579     0366  00FF               	movwf	btemp+1
  6580     0367  087F               	movf	btemp+1,w
  6581     0368  07EB               	addwf	___fladd@bexp,f
  6582     0369  2C1E               	goto	l3705
  6583     036A                     l3669:
  6584     036A  085C               	movf	___fladd@b+3,w
  6585     036B  3A80               	xorlw	128
  6586     036C  00FF               	movwf	btemp+1
  6587     036D  0860               	movf	___fladd@a+3,w
  6588     036E  3A80               	xorlw	128
  6589     036F  027F               	subwf	btemp+1,w
  6590     0370  1D03               	skipz
  6591     0371  2B7C               	goto	u4703
  6592     0372  085F               	movf	___fladd@a+2,w
  6593     0373  025B               	subwf	___fladd@b+2,w
  6594     0374  1D03               	skipz
  6595     0375  2B7C               	goto	u4703
  6596     0376  085E               	movf	___fladd@a+1,w
  6597     0377  025A               	subwf	___fladd@b+1,w
  6598     0378  1D03               	skipz
  6599     0379  2B7C               	goto	u4703
  6600     037A  085D               	movf	___fladd@a,w
  6601     037B  0259               	subwf	___fladd@b,w
  6602     037C                     u4703:
  6603     037C  1803               	skipnc
  6604     037D  2B7F               	goto	u4701
  6605     037E  2B80               	goto	u4700
  6606     037F                     u4701:
  6607     037F  2BD8               	goto	l3681
  6608     0380                     u4700:
  6609     0380                     l3671:
  6610     0380  30FF               	movlw	255
  6611     0381  00E1               	movwf	??___fladd
  6612     0382  30FF               	movlw	255
  6613     0383  00E2               	movwf	??___fladd+1
  6614     0384  30FF               	movlw	255
  6615     0385  00E3               	movwf	??___fladd+2
  6616     0386  30FF               	movlw	255
  6617     0387  00E4               	movwf	??___fladd+3
  6618     0388  085D               	movf	___fladd@a,w
  6619     0389  00E5               	movwf	??___fladd+4
  6620     038A  085E               	movf	___fladd@a+1,w
  6621     038B  00E6               	movwf	??___fladd+5
  6622     038C  085F               	movf	___fladd@a+2,w
  6623     038D  00E7               	movwf	??___fladd+6
  6624     038E  0860               	movf	___fladd@a+3,w
  6625     038F  00E8               	movwf	??___fladd+7
  6626     0390  0859               	movf	___fladd@b,w
  6627     0391  02E5               	subwf	??___fladd+4,f
  6628     0392  085A               	movf	___fladd@b+1,w
  6629     0393  1C03               	skipc
  6630     0394  0F5A               	incfsz	___fladd@b+1,w
  6631     0395  2B97               	goto	u4711
  6632     0396  2B98               	goto	u4712
  6633     0397                     u4711:
  6634     0397  02E6               	subwf	??___fladd+5,f
  6635     0398                     u4712:
  6636     0398  085B               	movf	___fladd@b+2,w
  6637     0399  1C03               	skipc
  6638     039A  0F5B               	incfsz	___fladd@b+2,w
  6639     039B  2B9D               	goto	u4713
  6640     039C  2B9E               	goto	u4714
  6641     039D                     u4713:
  6642     039D  02E7               	subwf	??___fladd+6,f
  6643     039E                     u4714:
  6644     039E  085C               	movf	___fladd@b+3,w
  6645     039F  1C03               	skipc
  6646     03A0  0F5C               	incfsz	___fladd@b+3,w
  6647     03A1  2BA3               	goto	u4715
  6648     03A2  2BA4               	goto	u4716
  6649     03A3                     u4715:
  6650     03A3  02E8               	subwf	??___fladd+7,f
  6651     03A4                     u4716:
  6652     03A4  0865               	movf	??___fladd+4,w
  6653     03A5  07E1               	addwf	??___fladd,f
  6654     03A6  0866               	movf	??___fladd+5,w
  6655     03A7  1803               	skipnc
  6656     03A8  0F66               	incfsz	??___fladd+5,w
  6657     03A9  2BAB               	goto	u4720
  6658     03AA  2BAC               	goto	u4721
  6659     03AB                     u4720:
  6660     03AB  07E2               	addwf	??___fladd+1,f
  6661     03AC                     u4721:
  6662     03AC  0867               	movf	??___fladd+6,w
  6663     03AD  1803               	skipnc
  6664     03AE  0F67               	incfsz	??___fladd+6,w
  6665     03AF  2BB1               	goto	u4722
  6666     03B0  2BB2               	goto	u4723
  6667     03B1                     u4722:
  6668     03B1  07E3               	addwf	??___fladd+2,f
  6669     03B2                     u4723:
  6670     03B2  0868               	movf	??___fladd+7,w
  6671     03B3  1803               	skipnc
  6672     03B4  0A68               	incf	??___fladd+7,w
  6673     03B5  07E4               	addwf	??___fladd+3,f
  6674     03B6  0864               	movf	??___fladd+3,w
  6675     03B7  00DC               	movwf	___fladd@b+3
  6676     03B8  0863               	movf	??___fladd+2,w
  6677     03B9  00DB               	movwf	___fladd@b+2
  6678     03BA  0862               	movf	??___fladd+1,w
  6679     03BB  00DA               	movwf	___fladd@b+1
  6680     03BC  0861               	movf	??___fladd,w
  6681     03BD  00D9               	movwf	___fladd@b
  6682     03BE                     l3673:
  6683     03BE  3080               	movlw	128
  6684     03BF  00FF               	movwf	btemp+1
  6685     03C0  087F               	movf	btemp+1,w
  6686     03C1  06E9               	xorwf	___fladd@signs,f
  6687     03C2                     l3675:
  6688     03C2  09EC               	comf	___fladd@grs,f
  6689     03C3  0AEC               	incf	___fladd@grs,f
  6690     03C4                     l3677:
  6691     03C4  086C               	movf	___fladd@grs,w
  6692     03C5  1D03               	btfss	3,2
  6693     03C6  2BC8               	goto	u4731
  6694     03C7  2BC9               	goto	u4730
  6695     03C8                     u4731:
  6696     03C8  2BE6               	goto	l720
  6697     03C9                     u4730:
  6698     03C9                     l3679:
  6699     03C9  3001               	movlw	1
  6700     03CA  07D9               	addwf	___fladd@b,f
  6701     03CB  3000               	movlw	0
  6702     03CC  1803               	skipnc
  6703     03CD  3001               	movlw	1
  6704     03CE  07DA               	addwf	___fladd@b+1,f
  6705     03CF  3000               	movlw	0
  6706     03D0  1803               	skipnc
  6707     03D1  3001               	movlw	1
  6708     03D2  07DB               	addwf	___fladd@b+2,f
  6709     03D3  3000               	movlw	0
  6710     03D4  1803               	skipnc
  6711     03D5  3001               	movlw	1
  6712     03D6  07DC               	addwf	___fladd@b+3,f
  6713     03D7  2BE6               	goto	l720
  6714     03D8                     l3681:
  6715     03D8  085D               	movf	___fladd@a,w
  6716     03D9  02D9               	subwf	___fladd@b,f
  6717     03DA  085E               	movf	___fladd@a+1,w
  6718     03DB  1C03               	skipc
  6719     03DC  0F5E               	incfsz	___fladd@a+1,w
  6720     03DD  02DA               	subwf	___fladd@b+1,f
  6721     03DE  085F               	movf	___fladd@a+2,w
  6722     03DF  1C03               	skipc
  6723     03E0  0F5F               	incfsz	___fladd@a+2,w
  6724     03E1  02DB               	subwf	___fladd@b+2,f
  6725     03E2  0860               	movf	___fladd@a+3,w
  6726     03E3  1C03               	skipc
  6727     03E4  0F60               	incfsz	___fladd@a+3,w
  6728     03E5  02DC               	subwf	___fladd@b+3,f
  6729     03E6                     l720:
  6730     03E6  085C               	movf	___fladd@b+3,w
  6731     03E7  045B               	iorwf	___fladd@b+2,w
  6732     03E8  045A               	iorwf	___fladd@b+1,w
  6733     03E9  0459               	iorwf	___fladd@b,w
  6734     03EA  1D03               	skipz
  6735     03EB  2BED               	goto	u4741
  6736     03EC  2BEE               	goto	u4740
  6737     03ED                     u4741:
  6738     03ED  2C1A               	goto	l3703
  6739     03EE                     u4740:
  6740     03EE                     l3683:
  6741     03EE  086C               	movf	___fladd@grs,w
  6742     03EF  1D03               	btfss	3,2
  6743     03F0  2BF2               	goto	u4751
  6744     03F1  2BF3               	goto	u4750
  6745     03F2                     u4751:
  6746     03F2  2C1A               	goto	l3703
  6747     03F3                     u4750:
  6748     03F3                     l3685:
  6749     03F3  3000               	movlw	0
  6750     03F4  00DC               	movwf	?___fladd+3
  6751     03F5  3000               	movlw	0
  6752     03F6  00DB               	movwf	?___fladd+2
  6753     03F7  3000               	movlw	0
  6754     03F8  00DA               	movwf	?___fladd+1
  6755     03F9  3000               	movlw	0
  6756     03FA  00D9               	movwf	?___fladd
  6757     03FB  2C96               	goto	l712
  6758     03FC                     l3689:
  6759     03FC  3001               	movlw	1
  6760     03FD  00E1               	movwf	??___fladd
  6761     03FE                     u4765:
  6762     03FE  1003               	clrc
  6763     03FF  0DD9               	rlf	___fladd@b,f
  6764     0400  0DDA               	rlf	___fladd@b+1,f
  6765     0401  0DDB               	rlf	___fladd@b+2,f
  6766     0402  0DDC               	rlf	___fladd@b+3,f
  6767     0403  0BE1               	decfsz	??___fladd,f
  6768     0404  2BFE               	goto	u4765
  6769     0405                     l3691:
  6770     0405  1FEC               	btfss	___fladd@grs,7
  6771     0406  2C08               	goto	u4771
  6772     0407  2C09               	goto	u4770
  6773     0408                     u4771:
  6774     0408  2C0A               	goto	l724
  6775     0409                     u4770:
  6776     0409                     l3693:
  6777     0409  1459               	bsf	___fladd@b,0
  6778     040A                     l724:
  6779     040A  1C6C               	btfss	___fladd@grs,0
  6780     040B  2C0D               	goto	u4781
  6781     040C  2C0E               	goto	u4780
  6782     040D                     u4781:
  6783     040D  2C11               	goto	l3697
  6784     040E                     u4780:
  6785     040E                     l3695:
  6786     040E  1403               	setc
  6787     040F  0DEC               	rlf	___fladd@grs,f
  6788     0410  2C13               	goto	l3699
  6789     0411                     l3697:
  6790     0411  1003               	clrc
  6791     0412  0DEC               	rlf	___fladd@grs,f
  6792     0413                     l3699:
  6793     0413  086B               	movf	___fladd@bexp,w
  6794     0414  1903               	btfsc	3,2
  6795     0415  2C17               	goto	u4791
  6796     0416  2C18               	goto	u4790
  6797     0417                     u4791:
  6798     0417  2C1A               	goto	l3703
  6799     0418                     u4790:
  6800     0418                     l3701:
  6801     0418  3001               	movlw	1
  6802     0419  02EB               	subwf	___fladd@bexp,f
  6803     041A                     l3703:
  6804     041A  1FDB               	btfss	___fladd@b+2,7
  6805     041B  2C1D               	goto	u4801
  6806     041C  2C1E               	goto	u4800
  6807     041D                     u4801:
  6808     041D  2BFC               	goto	l3689
  6809     041E                     u4800:
  6810     041E                     l3705:
  6811     041E  01EA               	clrf	___fladd@aexp
  6812     041F                     l3707:
  6813     041F  1FEC               	btfss	___fladd@grs,7
  6814     0420  2C22               	goto	u4811
  6815     0421  2C23               	goto	u4810
  6816     0422                     u4811:
  6817     0422  2C31               	goto	l3715
  6818     0423                     u4810:
  6819     0423                     l3709:
  6820     0423  086C               	movf	___fladd@grs,w
  6821     0424  397F               	andlw	127
  6822     0425  1903               	btfsc	3,2
  6823     0426  2C28               	goto	u4821
  6824     0427  2C29               	goto	u4820
  6825     0428                     u4821:
  6826     0428  2C2C               	goto	l730
  6827     0429                     u4820:
  6828     0429                     l3711:
  6829     0429  01EA               	clrf	___fladd@aexp
  6830     042A  0AEA               	incf	___fladd@aexp,f
  6831     042B  2C31               	goto	l3715
  6832     042C                     l730:
  6833     042C  1C59               	btfss	___fladd@b,0
  6834     042D  2C2F               	goto	u4831
  6835     042E  2C30               	goto	u4830
  6836     042F                     u4831:
  6837     042F  2C31               	goto	l3715
  6838     0430                     u4830:
  6839     0430  2C29               	goto	l3711
  6840     0431                     l3715:
  6841     0431  086A               	movf	___fladd@aexp,w
  6842     0432  1903               	btfsc	3,2
  6843     0433  2C35               	goto	u4841
  6844     0434  2C36               	goto	u4840
  6845     0435                     u4841:
  6846     0435  2C6A               	goto	l3725
  6847     0436                     u4840:
  6848     0436                     l3717:
  6849     0436  3001               	movlw	1
  6850     0437  07D9               	addwf	___fladd@b,f
  6851     0438  3000               	movlw	0
  6852     0439  1803               	skipnc
  6853     043A  3001               	movlw	1
  6854     043B  07DA               	addwf	___fladd@b+1,f
  6855     043C  3000               	movlw	0
  6856     043D  1803               	skipnc
  6857     043E  3001               	movlw	1
  6858     043F  07DB               	addwf	___fladd@b+2,f
  6859     0440  3000               	movlw	0
  6860     0441  1803               	skipnc
  6861     0442  3001               	movlw	1
  6862     0443  07DC               	addwf	___fladd@b+3,f
  6863     0444                     l3719:
  6864     0444  1C5C               	btfss	___fladd@b+3,0
  6865     0445  2C47               	goto	u4851
  6866     0446  2C48               	goto	u4850
  6867     0447                     u4851:
  6868     0447  2C6A               	goto	l3725
  6869     0448                     u4850:
  6870     0448                     l3721:
  6871     0448  0859               	movf	___fladd@b,w
  6872     0449  00E1               	movwf	??___fladd
  6873     044A  085A               	movf	___fladd@b+1,w
  6874     044B  00E2               	movwf	??___fladd+1
  6875     044C  085B               	movf	___fladd@b+2,w
  6876     044D  00E3               	movwf	??___fladd+2
  6877     044E  085C               	movf	___fladd@b+3,w
  6878     044F  00E4               	movwf	??___fladd+3
  6879     0450  3001               	movlw	1
  6880     0451  00E5               	movwf	??___fladd+4
  6881     0452                     u4865:
  6882     0452  0D64               	rlf	??___fladd+3,w
  6883     0453  0CE4               	rrf	??___fladd+3,f
  6884     0454  0CE3               	rrf	??___fladd+2,f
  6885     0455  0CE2               	rrf	??___fladd+1,f
  6886     0456  0CE1               	rrf	??___fladd,f
  6887     0457                     u4860:
  6888     0457  0BE5               	decfsz	??___fladd+4,f
  6889     0458  2C52               	goto	u4865
  6890     0459  0864               	movf	??___fladd+3,w
  6891     045A  00DC               	movwf	___fladd@b+3
  6892     045B  0863               	movf	??___fladd+2,w
  6893     045C  00DB               	movwf	___fladd@b+2
  6894     045D  0862               	movf	??___fladd+1,w
  6895     045E  00DA               	movwf	___fladd@b+1
  6896     045F  0861               	movf	??___fladd,w
  6897     0460  00D9               	movwf	___fladd@b
  6898     0461  0A6B               	incf	___fladd@bexp,w
  6899     0462  1903               	btfsc	3,2
  6900     0463  2C65               	goto	u4871
  6901     0464  2C66               	goto	u4870
  6902     0465                     u4871:
  6903     0465  2C6A               	goto	l3725
  6904     0466                     u4870:
  6905     0466                     l3723:
  6906     0466  3001               	movlw	1
  6907     0467  00FF               	movwf	btemp+1
  6908     0468  087F               	movf	btemp+1,w
  6909     0469  07EB               	addwf	___fladd@bexp,f
  6910     046A                     l3725:
  6911     046A  0A6B               	incf	___fladd@bexp,w
  6912     046B  1903               	btfsc	3,2
  6913     046C  2C6E               	goto	u4881
  6914     046D  2C6F               	goto	u4880
  6915     046E                     u4881:
  6916     046E  2C74               	goto	l3729
  6917     046F                     u4880:
  6918     046F                     l3727:
  6919     046F  086B               	movf	___fladd@bexp,w
  6920     0470  1D03               	btfss	3,2
  6921     0471  2C73               	goto	u4891
  6922     0472  2C74               	goto	u4890
  6923     0473                     u4891:
  6924     0473  2C82               	goto	l3735
  6925     0474                     u4890:
  6926     0474                     l3729:
  6927     0474  3000               	movlw	0
  6928     0475  00DC               	movwf	___fladd@b+3
  6929     0476  3000               	movlw	0
  6930     0477  00DB               	movwf	___fladd@b+2
  6931     0478  3000               	movlw	0
  6932     0479  00DA               	movwf	___fladd@b+1
  6933     047A  3000               	movlw	0
  6934     047B  00D9               	movwf	___fladd@b
  6935     047C                     l3731:
  6936     047C  086B               	movf	___fladd@bexp,w
  6937     047D  1D03               	btfss	3,2
  6938     047E  2C80               	goto	u4901
  6939     047F  2C81               	goto	u4900
  6940     0480                     u4901:
  6941     0480  2C82               	goto	l3735
  6942     0481                     u4900:
  6943     0481                     l3733:
  6944     0481  01E9               	clrf	___fladd@signs
  6945     0482                     l3735:
  6946     0482  1C6B               	btfss	___fladd@bexp,0
  6947     0483  2C85               	goto	u4911
  6948     0484  2C86               	goto	u4910
  6949     0485                     u4911:
  6950     0485  2C88               	goto	l3739
  6951     0486                     u4910:
  6952     0486                     l3737:
  6953     0486  17DB               	bsf	___fladd@b+2,7
  6954     0487  2C8C               	goto	l3741
  6955     0488                     l3739:
  6956     0488  307F               	movlw	127
  6957     0489  00FF               	movwf	btemp+1
  6958     048A  087F               	movf	btemp+1,w
  6959     048B  05DB               	andwf	___fladd@b+2,f
  6960     048C                     l3741:
  6961     048C  086B               	movf	___fladd@bexp,w
  6962     048D  00E1               	movwf	??___fladd
  6963     048E  1003               	clrc
  6964     048F  0C61               	rrf	??___fladd,w
  6965     0490  00DC               	movwf	___fladd@b+3
  6966     0491                     l3743:
  6967     0491  1FE9               	btfss	___fladd@signs,7
  6968     0492  2C94               	goto	u4921
  6969     0493  2C95               	goto	u4920
  6970     0494                     u4921:
  6971     0494  2C96               	goto	l742
  6972     0495                     u4920:
  6973     0495                     l3745:
  6974     0495  17DC               	bsf	___fladd@b+3,7
  6975     0496                     l742:
  6976     0496                     l712:
  6977     0496  0008               	return
  6978     0497                     __end_of___fladd:
  6979                           
  6980                           	psect	text19
  6981     1748                     __ptext19:	
  6982 ;; *************** function ___xxtofl *****************
  6983 ;; Defined at:
  6984 ;;		line 10 in file "C:\Program Files\Microchip\xc8\v2.41\pic\sources\c90\common\xxtofl.c"
  6985 ;; Parameters:    Size  Location     Type
  6986 ;;  sign            1    wreg     unsigned char 
  6987 ;;  val             4    0[COMMON] long 
  6988 ;; Auto vars:     Size  Location     Type
  6989 ;;  sign            1    8[COMMON] unsigned char 
  6990 ;;  arg             4   10[COMMON] unsigned long 
  6991 ;;  exp             1    9[COMMON] unsigned char 
  6992 ;; Return value:  Size  Location     Type
  6993 ;;                  4    0[COMMON] unsigned char 
  6994 ;; Registers used:
  6995 ;;		wreg, status,2, status,0, btemp+1
  6996 ;; Tracked objects:
  6997 ;;		On entry : 0/0
  6998 ;;		On exit  : 0/0
  6999 ;;		Unchanged: 0/0
  7000 ;; Data sizes:     COMMON   BANK0   BANK1   BANK3   BANK2
  7001 ;;      Params:         4       0       0       0       0
  7002 ;;      Locals:         6       0       0       0       0
  7003 ;;      Temps:          4       0       0       0       0
  7004 ;;      Totals:        14       0       0       0       0
  7005 ;;Total ram usage:       14 bytes
  7006 ;; Hardware stack levels used: 1
  7007 ;; This function calls:
  7008 ;;		Nothing
  7009 ;; This function is called by:
  7010 ;;		_convertir_temperature
  7011 ;;		_log
  7012 ;; This function uses a non-reentrant model
  7013 ;;
  7014                           
  7015     1748                     ___xxtofl:	
  7016                           ;psect for function ___xxtofl
  7017                           
  7018                           
  7019                           ;incstack = 0
  7020                           ; Regs used in ___xxtofl: [wreg+status,2+status,0+btemp+1]
  7021                           ;___xxtofl@sign stored from wreg
  7022     1748  00F8               	movwf	___xxtofl@sign
  7023     1749                     l3909:
  7024     1749  0878               	movf	___xxtofl@sign,w
  7025     174A  1903               	btfsc	3,2
  7026     174B  2F4D               	goto	u5371
  7027     174C  2F4E               	goto	u5370
  7028     174D                     u5371:
  7029     174D  2F62               	goto	l3915
  7030     174E                     u5370:
  7031     174E                     l3911:
  7032     174E  1FF3               	btfss	___xxtofl@val+3,7
  7033     174F  2F51               	goto	u5381
  7034     1750  2F52               	goto	u5380
  7035     1751                     u5381:
  7036     1751  2F62               	goto	l3915
  7037     1752                     u5380:
  7038     1752                     l3913:
  7039     1752  0970               	comf	___xxtofl@val,w
  7040     1753  00FA               	movwf	___xxtofl@arg
  7041     1754  0971               	comf	___xxtofl@val+1,w
  7042     1755  00FB               	movwf	___xxtofl@arg+1
  7043     1756  0972               	comf	___xxtofl@val+2,w
  7044     1757  00FC               	movwf	___xxtofl@arg+2
  7045     1758  0973               	comf	___xxtofl@val+3,w
  7046     1759  00FD               	movwf	___xxtofl@arg+3
  7047     175A  0AFA               	incf	___xxtofl@arg,f
  7048     175B  1903               	skipnz
  7049     175C  0AFB               	incf	___xxtofl@arg+1,f
  7050     175D  1903               	skipnz
  7051     175E  0AFC               	incf	___xxtofl@arg+2,f
  7052     175F  1903               	skipnz
  7053     1760  0AFD               	incf	___xxtofl@arg+3,f
  7054     1761  2F6A               	goto	l839
  7055     1762                     l3915:
  7056     1762  0873               	movf	___xxtofl@val+3,w
  7057     1763  00FD               	movwf	___xxtofl@arg+3
  7058     1764  0872               	movf	___xxtofl@val+2,w
  7059     1765  00FC               	movwf	___xxtofl@arg+2
  7060     1766  0871               	movf	___xxtofl@val+1,w
  7061     1767  00FB               	movwf	___xxtofl@arg+1
  7062     1768  0870               	movf	___xxtofl@val,w
  7063     1769  00FA               	movwf	___xxtofl@arg
  7064     176A                     l839:
  7065     176A  0873               	movf	___xxtofl@val+3,w
  7066     176B  0472               	iorwf	___xxtofl@val+2,w
  7067     176C  0471               	iorwf	___xxtofl@val+1,w
  7068     176D  0470               	iorwf	___xxtofl@val,w
  7069     176E  1D03               	skipz
  7070     176F  2F71               	goto	u5391
  7071     1770  2F72               	goto	u5390
  7072     1771                     u5391:
  7073     1771  2F7B               	goto	l3921
  7074     1772                     u5390:
  7075     1772                     l3917:
  7076     1772  3000               	movlw	0
  7077     1773  00F3               	movwf	?___xxtofl+3
  7078     1774  3000               	movlw	0
  7079     1775  00F2               	movwf	?___xxtofl+2
  7080     1776  3000               	movlw	0
  7081     1777  00F1               	movwf	?___xxtofl+1
  7082     1778  3000               	movlw	0
  7083     1779  00F0               	movwf	?___xxtofl
  7084     177A  2FFF               	goto	l841
  7085     177B                     l3921:
  7086     177B  3096               	movlw	150
  7087     177C  00F9               	movwf	___xxtofl@exp
  7088     177D  2F8B               	goto	l3927
  7089     177E                     l3923:
  7090     177E  3001               	movlw	1
  7091     177F  00FF               	movwf	btemp+1
  7092     1780  087F               	movf	btemp+1,w
  7093     1781  07F9               	addwf	___xxtofl@exp,f
  7094     1782                     l3925:
  7095     1782  3001               	movlw	1
  7096     1783                     u5405:
  7097     1783  1003               	clrc
  7098     1784  0CFD               	rrf	___xxtofl@arg+3,f
  7099     1785  0CFC               	rrf	___xxtofl@arg+2,f
  7100     1786  0CFB               	rrf	___xxtofl@arg+1,f
  7101     1787  0CFA               	rrf	___xxtofl@arg,f
  7102     1788  3EFF               	addlw	-1
  7103     1789  1D03               	skipz
  7104     178A  2F83               	goto	u5405
  7105     178B                     l3927:
  7106     178B  30FE               	movlw	254
  7107     178C  057D               	andwf	___xxtofl@arg+3,w
  7108     178D  1D03               	btfss	3,2
  7109     178E  2F90               	goto	u5411
  7110     178F  2F91               	goto	u5410
  7111     1790                     u5411:
  7112     1790  2F7E               	goto	l3923
  7113     1791                     u5410:
  7114     1791  2FAD               	goto	l3935
  7115     1792                     l3929:
  7116     1792  3001               	movlw	1
  7117     1793  00FF               	movwf	btemp+1
  7118     1794  087F               	movf	btemp+1,w
  7119     1795  07F9               	addwf	___xxtofl@exp,f
  7120     1796                     l3931:
  7121     1796  3001               	movlw	1
  7122     1797  07FA               	addwf	___xxtofl@arg,f
  7123     1798  3000               	movlw	0
  7124     1799  1803               	skipnc
  7125     179A  3001               	movlw	1
  7126     179B  07FB               	addwf	___xxtofl@arg+1,f
  7127     179C  3000               	movlw	0
  7128     179D  1803               	skipnc
  7129     179E  3001               	movlw	1
  7130     179F  07FC               	addwf	___xxtofl@arg+2,f
  7131     17A0  3000               	movlw	0
  7132     17A1  1803               	skipnc
  7133     17A2  3001               	movlw	1
  7134     17A3  07FD               	addwf	___xxtofl@arg+3,f
  7135     17A4                     l3933:
  7136     17A4  3001               	movlw	1
  7137     17A5                     u5425:
  7138     17A5  1003               	clrc
  7139     17A6  0CFD               	rrf	___xxtofl@arg+3,f
  7140     17A7  0CFC               	rrf	___xxtofl@arg+2,f
  7141     17A8  0CFB               	rrf	___xxtofl@arg+1,f
  7142     17A9  0CFA               	rrf	___xxtofl@arg,f
  7143     17AA  3EFF               	addlw	-1
  7144     17AB  1D03               	skipz
  7145     17AC  2FA5               	goto	u5425
  7146     17AD                     l3935:
  7147     17AD  30FF               	movlw	255
  7148     17AE  057D               	andwf	___xxtofl@arg+3,w
  7149     17AF  1D03               	btfss	3,2
  7150     17B0  2FB2               	goto	u5431
  7151     17B1  2FB3               	goto	u5430
  7152     17B2                     u5431:
  7153     17B2  2F92               	goto	l3929
  7154     17B3                     u5430:
  7155     17B3  2FBF               	goto	l3939
  7156     17B4                     l3937:
  7157     17B4  3001               	movlw	1
  7158     17B5  02F9               	subwf	___xxtofl@exp,f
  7159     17B6  3001               	movlw	1
  7160     17B7  00F4               	movwf	??___xxtofl
  7161     17B8                     u5445:
  7162     17B8  1003               	clrc
  7163     17B9  0DFA               	rlf	___xxtofl@arg,f
  7164     17BA  0DFB               	rlf	___xxtofl@arg+1,f
  7165     17BB  0DFC               	rlf	___xxtofl@arg+2,f
  7166     17BC  0DFD               	rlf	___xxtofl@arg+3,f
  7167     17BD  0BF4               	decfsz	??___xxtofl,f
  7168     17BE  2FB8               	goto	u5445
  7169     17BF                     l3939:
  7170     17BF  1BFC               	btfsc	___xxtofl@arg+2,7
  7171     17C0  2FC2               	goto	u5451
  7172     17C1  2FC3               	goto	u5450
  7173     17C2                     u5451:
  7174     17C2  2FC9               	goto	l852
  7175     17C3                     u5450:
  7176     17C3                     l3941:
  7177     17C3  3002               	movlw	2
  7178     17C4  0279               	subwf	___xxtofl@exp,w
  7179     17C5  1803               	skipnc
  7180     17C6  2FC8               	goto	u5461
  7181     17C7  2FC9               	goto	u5460
  7182     17C8                     u5461:
  7183     17C8  2FB4               	goto	l3937
  7184     17C9                     u5460:
  7185     17C9                     l852:
  7186     17C9  1879               	btfsc	___xxtofl@exp,0
  7187     17CA  2FCC               	goto	u5471
  7188     17CB  2FCD               	goto	u5470
  7189     17CC                     u5471:
  7190     17CC  2FD5               	goto	l853
  7191     17CD                     u5470:
  7192     17CD                     l3943:
  7193     17CD  30FF               	movlw	255
  7194     17CE  05FA               	andwf	___xxtofl@arg,f
  7195     17CF  30FF               	movlw	255
  7196     17D0  05FB               	andwf	___xxtofl@arg+1,f
  7197     17D1  307F               	movlw	127
  7198     17D2  05FC               	andwf	___xxtofl@arg+2,f
  7199     17D3  30FF               	movlw	255
  7200     17D4  05FD               	andwf	___xxtofl@arg+3,f
  7201     17D5                     l853:
  7202     17D5  1003               	clrc
  7203     17D6  0CF9               	rrf	___xxtofl@exp,f
  7204     17D7                     l3945:
  7205     17D7  0879               	movf	___xxtofl@exp,w
  7206     17D8  00F4               	movwf	??___xxtofl
  7207     17D9  01F5               	clrf	??___xxtofl+1
  7208     17DA  01F6               	clrf	??___xxtofl+2
  7209     17DB  01F7               	clrf	??___xxtofl+3
  7210     17DC  3018               	movlw	24
  7211     17DD                     u5485:
  7212     17DD  1003               	clrc
  7213     17DE  0DF4               	rlf	??___xxtofl,f
  7214     17DF  0DF5               	rlf	??___xxtofl+1,f
  7215     17E0  0DF6               	rlf	??___xxtofl+2,f
  7216     17E1  0DF7               	rlf	??___xxtofl+3,f
  7217     17E2                     u5480:
  7218     17E2  3EFF               	addlw	-1
  7219     17E3  1D03               	skipz
  7220     17E4  2FDD               	goto	u5485
  7221     17E5  0874               	movf	??___xxtofl,w
  7222     17E6  04FA               	iorwf	___xxtofl@arg,f
  7223     17E7  0875               	movf	??___xxtofl+1,w
  7224     17E8  04FB               	iorwf	___xxtofl@arg+1,f
  7225     17E9  0876               	movf	??___xxtofl+2,w
  7226     17EA  04FC               	iorwf	___xxtofl@arg+2,f
  7227     17EB  0877               	movf	??___xxtofl+3,w
  7228     17EC  04FD               	iorwf	___xxtofl@arg+3,f
  7229     17ED                     l3947:
  7230     17ED  0878               	movf	___xxtofl@sign,w
  7231     17EE  1903               	btfsc	3,2
  7232     17EF  2FF1               	goto	u5491
  7233     17F0  2FF2               	goto	u5490
  7234     17F1                     u5491:
  7235     17F1  2FF7               	goto	l3953
  7236     17F2                     u5490:
  7237     17F2                     l3949:
  7238     17F2  1FF3               	btfss	___xxtofl@val+3,7
  7239     17F3  2FF5               	goto	u5501
  7240     17F4  2FF6               	goto	u5500
  7241     17F5                     u5501:
  7242     17F5  2FF7               	goto	l3953
  7243     17F6                     u5500:
  7244     17F6                     l3951:
  7245     17F6  17FD               	bsf	___xxtofl@arg+3,7
  7246     17F7                     l3953:
  7247     17F7  087D               	movf	___xxtofl@arg+3,w
  7248     17F8  00F3               	movwf	?___xxtofl+3
  7249     17F9  087C               	movf	___xxtofl@arg+2,w
  7250     17FA  00F2               	movwf	?___xxtofl+2
  7251     17FB  087B               	movf	___xxtofl@arg+1,w
  7252     17FC  00F1               	movwf	?___xxtofl+1
  7253     17FD  087A               	movf	___xxtofl@arg,w
  7254     17FE  00F0               	movwf	?___xxtofl
  7255     17FF                     l841:
  7256     17FF  0008               	return
  7257     1800                     __end_of___xxtofl:
  7258                           
  7259                           	psect	text20
  7260     15FB                     __ptext20:	
  7261 ;; *************** function ___flge *****************
  7262 ;; Defined at:
  7263 ;;		line 4 in file "C:\Program Files\Microchip\xc8\v2.41\pic\sources\c90\common\flge.c"
  7264 ;; Parameters:    Size  Location     Type
  7265 ;;  ff1             4    0[COMMON] unsigned char 
  7266 ;;  ff2             4    4[COMMON] unsigned char 
  7267 ;; Auto vars:     Size  Location     Type
  7268 ;;		None
  7269 ;; Return value:  Size  Location     Type
  7270 ;;		None               void
  7271 ;; Registers used:
  7272 ;;		wreg, status,2, status,0
  7273 ;; Tracked objects:
  7274 ;;		On entry : 0/0
  7275 ;;		On exit  : 0/0
  7276 ;;		Unchanged: 0/0
  7277 ;; Data sizes:     COMMON   BANK0   BANK1   BANK3   BANK2
  7278 ;;      Params:         8       0       0       0       0
  7279 ;;      Locals:         0       0       0       0       0
  7280 ;;      Temps:          4       0       0       0       0
  7281 ;;      Totals:        12       0       0       0       0
  7282 ;;Total ram usage:       12 bytes
  7283 ;; Hardware stack levels used: 1
  7284 ;; This function calls:
  7285 ;;		Nothing
  7286 ;; This function is called by:
  7287 ;;		_log
  7288 ;; This function uses a non-reentrant model
  7289 ;;
  7290                           
  7291     15FB                     ___flge:	
  7292                           ;psect for function ___flge
  7293                           
  7294     15FB                     l3889:	
  7295                           ;incstack = 0
  7296                           ; Regs used in ___flge: [wreg+status,2+status,0]
  7297                           
  7298     15FB  3000               	movlw	0
  7299     15FC  0570               	andwf	___flge@ff1,w
  7300     15FD  00F8               	movwf	??___flge
  7301     15FE  3000               	movlw	0
  7302     15FF  0571               	andwf	___flge@ff1+1,w
  7303     1600  00F9               	movwf	??___flge+1
  7304     1601  3080               	movlw	128
  7305     1602  0572               	andwf	___flge@ff1+2,w
  7306     1603  00FA               	movwf	??___flge+2
  7307     1604  307F               	movlw	127
  7308     1605  0573               	andwf	___flge@ff1+3,w
  7309     1606  00FB               	movwf	??___flge+3
  7310     1607  087B               	movf	??___flge+3,w
  7311     1608  047A               	iorwf	??___flge+2,w
  7312     1609  0479               	iorwf	??___flge+1,w
  7313     160A  0478               	iorwf	??___flge,w
  7314     160B  1D03               	skipz
  7315     160C  2E0E               	goto	u5301
  7316     160D  2E0F               	goto	u5300
  7317     160E                     u5301:
  7318     160E  2E17               	goto	l580
  7319     160F                     u5300:
  7320     160F                     l3891:
  7321     160F  3000               	movlw	0
  7322     1610  00F3               	movwf	___flge@ff1+3
  7323     1611  3000               	movlw	0
  7324     1612  00F2               	movwf	___flge@ff1+2
  7325     1613  3000               	movlw	0
  7326     1614  00F1               	movwf	___flge@ff1+1
  7327     1615  3000               	movlw	0
  7328     1616  00F0               	movwf	___flge@ff1
  7329     1617                     l580:
  7330     1617  3000               	movlw	0
  7331     1618  0574               	andwf	___flge@ff2,w
  7332     1619  00F8               	movwf	??___flge
  7333     161A  3000               	movlw	0
  7334     161B  0575               	andwf	___flge@ff2+1,w
  7335     161C  00F9               	movwf	??___flge+1
  7336     161D  3080               	movlw	128
  7337     161E  0576               	andwf	___flge@ff2+2,w
  7338     161F  00FA               	movwf	??___flge+2
  7339     1620  307F               	movlw	127
  7340     1621  0577               	andwf	___flge@ff2+3,w
  7341     1622  00FB               	movwf	??___flge+3
  7342     1623  087B               	movf	??___flge+3,w
  7343     1624  047A               	iorwf	??___flge+2,w
  7344     1625  0479               	iorwf	??___flge+1,w
  7345     1626  0478               	iorwf	??___flge,w
  7346     1627  1D03               	skipz
  7347     1628  2E2A               	goto	u5311
  7348     1629  2E2B               	goto	u5310
  7349     162A                     u5311:
  7350     162A  2E33               	goto	l3895
  7351     162B                     u5310:
  7352     162B                     l3893:
  7353     162B  3000               	movlw	0
  7354     162C  00F7               	movwf	___flge@ff2+3
  7355     162D  3000               	movlw	0
  7356     162E  00F6               	movwf	___flge@ff2+2
  7357     162F  3000               	movlw	0
  7358     1630  00F5               	movwf	___flge@ff2+1
  7359     1631  3000               	movlw	0
  7360     1632  00F4               	movwf	___flge@ff2
  7361     1633                     l3895:
  7362     1633  1FF3               	btfss	___flge@ff1+3,7
  7363     1634  2E36               	goto	u5321
  7364     1635  2E37               	goto	u5320
  7365     1636                     u5321:
  7366     1636  2E5B               	goto	l3899
  7367     1637                     u5320:
  7368     1637                     l3897:
  7369     1637  3000               	movlw	0
  7370     1638  00F8               	movwf	??___flge
  7371     1639  3000               	movlw	0
  7372     163A  00F9               	movwf	??___flge+1
  7373     163B  3000               	movlw	0
  7374     163C  00FA               	movwf	??___flge+2
  7375     163D  3080               	movlw	128
  7376     163E  00FB               	movwf	??___flge+3
  7377     163F  0870               	movf	___flge@ff1,w
  7378     1640  02F8               	subwf	??___flge,f
  7379     1641  0871               	movf	___flge@ff1+1,w
  7380     1642  1C03               	skipc
  7381     1643  0F71               	incfsz	___flge@ff1+1,w
  7382     1644  2E46               	goto	u5331
  7383     1645  2E47               	goto	u5332
  7384     1646                     u5331:
  7385     1646  02F9               	subwf	??___flge+1,f
  7386     1647                     u5332:
  7387     1647  0872               	movf	___flge@ff1+2,w
  7388     1648  1C03               	skipc
  7389     1649  0F72               	incfsz	___flge@ff1+2,w
  7390     164A  2E4C               	goto	u5333
  7391     164B  2E4D               	goto	u5334
  7392     164C                     u5333:
  7393     164C  02FA               	subwf	??___flge+2,f
  7394     164D                     u5334:
  7395     164D  0873               	movf	___flge@ff1+3,w
  7396     164E  1C03               	skipc
  7397     164F  0F73               	incfsz	___flge@ff1+3,w
  7398     1650  2E52               	goto	u5335
  7399     1651  2E53               	goto	u5336
  7400     1652                     u5335:
  7401     1652  02FB               	subwf	??___flge+3,f
  7402     1653                     u5336:
  7403     1653  087B               	movf	??___flge+3,w
  7404     1654  00F3               	movwf	___flge@ff1+3
  7405     1655  087A               	movf	??___flge+2,w
  7406     1656  00F2               	movwf	___flge@ff1+2
  7407     1657  0879               	movf	??___flge+1,w
  7408     1658  00F1               	movwf	___flge@ff1+1
  7409     1659  0878               	movf	??___flge,w
  7410     165A  00F0               	movwf	___flge@ff1
  7411     165B                     l3899:
  7412     165B  1FF7               	btfss	___flge@ff2+3,7
  7413     165C  2E5E               	goto	u5341
  7414     165D  2E5F               	goto	u5340
  7415     165E                     u5341:
  7416     165E  2E83               	goto	l583
  7417     165F                     u5340:
  7418     165F                     l3901:
  7419     165F  3000               	movlw	0
  7420     1660  00F8               	movwf	??___flge
  7421     1661  3000               	movlw	0
  7422     1662  00F9               	movwf	??___flge+1
  7423     1663  3000               	movlw	0
  7424     1664  00FA               	movwf	??___flge+2
  7425     1665  3080               	movlw	128
  7426     1666  00FB               	movwf	??___flge+3
  7427     1667  0874               	movf	___flge@ff2,w
  7428     1668  02F8               	subwf	??___flge,f
  7429     1669  0875               	movf	___flge@ff2+1,w
  7430     166A  1C03               	skipc
  7431     166B  0F75               	incfsz	___flge@ff2+1,w
  7432     166C  2E6E               	goto	u5351
  7433     166D  2E6F               	goto	u5352
  7434     166E                     u5351:
  7435     166E  02F9               	subwf	??___flge+1,f
  7436     166F                     u5352:
  7437     166F  0876               	movf	___flge@ff2+2,w
  7438     1670  1C03               	skipc
  7439     1671  0F76               	incfsz	___flge@ff2+2,w
  7440     1672  2E74               	goto	u5353
  7441     1673  2E75               	goto	u5354
  7442     1674                     u5353:
  7443     1674  02FA               	subwf	??___flge+2,f
  7444     1675                     u5354:
  7445     1675  0877               	movf	___flge@ff2+3,w
  7446     1676  1C03               	skipc
  7447     1677  0F77               	incfsz	___flge@ff2+3,w
  7448     1678  2E7A               	goto	u5355
  7449     1679  2E7B               	goto	u5356
  7450     167A                     u5355:
  7451     167A  02FB               	subwf	??___flge+3,f
  7452     167B                     u5356:
  7453     167B  087B               	movf	??___flge+3,w
  7454     167C  00F7               	movwf	___flge@ff2+3
  7455     167D  087A               	movf	??___flge+2,w
  7456     167E  00F6               	movwf	___flge@ff2+2
  7457     167F  0879               	movf	??___flge+1,w
  7458     1680  00F5               	movwf	___flge@ff2+1
  7459     1681  0878               	movf	??___flge,w
  7460     1682  00F4               	movwf	___flge@ff2
  7461     1683                     l583:
  7462     1683  3080               	movlw	128
  7463     1684  06F3               	xorwf	___flge@ff1+3,f
  7464     1685  3080               	movlw	128
  7465     1686  06F7               	xorwf	___flge@ff2+3,f
  7466     1687  0877               	movf	___flge@ff2+3,w
  7467     1688  0273               	subwf	___flge@ff1+3,w
  7468     1689  1D03               	skipz
  7469     168A  2E95               	goto	u5365
  7470     168B  0876               	movf	___flge@ff2+2,w
  7471     168C  0272               	subwf	___flge@ff1+2,w
  7472     168D  1D03               	skipz
  7473     168E  2E95               	goto	u5365
  7474     168F  0875               	movf	___flge@ff2+1,w
  7475     1690  0271               	subwf	___flge@ff1+1,w
  7476     1691  1D03               	skipz
  7477     1692  2E95               	goto	u5365
  7478     1693  0874               	movf	___flge@ff2,w
  7479     1694  0270               	subwf	___flge@ff1,w
  7480     1695                     u5365:
  7481     1695  1803               	skipnc
  7482     1696  2E98               	goto	u5361
  7483     1697  2E99               	goto	u5360
  7484     1698                     u5361:
  7485     1698  2E9B               	goto	l3905
  7486     1699                     u5360:
  7487     1699                     l3903:
  7488     1699  1003               	clrc
  7489     169A  2E9C               	goto	l584
  7490     169B                     l3905:
  7491     169B  1403               	setc
  7492     169C                     l584:
  7493     169C  0008               	return
  7494     169D                     __end_of___flge:
  7495                           
  7496                           	psect	text21
  7497     1585                     __ptext21:	
  7498 ;; *************** function ___fltol *****************
  7499 ;; Defined at:
  7500 ;;		line 43 in file "C:\Program Files\Microchip\xc8\v2.41\pic\sources\c90\common\fltol.c"
  7501 ;; Parameters:    Size  Location     Type
  7502 ;;  f1              4    0[COMMON] unsigned char 
  7503 ;; Auto vars:     Size  Location     Type
  7504 ;;  exp1            1    9[COMMON] unsigned char 
  7505 ;;  sign1           1    8[COMMON] unsigned char 
  7506 ;; Return value:  Size  Location     Type
  7507 ;;                  4    0[COMMON] long 
  7508 ;; Registers used:
  7509 ;;		wreg, status,2, status,0, btemp+1
  7510 ;; Tracked objects:
  7511 ;;		On entry : 0/0
  7512 ;;		On exit  : 0/0
  7513 ;;		Unchanged: 0/0
  7514 ;; Data sizes:     COMMON   BANK0   BANK1   BANK3   BANK2
  7515 ;;      Params:         4       0       0       0       0
  7516 ;;      Locals:         2       0       0       0       0
  7517 ;;      Temps:          4       0       0       0       0
  7518 ;;      Totals:        10       0       0       0       0
  7519 ;;Total ram usage:       10 bytes
  7520 ;; Hardware stack levels used: 1
  7521 ;; This function calls:
  7522 ;;		Nothing
  7523 ;; This function is called by:
  7524 ;;		_convertir_temperature
  7525 ;; This function uses a non-reentrant model
  7526 ;;
  7527                           
  7528     1585                     ___fltol:	
  7529                           ;psect for function ___fltol
  7530                           
  7531     1585                     l2791:	
  7532                           ;incstack = 0
  7533                           ; Regs used in ___fltol: [wreg+status,2+status,0+btemp+1]
  7534                           
  7535     1585  1003               	clrc
  7536     1586  0D72               	rlf	___fltol@f1+2,w
  7537     1587  0D73               	rlf	___fltol@f1+3,w
  7538     1588  00F9               	movwf	___fltol@exp1
  7539     1589  0879               	movf	___fltol@exp1,w
  7540     158A  1D03               	btfss	3,2
  7541     158B  2D8D               	goto	u3401
  7542     158C  2D8E               	goto	u3400
  7543     158D                     u3401:
  7544     158D  2D97               	goto	l2797
  7545     158E                     u3400:
  7546     158E                     l2793:
  7547     158E  3000               	movlw	0
  7548     158F  00F3               	movwf	?___fltol+3
  7549     1590  3000               	movlw	0
  7550     1591  00F2               	movwf	?___fltol+2
  7551     1592  3000               	movlw	0
  7552     1593  00F1               	movwf	?___fltol+1
  7553     1594  3000               	movlw	0
  7554     1595  00F0               	movwf	?___fltol
  7555     1596  2DFA               	goto	l592
  7556     1597                     l2797:
  7557     1597  0870               	movf	___fltol@f1,w
  7558     1598  00F4               	movwf	??___fltol
  7559     1599  0871               	movf	___fltol@f1+1,w
  7560     159A  00F5               	movwf	??___fltol+1
  7561     159B  0872               	movf	___fltol@f1+2,w
  7562     159C  00F6               	movwf	??___fltol+2
  7563     159D  0873               	movf	___fltol@f1+3,w
  7564     159E  00F7               	movwf	??___fltol+3
  7565     159F  301F               	movlw	31
  7566     15A0                     u3415:
  7567     15A0  1003               	clrc
  7568     15A1  0CF7               	rrf	??___fltol+3,f
  7569     15A2  0CF6               	rrf	??___fltol+2,f
  7570     15A3  0CF5               	rrf	??___fltol+1,f
  7571     15A4  0CF4               	rrf	??___fltol,f
  7572     15A5                     u3410:
  7573     15A5  3EFF               	addlw	-1
  7574     15A6  1D03               	skipz
  7575     15A7  2DA0               	goto	u3415
  7576     15A8  0874               	movf	??___fltol,w
  7577     15A9  00F8               	movwf	___fltol@sign1
  7578     15AA                     l2799:
  7579     15AA  17F2               	bsf	___fltol@f1+2,7
  7580     15AB                     l2801:
  7581     15AB  30FF               	movlw	255
  7582     15AC  05F0               	andwf	___fltol@f1,f
  7583     15AD  30FF               	movlw	255
  7584     15AE  05F1               	andwf	___fltol@f1+1,f
  7585     15AF  30FF               	movlw	255
  7586     15B0  05F2               	andwf	___fltol@f1+2,f
  7587     15B1  3000               	movlw	0
  7588     15B2  05F3               	andwf	___fltol@f1+3,f
  7589     15B3                     l2803:
  7590     15B3  3096               	movlw	150
  7591     15B4  02F9               	subwf	___fltol@exp1,f
  7592     15B5                     l2805:
  7593     15B5  1FF9               	btfss	___fltol@exp1,7
  7594     15B6  2DB8               	goto	u3421
  7595     15B7  2DB9               	goto	u3420
  7596     15B8                     u3421:
  7597     15B8  2DD3               	goto	l2817
  7598     15B9                     u3420:
  7599     15B9                     l2807:
  7600     15B9  0879               	movf	___fltol@exp1,w
  7601     15BA  3A80               	xorlw	128
  7602     15BB  3E97               	addlw	151
  7603     15BC  1803               	skipnc
  7604     15BD  2DBF               	goto	u3431
  7605     15BE  2DC0               	goto	u3430
  7606     15BF                     u3431:
  7607     15BF  2DC1               	goto	l2813
  7608     15C0                     u3430:
  7609     15C0  2D8E               	goto	l2793
  7610     15C1                     l2813:
  7611     15C1  3001               	movlw	1
  7612     15C2                     u3445:
  7613     15C2  1003               	clrc
  7614     15C3  0CF3               	rrf	___fltol@f1+3,f
  7615     15C4  0CF2               	rrf	___fltol@f1+2,f
  7616     15C5  0CF1               	rrf	___fltol@f1+1,f
  7617     15C6  0CF0               	rrf	___fltol@f1,f
  7618     15C7  3EFF               	addlw	-1
  7619     15C8  1D03               	skipz
  7620     15C9  2DC2               	goto	u3445
  7621     15CA                     l2815:
  7622     15CA  3001               	movlw	1
  7623     15CB  00FF               	movwf	btemp+1
  7624     15CC  087F               	movf	btemp+1,w
  7625     15CD  07F9               	addwf	___fltol@exp1,f
  7626     15CE  1D03               	btfss	3,2
  7627     15CF  2DD1               	goto	u3451
  7628     15D0  2DD2               	goto	u3450
  7629     15D1                     u3451:
  7630     15D1  2DC1               	goto	l2813
  7631     15D2                     u3450:
  7632     15D2  2DEA               	goto	l2825
  7633     15D3                     l2817:
  7634     15D3  3020               	movlw	32
  7635     15D4  0279               	subwf	___fltol@exp1,w
  7636     15D5  1C03               	skipc
  7637     15D6  2DD8               	goto	u3461
  7638     15D7  2DD9               	goto	u3460
  7639     15D8                     u3461:
  7640     15D8  2DE5               	goto	l599
  7641     15D9                     u3460:
  7642     15D9  2D8E               	goto	l2793
  7643     15DA                     l2823:
  7644     15DA  3001               	movlw	1
  7645     15DB  00F4               	movwf	??___fltol
  7646     15DC                     u3475:
  7647     15DC  1003               	clrc
  7648     15DD  0DF0               	rlf	___fltol@f1,f
  7649     15DE  0DF1               	rlf	___fltol@f1+1,f
  7650     15DF  0DF2               	rlf	___fltol@f1+2,f
  7651     15E0  0DF3               	rlf	___fltol@f1+3,f
  7652     15E1  0BF4               	decfsz	??___fltol,f
  7653     15E2  2DDC               	goto	u3475
  7654     15E3  3001               	movlw	1
  7655     15E4  02F9               	subwf	___fltol@exp1,f
  7656     15E5                     l599:
  7657     15E5  0879               	movf	___fltol@exp1,w
  7658     15E6  1D03               	btfss	3,2
  7659     15E7  2DE9               	goto	u3481
  7660     15E8  2DEA               	goto	u3480
  7661     15E9                     u3481:
  7662     15E9  2DDA               	goto	l2823
  7663     15EA                     u3480:
  7664     15EA                     l2825:
  7665     15EA  0878               	movf	___fltol@sign1,w
  7666     15EB  1903               	btfsc	3,2
  7667     15EC  2DEE               	goto	u3491
  7668     15ED  2DEF               	goto	u3490
  7669     15EE                     u3491:
  7670     15EE  2DFA               	goto	l602
  7671     15EF                     u3490:
  7672     15EF                     l2827:
  7673     15EF  09F0               	comf	___fltol@f1,f
  7674     15F0  09F1               	comf	___fltol@f1+1,f
  7675     15F1  09F2               	comf	___fltol@f1+2,f
  7676     15F2  09F3               	comf	___fltol@f1+3,f
  7677     15F3  0AF0               	incf	___fltol@f1,f
  7678     15F4  1903               	skipnz
  7679     15F5  0AF1               	incf	___fltol@f1+1,f
  7680     15F6  1903               	skipnz
  7681     15F7  0AF2               	incf	___fltol@f1+2,f
  7682     15F8  1903               	skipnz
  7683     15F9  0AF3               	incf	___fltol@f1+3,f
  7684     15FA                     l602:
  7685     15FA                     l592:
  7686     15FA  0008               	return
  7687     15FB                     __end_of___fltol:
  7688                           
  7689                           	psect	text22
  7690     0070                     __ptext22:	
  7691 ;; *************** function ___fldiv *****************
  7692 ;; Defined at:
  7693 ;;		line 8 in file "C:\Program Files\Microchip\xc8\v2.41\pic\sources\c90\common\sprcdiv.c"
  7694 ;; Parameters:    Size  Location     Type
  7695 ;;  a               4   31[BANK0 ] long 
  7696 ;;  b               4   35[BANK0 ] long 
  7697 ;; Auto vars:     Size  Location     Type
  7698 ;;  grs             4   51[BANK0 ] unsigned long 
  7699 ;;  rem             4   44[BANK0 ] unsigned long 
  7700 ;;  new_exp         2   49[BANK0 ] int 
  7701 ;;  aexp            1   56[BANK0 ] unsigned char 
  7702 ;;  bexp            1   55[BANK0 ] unsigned char 
  7703 ;;  sign            1   48[BANK0 ] unsigned char 
  7704 ;; Return value:  Size  Location     Type
  7705 ;;                  4   31[BANK0 ] unsigned char 
  7706 ;; Registers used:
  7707 ;;		wreg, status,2, status,0, btemp+1
  7708 ;; Tracked objects:
  7709 ;;		On entry : 0/0
  7710 ;;		On exit  : 0/0
  7711 ;;		Unchanged: 0/0
  7712 ;; Data sizes:     COMMON   BANK0   BANK1   BANK3   BANK2
  7713 ;;      Params:         0       8       0       0       0
  7714 ;;      Locals:         0      13       0       0       0
  7715 ;;      Temps:          0       5       0       0       0
  7716 ;;      Totals:         0      26       0       0       0
  7717 ;;Total ram usage:       26 bytes
  7718 ;; Hardware stack levels used: 1
  7719 ;; This function calls:
  7720 ;;		Nothing
  7721 ;; This function is called by:
  7722 ;;		_convertir_temperature
  7723 ;; This function uses a non-reentrant model
  7724 ;;
  7725                           
  7726     0070                     ___fldiv:	
  7727                           ;psect for function ___fldiv
  7728                           
  7729     0070                     l2877:	
  7730                           ;incstack = 0
  7731                           ; Regs used in ___fldiv: [wreg+status,2+status,0+btemp+1]
  7732                           
  7733     0070  1283               	bcf	3,5	;RP0=0, select bank0
  7734     0071  1303               	bcf	3,6	;RP1=0, select bank0
  7735     0072  0846               	movf	___fldiv@b+3,w
  7736     0073  3980               	andlw	128
  7737     0074  00D0               	movwf	___fldiv@sign
  7738     0075                     l2879:
  7739     0075  0846               	movf	___fldiv@b+3,w
  7740     0076  00C7               	movwf	??___fldiv
  7741     0077  0747               	addwf	??___fldiv,w
  7742     0078  00D7               	movwf	___fldiv@bexp
  7743     0079                     l2881:
  7744     0079  1FC5               	btfss	___fldiv@b+2,7
  7745     007A  287C               	goto	u3631
  7746     007B  287D               	goto	u3630
  7747     007C                     u3631:
  7748     007C  287E               	goto	l2885
  7749     007D                     u3630:
  7750     007D                     l2883:
  7751     007D  1457               	bsf	___fldiv@bexp,0
  7752     007E                     l2885:
  7753     007E  0857               	movf	___fldiv@bexp,w
  7754     007F  1903               	btfsc	3,2
  7755     0080  2882               	goto	u3641
  7756     0081  2883               	goto	u3640
  7757     0082                     u3641:
  7758     0082  2893               	goto	l2895
  7759     0083                     u3640:
  7760     0083                     l2887:
  7761     0083  0A57               	incf	___fldiv@bexp,w
  7762     0084  1D03               	btfss	3,2
  7763     0085  2887               	goto	u3651
  7764     0086  2888               	goto	u3650
  7765     0087                     u3651:
  7766     0087  2890               	goto	l2891
  7767     0088                     u3650:
  7768     0088                     l2889:
  7769     0088  3000               	movlw	0
  7770     0089  00C6               	movwf	___fldiv@b+3
  7771     008A  3000               	movlw	0
  7772     008B  00C5               	movwf	___fldiv@b+2
  7773     008C  3000               	movlw	0
  7774     008D  00C4               	movwf	___fldiv@b+1
  7775     008E  3000               	movlw	0
  7776     008F  00C3               	movwf	___fldiv@b
  7777     0090                     l2891:
  7778     0090  17C5               	bsf	___fldiv@b+2,7
  7779     0091                     l2893:
  7780     0091  01C6               	clrf	___fldiv@b+3
  7781     0092  289B               	goto	l2897
  7782     0093                     l2895:
  7783     0093  3000               	movlw	0
  7784     0094  00C6               	movwf	___fldiv@b+3
  7785     0095  3000               	movlw	0
  7786     0096  00C5               	movwf	___fldiv@b+2
  7787     0097  3000               	movlw	0
  7788     0098  00C4               	movwf	___fldiv@b+1
  7789     0099  3000               	movlw	0
  7790     009A  00C3               	movwf	___fldiv@b
  7791     009B                     l2897:
  7792     009B  0842               	movf	___fldiv@a+3,w
  7793     009C  3980               	andlw	128
  7794     009D  00FF               	movwf	btemp+1
  7795     009E  087F               	movf	btemp+1,w
  7796     009F  06D0               	xorwf	___fldiv@sign,f
  7797     00A0                     l2899:
  7798     00A0  0842               	movf	___fldiv@a+3,w
  7799     00A1  00C7               	movwf	??___fldiv
  7800     00A2  0747               	addwf	??___fldiv,w
  7801     00A3  00D8               	movwf	___fldiv@aexp
  7802     00A4                     l2901:
  7803     00A4  1FC1               	btfss	___fldiv@a+2,7
  7804     00A5  28A7               	goto	u3661
  7805     00A6  28A8               	goto	u3660
  7806     00A7                     u3661:
  7807     00A7  28A9               	goto	l2905
  7808     00A8                     u3660:
  7809     00A8                     l2903:
  7810     00A8  1458               	bsf	___fldiv@aexp,0
  7811     00A9                     l2905:
  7812     00A9  0858               	movf	___fldiv@aexp,w
  7813     00AA  1903               	btfsc	3,2
  7814     00AB  28AD               	goto	u3671
  7815     00AC  28AE               	goto	u3670
  7816     00AD                     u3671:
  7817     00AD  28BE               	goto	l2915
  7818     00AE                     u3670:
  7819     00AE                     l2907:
  7820     00AE  0A58               	incf	___fldiv@aexp,w
  7821     00AF  1D03               	btfss	3,2
  7822     00B0  28B2               	goto	u3681
  7823     00B1  28B3               	goto	u3680
  7824     00B2                     u3681:
  7825     00B2  28BB               	goto	l2911
  7826     00B3                     u3680:
  7827     00B3                     l2909:
  7828     00B3  3000               	movlw	0
  7829     00B4  00C2               	movwf	___fldiv@a+3
  7830     00B5  3000               	movlw	0
  7831     00B6  00C1               	movwf	___fldiv@a+2
  7832     00B7  3000               	movlw	0
  7833     00B8  00C0               	movwf	___fldiv@a+1
  7834     00B9  3000               	movlw	0
  7835     00BA  00BF               	movwf	___fldiv@a
  7836     00BB                     l2911:
  7837     00BB  17C1               	bsf	___fldiv@a+2,7
  7838     00BC                     l2913:
  7839     00BC  01C2               	clrf	___fldiv@a+3
  7840     00BD  28C6               	goto	l755
  7841     00BE                     l2915:
  7842     00BE  3000               	movlw	0
  7843     00BF  00C2               	movwf	___fldiv@a+3
  7844     00C0  3000               	movlw	0
  7845     00C1  00C1               	movwf	___fldiv@a+2
  7846     00C2  3000               	movlw	0
  7847     00C3  00C0               	movwf	___fldiv@a+1
  7848     00C4  3000               	movlw	0
  7849     00C5  00BF               	movwf	___fldiv@a
  7850     00C6                     l755:
  7851     00C6  0842               	movf	___fldiv@a+3,w
  7852     00C7  0441               	iorwf	___fldiv@a+2,w
  7853     00C8  0440               	iorwf	___fldiv@a+1,w
  7854     00C9  043F               	iorwf	___fldiv@a,w
  7855     00CA  1D03               	skipz
  7856     00CB  28CD               	goto	u3691
  7857     00CC  28CE               	goto	u3690
  7858     00CD                     u3691:
  7859     00CD  28E7               	goto	l2925
  7860     00CE                     u3690:
  7861     00CE                     l2917:
  7862     00CE  3000               	movlw	0
  7863     00CF  00C6               	movwf	___fldiv@b+3
  7864     00D0  3000               	movlw	0
  7865     00D1  00C5               	movwf	___fldiv@b+2
  7866     00D2  3000               	movlw	0
  7867     00D3  00C4               	movwf	___fldiv@b+1
  7868     00D4  3000               	movlw	0
  7869     00D5  00C3               	movwf	___fldiv@b
  7870     00D6  3080               	movlw	128
  7871     00D7  04C5               	iorwf	___fldiv@b+2,f
  7872     00D8  307F               	movlw	127
  7873     00D9  04C6               	iorwf	___fldiv@b+3,f
  7874     00DA                     l2919:
  7875     00DA  0850               	movf	___fldiv@sign,w
  7876     00DB  00FF               	movwf	btemp+1
  7877     00DC  087F               	movf	btemp+1,w
  7878     00DD  04C6               	iorwf	___fldiv@b+3,f
  7879     00DE                     l2921:
  7880     00DE  0846               	movf	___fldiv@b+3,w
  7881     00DF  00C2               	movwf	?___fldiv+3
  7882     00E0  0845               	movf	___fldiv@b+2,w
  7883     00E1  00C1               	movwf	?___fldiv+2
  7884     00E2  0844               	movf	___fldiv@b+1,w
  7885     00E3  00C0               	movwf	?___fldiv+1
  7886     00E4  0843               	movf	___fldiv@b,w
  7887     00E5  00BF               	movwf	?___fldiv
  7888     00E6  2A3E               	goto	l757
  7889     00E7                     l2925:
  7890     00E7  0857               	movf	___fldiv@bexp,w
  7891     00E8  1D03               	btfss	3,2
  7892     00E9  28EB               	goto	u3701
  7893     00EA  28EC               	goto	u3700
  7894     00EB                     u3701:
  7895     00EB  28F5               	goto	l2931
  7896     00EC                     u3700:
  7897     00EC                     l2927:
  7898     00EC  3000               	movlw	0
  7899     00ED  00C2               	movwf	?___fldiv+3
  7900     00EE  3000               	movlw	0
  7901     00EF  00C1               	movwf	?___fldiv+2
  7902     00F0  3000               	movlw	0
  7903     00F1  00C0               	movwf	?___fldiv+1
  7904     00F2  3000               	movlw	0
  7905     00F3  00BF               	movwf	?___fldiv
  7906     00F4  2A3E               	goto	l757
  7907     00F5                     l2931:
  7908     00F5  0857               	movf	___fldiv@bexp,w
  7909     00F6  00C7               	movwf	??___fldiv
  7910     00F7  01C8               	clrf	??___fldiv+1
  7911     00F8  0848               	movf	??___fldiv+1,w
  7912     00F9  00CA               	movwf	??___fldiv+3
  7913     00FA  0858               	movf	___fldiv@aexp,w
  7914     00FB  0247               	subwf	??___fldiv,w
  7915     00FC  00C9               	movwf	??___fldiv+2
  7916     00FD  1C03               	skipc
  7917     00FE  03CA               	decf	??___fldiv+3,f
  7918     00FF  0849               	movf	??___fldiv+2,w
  7919     0100  3E7F               	addlw	127
  7920     0101  00D1               	movwf	___fldiv@new_exp
  7921     0102  084A               	movf	??___fldiv+3,w
  7922     0103  1803               	skipnc
  7923     0104  3E01               	addlw	1
  7924     0105  3E00               	addlw	0
  7925     0106  00D2               	movwf	___fldiv@new_exp+1
  7926     0107                     l2933:
  7927     0107  0846               	movf	___fldiv@b+3,w
  7928     0108  00CF               	movwf	___fldiv@rem+3
  7929     0109  0845               	movf	___fldiv@b+2,w
  7930     010A  00CE               	movwf	___fldiv@rem+2
  7931     010B  0844               	movf	___fldiv@b+1,w
  7932     010C  00CD               	movwf	___fldiv@rem+1
  7933     010D  0843               	movf	___fldiv@b,w
  7934     010E  00CC               	movwf	___fldiv@rem
  7935     010F                     l2935:
  7936     010F  3000               	movlw	0
  7937     0110  00C6               	movwf	___fldiv@b+3
  7938     0111  3000               	movlw	0
  7939     0112  00C5               	movwf	___fldiv@b+2
  7940     0113  3000               	movlw	0
  7941     0114  00C4               	movwf	___fldiv@b+1
  7942     0115  3000               	movlw	0
  7943     0116  00C3               	movwf	___fldiv@b
  7944     0117                     l2937:
  7945     0117  3000               	movlw	0
  7946     0118  00D6               	movwf	___fldiv@grs+3
  7947     0119  3000               	movlw	0
  7948     011A  00D5               	movwf	___fldiv@grs+2
  7949     011B  3000               	movlw	0
  7950     011C  00D4               	movwf	___fldiv@grs+1
  7951     011D  3000               	movlw	0
  7952     011E  00D3               	movwf	___fldiv@grs
  7953     011F                     l2939:
  7954     011F  01D8               	clrf	___fldiv@aexp
  7955     0120  296B               	goto	l2959
  7956     0121                     l2941:
  7957     0121  0858               	movf	___fldiv@aexp,w
  7958     0122  1903               	btfsc	3,2
  7959     0123  2925               	goto	u3711
  7960     0124  2926               	goto	u3710
  7961     0125                     u3711:
  7962     0125  2946               	goto	l2951
  7963     0126                     u3710:
  7964     0126                     l2943:
  7965     0126  3001               	movlw	1
  7966     0127  00C7               	movwf	??___fldiv
  7967     0128                     u3725:
  7968     0128  1003               	clrc
  7969     0129  0DCC               	rlf	___fldiv@rem,f
  7970     012A  0DCD               	rlf	___fldiv@rem+1,f
  7971     012B  0DCE               	rlf	___fldiv@rem+2,f
  7972     012C  0DCF               	rlf	___fldiv@rem+3,f
  7973     012D  0BC7               	decfsz	??___fldiv,f
  7974     012E  2928               	goto	u3725
  7975     012F  3001               	movlw	1
  7976     0130  00C7               	movwf	??___fldiv
  7977     0131                     u3735:
  7978     0131  1003               	clrc
  7979     0132  0DC3               	rlf	___fldiv@b,f
  7980     0133  0DC4               	rlf	___fldiv@b+1,f
  7981     0134  0DC5               	rlf	___fldiv@b+2,f
  7982     0135  0DC6               	rlf	___fldiv@b+3,f
  7983     0136  0BC7               	decfsz	??___fldiv,f
  7984     0137  2931               	goto	u3735
  7985     0138                     l2945:
  7986     0138  1FD6               	btfss	___fldiv@grs+3,7
  7987     0139  293B               	goto	u3741
  7988     013A  293C               	goto	u3740
  7989     013B                     u3741:
  7990     013B  293D               	goto	l2949
  7991     013C                     u3740:
  7992     013C                     l2947:
  7993     013C  1443               	bsf	___fldiv@b,0
  7994     013D                     l2949:
  7995     013D  3001               	movlw	1
  7996     013E  00C7               	movwf	??___fldiv
  7997     013F                     u3755:
  7998     013F  1003               	clrc
  7999     0140  0DD3               	rlf	___fldiv@grs,f
  8000     0141  0DD4               	rlf	___fldiv@grs+1,f
  8001     0142  0DD5               	rlf	___fldiv@grs+2,f
  8002     0143  0DD6               	rlf	___fldiv@grs+3,f
  8003     0144  0BC7               	decfsz	??___fldiv,f
  8004     0145  293F               	goto	u3755
  8005     0146                     l2951:
  8006     0146  0842               	movf	___fldiv@a+3,w
  8007     0147  024F               	subwf	___fldiv@rem+3,w
  8008     0148  1D03               	skipz
  8009     0149  2954               	goto	u3765
  8010     014A  0841               	movf	___fldiv@a+2,w
  8011     014B  024E               	subwf	___fldiv@rem+2,w
  8012     014C  1D03               	skipz
  8013     014D  2954               	goto	u3765
  8014     014E  0840               	movf	___fldiv@a+1,w
  8015     014F  024D               	subwf	___fldiv@rem+1,w
  8016     0150  1D03               	skipz
  8017     0151  2954               	goto	u3765
  8018     0152  083F               	movf	___fldiv@a,w
  8019     0153  024C               	subwf	___fldiv@rem,w
  8020     0154                     u3765:
  8021     0154  1C03               	skipc
  8022     0155  2957               	goto	u3761
  8023     0156  2958               	goto	u3760
  8024     0157                     u3761:
  8025     0157  2967               	goto	l2957
  8026     0158                     u3760:
  8027     0158                     l2953:
  8028     0158  1756               	bsf	___fldiv@grs+3,6
  8029     0159                     l2955:
  8030     0159  083F               	movf	___fldiv@a,w
  8031     015A  02CC               	subwf	___fldiv@rem,f
  8032     015B  0840               	movf	___fldiv@a+1,w
  8033     015C  1C03               	skipc
  8034     015D  0F40               	incfsz	___fldiv@a+1,w
  8035     015E  02CD               	subwf	___fldiv@rem+1,f
  8036     015F  0841               	movf	___fldiv@a+2,w
  8037     0160  1C03               	skipc
  8038     0161  0F41               	incfsz	___fldiv@a+2,w
  8039     0162  02CE               	subwf	___fldiv@rem+2,f
  8040     0163  0842               	movf	___fldiv@a+3,w
  8041     0164  1C03               	skipc
  8042     0165  0F42               	incfsz	___fldiv@a+3,w
  8043     0166  02CF               	subwf	___fldiv@rem+3,f
  8044     0167                     l2957:
  8045     0167  3001               	movlw	1
  8046     0168  00FF               	movwf	btemp+1
  8047     0169  087F               	movf	btemp+1,w
  8048     016A  07D8               	addwf	___fldiv@aexp,f
  8049     016B                     l2959:
  8050     016B  301A               	movlw	26
  8051     016C  0258               	subwf	___fldiv@aexp,w
  8052     016D  1C03               	skipc
  8053     016E  2970               	goto	u3771
  8054     016F  2971               	goto	u3770
  8055     0170                     u3771:
  8056     0170  2921               	goto	l2941
  8057     0171                     u3770:
  8058     0171                     l2961:
  8059     0171  084F               	movf	___fldiv@rem+3,w
  8060     0172  044E               	iorwf	___fldiv@rem+2,w
  8061     0173  044D               	iorwf	___fldiv@rem+1,w
  8062     0174  044C               	iorwf	___fldiv@rem,w
  8063     0175  1903               	skipnz
  8064     0176  2978               	goto	u3781
  8065     0177  2979               	goto	u3780
  8066     0178                     u3781:
  8067     0178  2998               	goto	l2975
  8068     0179                     u3780:
  8069     0179                     l2963:
  8070     0179  1453               	bsf	___fldiv@grs,0
  8071     017A  2998               	goto	l2975
  8072     017B                     l2965:
  8073     017B  3001               	movlw	1
  8074     017C  00C7               	movwf	??___fldiv
  8075     017D                     u3795:
  8076     017D  1003               	clrc
  8077     017E  0DC3               	rlf	___fldiv@b,f
  8078     017F  0DC4               	rlf	___fldiv@b+1,f
  8079     0180  0DC5               	rlf	___fldiv@b+2,f
  8080     0181  0DC6               	rlf	___fldiv@b+3,f
  8081     0182  0BC7               	decfsz	??___fldiv,f
  8082     0183  297D               	goto	u3795
  8083     0184                     l2967:
  8084     0184  1FD6               	btfss	___fldiv@grs+3,7
  8085     0185  2987               	goto	u3801
  8086     0186  2988               	goto	u3800
  8087     0187                     u3801:
  8088     0187  2989               	goto	l2971
  8089     0188                     u3800:
  8090     0188                     l2969:
  8091     0188  1443               	bsf	___fldiv@b,0
  8092     0189                     l2971:
  8093     0189  3001               	movlw	1
  8094     018A  00C7               	movwf	??___fldiv
  8095     018B                     u3815:
  8096     018B  1003               	clrc
  8097     018C  0DD3               	rlf	___fldiv@grs,f
  8098     018D  0DD4               	rlf	___fldiv@grs+1,f
  8099     018E  0DD5               	rlf	___fldiv@grs+2,f
  8100     018F  0DD6               	rlf	___fldiv@grs+3,f
  8101     0190  0BC7               	decfsz	??___fldiv,f
  8102     0191  298B               	goto	u3815
  8103     0192                     l2973:
  8104     0192  30FF               	movlw	255
  8105     0193  07D1               	addwf	___fldiv@new_exp,f
  8106     0194  1803               	skipnc
  8107     0195  0AD2               	incf	___fldiv@new_exp+1,f
  8108     0196  30FF               	movlw	255
  8109     0197  07D2               	addwf	___fldiv@new_exp+1,f
  8110     0198                     l2975:
  8111     0198  1FC5               	btfss	___fldiv@b+2,7
  8112     0199  299B               	goto	u3821
  8113     019A  299C               	goto	u3820
  8114     019B                     u3821:
  8115     019B  297B               	goto	l2965
  8116     019C                     u3820:
  8117     019C                     l2977:
  8118     019C  01D8               	clrf	___fldiv@aexp
  8119     019D                     l2979:
  8120     019D  1FD6               	btfss	___fldiv@grs+3,7
  8121     019E  29A0               	goto	u3831
  8122     019F  29A1               	goto	u3830
  8123     01A0                     u3831:
  8124     01A0  29BD               	goto	l2987
  8125     01A1                     u3830:
  8126     01A1                     l2981:
  8127     01A1  30FF               	movlw	255
  8128     01A2  0553               	andwf	___fldiv@grs,w
  8129     01A3  00C7               	movwf	??___fldiv
  8130     01A4  30FF               	movlw	255
  8131     01A5  0554               	andwf	___fldiv@grs+1,w
  8132     01A6  00C8               	movwf	??___fldiv+1
  8133     01A7  30FF               	movlw	255
  8134     01A8  0555               	andwf	___fldiv@grs+2,w
  8135     01A9  00C9               	movwf	??___fldiv+2
  8136     01AA  307F               	movlw	127
  8137     01AB  0556               	andwf	___fldiv@grs+3,w
  8138     01AC  00CA               	movwf	??___fldiv+3
  8139     01AD  084A               	movf	??___fldiv+3,w
  8140     01AE  0449               	iorwf	??___fldiv+2,w
  8141     01AF  0448               	iorwf	??___fldiv+1,w
  8142     01B0  0447               	iorwf	??___fldiv,w
  8143     01B1  1903               	skipnz
  8144     01B2  29B4               	goto	u3841
  8145     01B3  29B5               	goto	u3840
  8146     01B4                     u3841:
  8147     01B4  29B8               	goto	l771
  8148     01B5                     u3840:
  8149     01B5                     l2983:
  8150     01B5  01D8               	clrf	___fldiv@aexp
  8151     01B6  0AD8               	incf	___fldiv@aexp,f
  8152     01B7  29BD               	goto	l2987
  8153     01B8                     l771:
  8154     01B8  1C43               	btfss	___fldiv@b,0
  8155     01B9  29BB               	goto	u3851
  8156     01BA  29BC               	goto	u3850
  8157     01BB                     u3851:
  8158     01BB  29BD               	goto	l2987
  8159     01BC                     u3850:
  8160     01BC  29B5               	goto	l2983
  8161     01BD                     l2987:
  8162     01BD  0858               	movf	___fldiv@aexp,w
  8163     01BE  1903               	btfsc	3,2
  8164     01BF  29C1               	goto	u3861
  8165     01C0  29C2               	goto	u3860
  8166     01C1                     u3861:
  8167     01C1  29F3               	goto	l2997
  8168     01C2                     u3860:
  8169     01C2                     l2989:
  8170     01C2  3001               	movlw	1
  8171     01C3  07C3               	addwf	___fldiv@b,f
  8172     01C4  3000               	movlw	0
  8173     01C5  1803               	skipnc
  8174     01C6  3001               	movlw	1
  8175     01C7  07C4               	addwf	___fldiv@b+1,f
  8176     01C8  3000               	movlw	0
  8177     01C9  1803               	skipnc
  8178     01CA  3001               	movlw	1
  8179     01CB  07C5               	addwf	___fldiv@b+2,f
  8180     01CC  3000               	movlw	0
  8181     01CD  1803               	skipnc
  8182     01CE  3001               	movlw	1
  8183     01CF  07C6               	addwf	___fldiv@b+3,f
  8184     01D0                     l2991:
  8185     01D0  1C46               	btfss	___fldiv@b+3,0
  8186     01D1  29D3               	goto	u3871
  8187     01D2  29D4               	goto	u3870
  8188     01D3                     u3871:
  8189     01D3  29F3               	goto	l2997
  8190     01D4                     u3870:
  8191     01D4                     l2993:
  8192     01D4  0843               	movf	___fldiv@b,w
  8193     01D5  00C7               	movwf	??___fldiv
  8194     01D6  0844               	movf	___fldiv@b+1,w
  8195     01D7  00C8               	movwf	??___fldiv+1
  8196     01D8  0845               	movf	___fldiv@b+2,w
  8197     01D9  00C9               	movwf	??___fldiv+2
  8198     01DA  0846               	movf	___fldiv@b+3,w
  8199     01DB  00CA               	movwf	??___fldiv+3
  8200     01DC  3001               	movlw	1
  8201     01DD  00CB               	movwf	??___fldiv+4
  8202     01DE                     u3885:
  8203     01DE  0D4A               	rlf	??___fldiv+3,w
  8204     01DF  0CCA               	rrf	??___fldiv+3,f
  8205     01E0  0CC9               	rrf	??___fldiv+2,f
  8206     01E1  0CC8               	rrf	??___fldiv+1,f
  8207     01E2  0CC7               	rrf	??___fldiv,f
  8208     01E3                     u3880:
  8209     01E3  0BCB               	decfsz	??___fldiv+4,f
  8210     01E4  29DE               	goto	u3885
  8211     01E5  084A               	movf	??___fldiv+3,w
  8212     01E6  00C6               	movwf	___fldiv@b+3
  8213     01E7  0849               	movf	??___fldiv+2,w
  8214     01E8  00C5               	movwf	___fldiv@b+2
  8215     01E9  0848               	movf	??___fldiv+1,w
  8216     01EA  00C4               	movwf	___fldiv@b+1
  8217     01EB  0847               	movf	??___fldiv,w
  8218     01EC  00C3               	movwf	___fldiv@b
  8219     01ED                     l2995:
  8220     01ED  3001               	movlw	1
  8221     01EE  07D1               	addwf	___fldiv@new_exp,f
  8222     01EF  1803               	skipnc
  8223     01F0  0AD2               	incf	___fldiv@new_exp+1,f
  8224     01F1  3000               	movlw	0
  8225     01F2  07D2               	addwf	___fldiv@new_exp+1,f
  8226     01F3                     l2997:
  8227     01F3  0852               	movf	___fldiv@new_exp+1,w
  8228     01F4  3A80               	xorlw	128
  8229     01F5  00FF               	movwf	btemp+1
  8230     01F6  3080               	movlw	128
  8231     01F7  027F               	subwf	btemp+1,w
  8232     01F8  1D03               	skipz
  8233     01F9  29FC               	goto	u3895
  8234     01FA  30FF               	movlw	255
  8235     01FB  0251               	subwf	___fldiv@new_exp,w
  8236     01FC                     u3895:
  8237     01FC  1C03               	skipc
  8238     01FD  29FF               	goto	u3891
  8239     01FE  2A00               	goto	u3890
  8240     01FF                     u3891:
  8241     01FF  2A0E               	goto	l3001
  8242     0200                     u3890:
  8243     0200                     l2999:
  8244     0200  30FF               	movlw	255
  8245     0201  1283               	bcf	3,5	;RP0=0, select bank0
  8246     0202  1303               	bcf	3,6	;RP1=0, select bank0
  8247     0203  00D1               	movwf	___fldiv@new_exp
  8248     0204  3000               	movlw	0
  8249     0205  00D2               	movwf	___fldiv@new_exp+1
  8250     0206  3000               	movlw	0
  8251     0207  00C6               	movwf	___fldiv@b+3
  8252     0208  3000               	movlw	0
  8253     0209  00C5               	movwf	___fldiv@b+2
  8254     020A  3000               	movlw	0
  8255     020B  00C4               	movwf	___fldiv@b+1
  8256     020C  3000               	movlw	0
  8257     020D  00C3               	movwf	___fldiv@b
  8258     020E                     l3001:
  8259     020E  1283               	bcf	3,5	;RP0=0, select bank0
  8260     020F  1303               	bcf	3,6	;RP1=0, select bank0
  8261     0210  0852               	movf	___fldiv@new_exp+1,w
  8262     0211  3A80               	xorlw	128
  8263     0212  00FF               	movwf	btemp+1
  8264     0213  3080               	movlw	128
  8265     0214  027F               	subwf	btemp+1,w
  8266     0215  1D03               	skipz
  8267     0216  2A19               	goto	u3905
  8268     0217  3001               	movlw	1
  8269     0218  0251               	subwf	___fldiv@new_exp,w
  8270     0219                     u3905:
  8271     0219  1803               	skipnc
  8272     021A  2A1C               	goto	u3901
  8273     021B  2A1D               	goto	u3900
  8274     021C                     u3901:
  8275     021C  2A2A               	goto	l777
  8276     021D                     u3900:
  8277     021D                     l3003:
  8278     021D  1283               	bcf	3,5	;RP0=0, select bank0
  8279     021E  1303               	bcf	3,6	;RP1=0, select bank0
  8280     021F  01D1               	clrf	___fldiv@new_exp
  8281     0220  01D2               	clrf	___fldiv@new_exp+1
  8282     0221                     l3005:
  8283     0221  3000               	movlw	0
  8284     0222  00C6               	movwf	___fldiv@b+3
  8285     0223  3000               	movlw	0
  8286     0224  00C5               	movwf	___fldiv@b+2
  8287     0225  3000               	movlw	0
  8288     0226  00C4               	movwf	___fldiv@b+1
  8289     0227  3000               	movlw	0
  8290     0228  00C3               	movwf	___fldiv@b
  8291     0229                     l3007:
  8292     0229  01D0               	clrf	___fldiv@sign
  8293     022A                     l777:
  8294     022A  1283               	bcf	3,5	;RP0=0, select bank0
  8295     022B  1303               	bcf	3,6	;RP1=0, select bank0
  8296     022C  0851               	movf	___fldiv@new_exp,w
  8297     022D  00D7               	movwf	___fldiv@bexp
  8298     022E                     l3009:
  8299     022E  1C57               	btfss	___fldiv@bexp,0
  8300     022F  2A31               	goto	u3911
  8301     0230  2A32               	goto	u3910
  8302     0231                     u3911:
  8303     0231  2A34               	goto	l3013
  8304     0232                     u3910:
  8305     0232                     l3011:
  8306     0232  17C5               	bsf	___fldiv@b+2,7
  8307     0233  2A38               	goto	l3015
  8308     0234                     l3013:
  8309     0234  307F               	movlw	127
  8310     0235  00FF               	movwf	btemp+1
  8311     0236  087F               	movf	btemp+1,w
  8312     0237  05C5               	andwf	___fldiv@b+2,f
  8313     0238                     l3015:
  8314     0238  0857               	movf	___fldiv@bexp,w
  8315     0239  00C7               	movwf	??___fldiv
  8316     023A  1003               	clrc
  8317     023B  0C47               	rrf	??___fldiv,w
  8318     023C  00C6               	movwf	___fldiv@b+3
  8319     023D  28DA               	goto	l2919
  8320     023E                     l757:
  8321     023E  0008               	return
  8322     023F                     __end_of___fldiv:
  8323                           
  8324                           	psect	text23
  8325     1233                     __ptext23:	
  8326 ;; *************** function _adc_conversion *****************
  8327 ;; Defined at:
  8328 ;;		line 379 in file "mainseguridad.c"
  8329 ;; Parameters:    Size  Location     Type
  8330 ;;  channel         2    0[COMMON] int 
  8331 ;; Auto vars:     Size  Location     Type
  8332 ;;		None
  8333 ;; Return value:  Size  Location     Type
  8334 ;;                  2    0[COMMON] int 
  8335 ;; Registers used:
  8336 ;;		wreg, status,2, status,0
  8337 ;; Tracked objects:
  8338 ;;		On entry : 0/0
  8339 ;;		On exit  : 0/0
  8340 ;;		Unchanged: 0/0
  8341 ;; Data sizes:     COMMON   BANK0   BANK1   BANK3   BANK2
  8342 ;;      Params:         2       0       0       0       0
  8343 ;;      Locals:         0       0       0       0       0
  8344 ;;      Temps:          1       0       0       0       0
  8345 ;;      Totals:         3       0       0       0       0
  8346 ;;Total ram usage:        3 bytes
  8347 ;; Hardware stack levels used: 1
  8348 ;; This function calls:
  8349 ;;		Nothing
  8350 ;; This function is called by:
  8351 ;;		_function_monitoreo_ambiental
  8352 ;; This function uses a non-reentrant model
  8353 ;;
  8354                           
  8355     1233                     _adc_conversion:	
  8356                           ;psect for function _adc_conversion
  8357                           
  8358     1233                     l3229:	
  8359                           ;incstack = 0
  8360                           ; Regs used in _adc_conversion: [wreg+status,2+status,0]
  8361                           
  8362                           
  8363                           ;mainseguridad.c: 381:      ADCON0bits.CHS = (0x0f & channel);
  8364     1233  0870               	movf	adc_conversion@channel,w
  8365     1234  390F               	andlw	15
  8366     1235  00F2               	movwf	??_adc_conversion
  8367     1236  0DF2               	rlf	??_adc_conversion,f
  8368     1237  0DF2               	rlf	??_adc_conversion,f
  8369     1238  1283               	bcf	3,5	;RP0=0, select bank0
  8370     1239  1303               	bcf	3,6	;RP1=0, select bank0
  8371     123A  081F               	movf	31,w	;volatile
  8372     123B  0672               	xorwf	??_adc_conversion,w
  8373     123C  39C3               	andlw	-61
  8374     123D  0672               	xorwf	??_adc_conversion,w
  8375     123E  009F               	movwf	31	;volatile
  8376     123F                     l3231:
  8377                           
  8378                           ;mainseguridad.c: 382:      ADCON0bits.ADON = 1;
  8379     123F  141F               	bsf	31,0	;volatile
  8380     1240                     l3233:
  8381                           
  8382                           ;mainseguridad.c: 383:      _delay((unsigned long)((30)*(8000000/4000000.0)));
  8383     1240  3013               	movlw	19
  8384     1241  00F2               	movwf	??_adc_conversion
  8385     1242                     u5757:
  8386     1242  0BF2               	decfsz	??_adc_conversion,f
  8387     1243  2A42               	goto	u5757
  8388     1244  2A45               	nop2
  8389     1245                     l3235:
  8390                           
  8391                           ;mainseguridad.c: 384:      ADCON0bits.GO = 1;
  8392     1245  1283               	bcf	3,5	;RP0=0, select bank0
  8393     1246  1303               	bcf	3,6	;RP1=0, select bank0
  8394     1247  149F               	bsf	31,1	;volatile
  8395     1248                     l264:	
  8396                           ;mainseguridad.c: 385:      while (ADCON0bits.GO);
  8397                           
  8398     1248  189F               	btfsc	31,1	;volatile
  8399     1249  2A4B               	goto	u4251
  8400     124A  2A4C               	goto	u4250
  8401     124B                     u4251:
  8402     124B  2A48               	goto	l264
  8403     124C                     u4250:
  8404     124C                     l266:
  8405                           
  8406                           ;mainseguridad.c: 386:      ADCON0bits.ADON = 0;
  8407     124C  101F               	bcf	31,0	;volatile
  8408     124D                     l3237:
  8409                           
  8410                           ;mainseguridad.c: 387:      return ((ADRESH << 8) | ADRESL);
  8411     124D  081E               	movf	30,w	;volatile
  8412     124E  00F1               	movwf	?_adc_conversion+1
  8413     124F  1683               	bsf	3,5	;RP0=1, select bank1
  8414     1250  1303               	bcf	3,6	;RP1=0, select bank1
  8415     1251  081E               	movf	30,w	;volatile
  8416     1252  00F0               	movwf	?_adc_conversion
  8417     1253                     l267:
  8418     1253  0008               	return
  8419     1254                     __end_of_adc_conversion:
  8420                           
  8421                           	psect	text24
  8422     1378                     __ptext24:	
  8423 ;; *************** function _function_bloqueado *****************
  8424 ;; Defined at:
  8425 ;;		line 334 in file "mainseguridad.c"
  8426 ;; Parameters:    Size  Location     Type
  8427 ;;		None
  8428 ;; Auto vars:     Size  Location     Type
  8429 ;;		None
  8430 ;; Return value:  Size  Location     Type
  8431 ;;                  1    wreg      void 
  8432 ;; Registers used:
  8433 ;;		wreg, fsr0l, fsr0h, status,2, status,0, btemp+1, pclath, cstack
  8434 ;; Tracked objects:
  8435 ;;		On entry : 0/0
  8436 ;;		On exit  : 0/0
  8437 ;;		Unchanged: 0/0
  8438 ;; Data sizes:     COMMON   BANK0   BANK1   BANK3   BANK2
  8439 ;;      Params:         0       0       0       0       0
  8440 ;;      Locals:         0       0       0       0       0
  8441 ;;      Temps:          3       0       0       0       0
  8442 ;;      Totals:         3       0       0       0       0
  8443 ;;Total ram usage:        3 bytes
  8444 ;; Hardware stack levels used: 1
  8445 ;; Hardware stack levels required when called: 3
  8446 ;; This function calls:
  8447 ;;		_LCD_Clear
  8448 ;;		_LCD_String_xy
  8449 ;; This function is called by:
  8450 ;;		_main
  8451 ;; This function uses a non-reentrant model
  8452 ;;
  8453                           
  8454     1378                     _function_bloqueado:	
  8455                           ;psect for function _function_bloqueado
  8456                           
  8457     1378                     l3371:	
  8458                           ;incstack = 0
  8459                           ; Regs used in _function_bloqueado: [wreg-fsr0h+status,2+status,0+btemp+1+pclath+cstack]
  8460                           
  8461                           
  8462                           ;mainseguridad.c: 335:     LCD_Clear();
  8463     1378  160A  118A  21E9  160A  118A  	fcall	_LCD_Clear
  8464     137D                     l3373:
  8465                           
  8466                           ;mainseguridad.c: 336:     LCD_String_xy(0,0,"sistema");
  8467     137D  01F5               	clrf	LCD_String_xy@pos
  8468     137E  30A8               	movlw	(low ((STR_13-__stringbase)| (0+32768)))& (0+255)
  8469     137F  00F6               	movwf	LCD_String_xy@msg
  8470     1380  3080               	movlw	128
  8471     1381  00F7               	movwf	LCD_String_xy@msg+1
  8472     1382  3000               	movlw	0
  8473     1383  160A  118A  229D  160A  118A  	fcall	_LCD_String_xy
  8474     1388                     l3375:
  8475                           
  8476                           ;mainseguridad.c: 337:     LCD_String_xy(2,0,"bloqueado");
  8477     1388  01F5               	clrf	LCD_String_xy@pos
  8478     1389  309E               	movlw	(low ((STR_14-__stringbase)| (0+32768)))& (0+255)
  8479     138A  00F6               	movwf	LCD_String_xy@msg
  8480     138B  3080               	movlw	128
  8481     138C  00F7               	movwf	LCD_String_xy@msg+1
  8482     138D  3002               	movlw	2
  8483     138E  160A  118A  229D  160A  118A  	fcall	_LCD_String_xy
  8484     1393                     l3377:
  8485                           
  8486                           ;mainseguridad.c: 338:      PORTE = 0x01;
  8487     1393  3001               	movlw	1
  8488     1394  1283               	bcf	3,5	;RP0=0, select bank0
  8489     1395  1303               	bcf	3,6	;RP1=0, select bank0
  8490     1396  0089               	movwf	9	;volatile
  8491     1397                     l3379:
  8492                           
  8493                           ;mainseguridad.c: 339:      idx = 0;
  8494     1397  1683               	bsf	3,5	;RP0=1, select bank1
  8495     1398  1303               	bcf	3,6	;RP1=0, select bank1
  8496     1399  01E4               	clrf	_idx^(0+128)
  8497     139A                     l3381:
  8498                           
  8499                           ;mainseguridad.c: 340:      intentos=0;
  8500     139A  01E0               	clrf	_intentos^(0+128)
  8501     139B                     l3383:
  8502                           
  8503                           ;mainseguridad.c: 341:     _delay((unsigned long)((10000)*(8000000/4000.0)));
  8504     139B  3066               	movlw	102
  8505     139C  00FC               	movwf	??_function_bloqueado+2
  8506     139D  3076               	movlw	118
  8507     139E  00FB               	movwf	??_function_bloqueado+1
  8508     139F  30C1               	movlw	193
  8509     13A0  00FA               	movwf	??_function_bloqueado
  8510     13A1                     u5767:
  8511     13A1  0BFA               	decfsz	??_function_bloqueado,f
  8512     13A2  2BA1               	goto	u5767
  8513     13A3  0BFB               	decfsz	??_function_bloqueado+1,f
  8514     13A4  2BA1               	goto	u5767
  8515     13A5  0BFC               	decfsz	??_function_bloqueado+2,f
  8516     13A6  2BA1               	goto	u5767
  8517     13A7                     l3385:
  8518                           
  8519                           ;mainseguridad.c: 342:     estado = seguridad;
  8520     13A7  1283               	bcf	3,5	;RP0=0, select bank0
  8521     13A8  1303               	bcf	3,6	;RP1=0, select bank0
  8522     13A9  01EF               	clrf	_estado
  8523     13AA                     l258:
  8524     13AA  0008               	return
  8525     13AB                     __end_of_function_bloqueado:
  8526                           
  8527                           	psect	text25
  8528     1346                     __ptext25:	
  8529 ;; *************** function _function_alarma_seguridad *****************
  8530 ;; Defined at:
  8531 ;;		line 287 in file "mainseguridad.c"
  8532 ;; Parameters:    Size  Location     Type
  8533 ;;		None
  8534 ;; Auto vars:     Size  Location     Type
  8535 ;;		None
  8536 ;; Return value:  Size  Location     Type
  8537 ;;                  1    wreg      void 
  8538 ;; Registers used:
  8539 ;;		wreg, fsr0l, fsr0h, status,2, status,0, btemp+1, pclath, cstack
  8540 ;; Tracked objects:
  8541 ;;		On entry : 0/0
  8542 ;;		On exit  : 0/0
  8543 ;;		Unchanged: 0/0
  8544 ;; Data sizes:     COMMON   BANK0   BANK1   BANK3   BANK2
  8545 ;;      Params:         0       0       0       0       0
  8546 ;;      Locals:         0       0       0       0       0
  8547 ;;      Temps:          3       0       0       0       0
  8548 ;;      Totals:         3       0       0       0       0
  8549 ;;Total ram usage:        3 bytes
  8550 ;; Hardware stack levels used: 1
  8551 ;; Hardware stack levels required when called: 3
  8552 ;; This function calls:
  8553 ;;		_LCD_Clear
  8554 ;;		_LCD_String_xy
  8555 ;;		_blink_led
  8556 ;; This function is called by:
  8557 ;;		_main
  8558 ;; This function uses a non-reentrant model
  8559 ;;
  8560                           
  8561     1346                     _function_alarma_seguridad:	
  8562                           ;psect for function _function_alarma_seguridad
  8563                           
  8564     1346                     l3387:	
  8565                           ;incstack = 0
  8566                           ; Regs used in _function_alarma_seguridad: [wreg-fsr0h+status,2+status,0+btemp+1+pclath+
      +                          cstack]
  8567                           
  8568                           
  8569                           ;mainseguridad.c: 288:     LCD_Clear();
  8570     1346  160A  118A  21E9  160A  118A  	fcall	_LCD_Clear
  8571     134B                     l3389:
  8572                           
  8573                           ;mainseguridad.c: 289:     LCD_String_xy(0,0,"Alarma");
  8574     134B  01F5               	clrf	LCD_String_xy@pos
  8575     134C  30B0               	movlw	(low ((STR_9-__stringbase)| (0+32768)))& (0+255)
  8576     134D  00F6               	movwf	LCD_String_xy@msg
  8577     134E  3080               	movlw	128
  8578     134F  00F7               	movwf	LCD_String_xy@msg+1
  8579     1350  3000               	movlw	0
  8580     1351  160A  118A  229D  160A  118A  	fcall	_LCD_String_xy
  8581     1356                     l3391:
  8582                           
  8583                           ;mainseguridad.c: 290:     LCD_String_xy(2,0,"Seguridad");
  8584     1356  01F5               	clrf	LCD_String_xy@pos
  8585     1357  308A               	movlw	(low ((STR_10-__stringbase)| (0+32768)))& (0+255)
  8586     1358  00F6               	movwf	LCD_String_xy@msg
  8587     1359  3080               	movlw	128
  8588     135A  00F7               	movwf	LCD_String_xy@msg+1
  8589     135B  3002               	movlw	2
  8590     135C  160A  118A  229D  160A  118A  	fcall	_LCD_String_xy
  8591                           
  8592                           ;mainseguridad.c: 291:     blink_led();
  8593     1361  160A  118A  2254  160A  118A  	fcall	_blink_led
  8594     1366                     l3393:
  8595                           
  8596                           ;mainseguridad.c: 292:     _delay((unsigned long)((5000)*(8000000/4000.0)));
  8597     1366  3033               	movlw	51
  8598     1367  00FC               	movwf	??_function_alarma_seguridad+2
  8599     1368  30BB               	movlw	187
  8600     1369  00FB               	movwf	??_function_alarma_seguridad+1
  8601     136A  30DF               	movlw	223
  8602     136B  00FA               	movwf	??_function_alarma_seguridad
  8603     136C                     u5777:
  8604     136C  0BFA               	decfsz	??_function_alarma_seguridad,f
  8605     136D  2B6C               	goto	u5777
  8606     136E  0BFB               	decfsz	??_function_alarma_seguridad+1,f
  8607     136F  2B6C               	goto	u5777
  8608     1370  0BFC               	decfsz	??_function_alarma_seguridad+2,f
  8609     1371  2B6C               	goto	u5777
  8610     1372  2B73               	nop2
  8611     1373                     l3395:
  8612                           
  8613                           ;mainseguridad.c: 293:     estado = monitoreo_digital;
  8614     1373  1283               	bcf	3,5	;RP0=0, select bank0
  8615     1374  1303               	bcf	3,6	;RP1=0, select bank0
  8616     1375  01EF               	clrf	_estado
  8617     1376  0AEF               	incf	_estado,f
  8618     1377                     l252:
  8619     1377  0008               	return
  8620     1378                     __end_of_function_alarma_seguridad:
  8621                           
  8622                           	psect	text26
  8623     1314                     __ptext26:	
  8624 ;; *************** function _function_alarma_ambiental *****************
  8625 ;; Defined at:
  8626 ;;		line 310 in file "mainseguridad.c"
  8627 ;; Parameters:    Size  Location     Type
  8628 ;;		None
  8629 ;; Auto vars:     Size  Location     Type
  8630 ;;		None
  8631 ;; Return value:  Size  Location     Type
  8632 ;;                  1    wreg      void 
  8633 ;; Registers used:
  8634 ;;		wreg, fsr0l, fsr0h, status,2, status,0, btemp+1, pclath, cstack
  8635 ;; Tracked objects:
  8636 ;;		On entry : 0/0
  8637 ;;		On exit  : 0/0
  8638 ;;		Unchanged: 0/0
  8639 ;; Data sizes:     COMMON   BANK0   BANK1   BANK3   BANK2
  8640 ;;      Params:         0       0       0       0       0
  8641 ;;      Locals:         0       0       0       0       0
  8642 ;;      Temps:          3       0       0       0       0
  8643 ;;      Totals:         3       0       0       0       0
  8644 ;;Total ram usage:        3 bytes
  8645 ;; Hardware stack levels used: 1
  8646 ;; Hardware stack levels required when called: 3
  8647 ;; This function calls:
  8648 ;;		_LCD_Clear
  8649 ;;		_LCD_String_xy
  8650 ;;		_blink_led
  8651 ;; This function is called by:
  8652 ;;		_main
  8653 ;; This function uses a non-reentrant model
  8654 ;;
  8655                           
  8656     1314                     _function_alarma_ambiental:	
  8657                           ;psect for function _function_alarma_ambiental
  8658                           
  8659     1314                     l3423:	
  8660                           ;incstack = 0
  8661                           ; Regs used in _function_alarma_ambiental: [wreg-fsr0h+status,2+status,0+btemp+1+pclath+
      +                          cstack]
  8662                           
  8663                           
  8664                           ;mainseguridad.c: 311:     LCD_Clear();
  8665     1314  160A  118A  21E9  160A  118A  	fcall	_LCD_Clear
  8666     1319                     l3425:
  8667                           
  8668                           ;mainseguridad.c: 312:     LCD_String_xy(0,0,"Alarma");
  8669     1319  01F5               	clrf	LCD_String_xy@pos
  8670     131A  30B0               	movlw	(low ((STR_9-__stringbase)| (0+32768)))& (0+255)
  8671     131B  00F6               	movwf	LCD_String_xy@msg
  8672     131C  3080               	movlw	128
  8673     131D  00F7               	movwf	LCD_String_xy@msg+1
  8674     131E  3000               	movlw	0
  8675     131F  160A  118A  229D  160A  118A  	fcall	_LCD_String_xy
  8676     1324                     l3427:
  8677                           
  8678                           ;mainseguridad.c: 313:     LCD_String_xy(2,0,"Ambiental");
  8679     1324  01F5               	clrf	LCD_String_xy@pos
  8680     1325  3094               	movlw	(low ((STR_12-__stringbase)| (0+32768)))& (0+255)
  8681     1326  00F6               	movwf	LCD_String_xy@msg
  8682     1327  3080               	movlw	128
  8683     1328  00F7               	movwf	LCD_String_xy@msg+1
  8684     1329  3002               	movlw	2
  8685     132A  160A  118A  229D  160A  118A  	fcall	_LCD_String_xy
  8686                           
  8687                           ;mainseguridad.c: 314:     blink_led();
  8688     132F  160A  118A  2254  160A  118A  	fcall	_blink_led
  8689     1334                     l3429:
  8690                           
  8691                           ;mainseguridad.c: 315:     _delay((unsigned long)((5000)*(8000000/4000.0)));
  8692     1334  3033               	movlw	51
  8693     1335  00FC               	movwf	??_function_alarma_ambiental+2
  8694     1336  30BB               	movlw	187
  8695     1337  00FB               	movwf	??_function_alarma_ambiental+1
  8696     1338  30DF               	movlw	223
  8697     1339  00FA               	movwf	??_function_alarma_ambiental
  8698     133A                     u5787:
  8699     133A  0BFA               	decfsz	??_function_alarma_ambiental,f
  8700     133B  2B3A               	goto	u5787
  8701     133C  0BFB               	decfsz	??_function_alarma_ambiental+1,f
  8702     133D  2B3A               	goto	u5787
  8703     133E  0BFC               	decfsz	??_function_alarma_ambiental+2,f
  8704     133F  2B3A               	goto	u5787
  8705     1340  2B41               	nop2
  8706     1341                     l3431:
  8707                           
  8708                           ;mainseguridad.c: 316:     estado = monitoreo_ambiental;
  8709     1341  3002               	movlw	2
  8710     1342  1283               	bcf	3,5	;RP0=0, select bank0
  8711     1343  1303               	bcf	3,6	;RP1=0, select bank0
  8712     1344  00EF               	movwf	_estado
  8713     1345                     l255:
  8714     1345  0008               	return
  8715     1346                     __end_of_function_alarma_ambiental:
  8716                           
  8717                           	psect	text27
  8718     1254                     __ptext27:	
  8719 ;; *************** function _blink_led *****************
  8720 ;; Defined at:
  8721 ;;		line 65 in file "sensor.c"
  8722 ;; Parameters:    Size  Location     Type
  8723 ;;		None
  8724 ;; Auto vars:     Size  Location     Type
  8725 ;;		None
  8726 ;; Return value:  Size  Location     Type
  8727 ;;                  1    wreg      void 
  8728 ;; Registers used:
  8729 ;;		wreg, status,2
  8730 ;; Tracked objects:
  8731 ;;		On entry : 0/0
  8732 ;;		On exit  : 0/0
  8733 ;;		Unchanged: 0/0
  8734 ;; Data sizes:     COMMON   BANK0   BANK1   BANK3   BANK2
  8735 ;;      Params:         0       0       0       0       0
  8736 ;;      Locals:         0       0       0       0       0
  8737 ;;      Temps:          3       0       0       0       0
  8738 ;;      Totals:         3       0       0       0       0
  8739 ;;Total ram usage:        3 bytes
  8740 ;; Hardware stack levels used: 1
  8741 ;; This function calls:
  8742 ;;		Nothing
  8743 ;; This function is called by:
  8744 ;;		_function_alarma_seguridad
  8745 ;;		_function_alarma_ambiental
  8746 ;; This function uses a non-reentrant model
  8747 ;;
  8748                           
  8749     1254                     _blink_led:	
  8750                           ;psect for function _blink_led
  8751                           
  8752     1254                     l289:	
  8753                           ;incstack = 0
  8754                           ; Regs used in _blink_led: [wreg+status,2]
  8755                           ;sensor.c: 66:     while (1) {
  8756                           
  8757     1254                     l3275:
  8758                           
  8759                           ;sensor.c: 67:        PORTE = 0x01;
  8760     1254  3001               	movlw	1
  8761     1255  1283               	bcf	3,5	;RP0=0, select bank0
  8762     1256  1303               	bcf	3,6	;RP1=0, select bank0
  8763     1257  0089               	movwf	9	;volatile
  8764                           
  8765                           ;sensor.c: 68:         _delay((unsigned long)((1000)*(8000000/4000.0)));
  8766     1258  300B               	movlw	11
  8767     1259  00F2               	movwf	??_blink_led+2
  8768     125A  3026               	movlw	38
  8769     125B  00F1               	movwf	??_blink_led+1
  8770     125C  305D               	movlw	93
  8771     125D  00F0               	movwf	??_blink_led
  8772     125E                     u5797:
  8773     125E  0BF0               	decfsz	??_blink_led,f
  8774     125F  2A5E               	goto	u5797
  8775     1260  0BF1               	decfsz	??_blink_led+1,f
  8776     1261  2A5E               	goto	u5797
  8777     1262  0BF2               	decfsz	??_blink_led+2,f
  8778     1263  2A5E               	goto	u5797
  8779     1264  2A65               	nop2
  8780     1265                     l3277:
  8781                           
  8782                           ;sensor.c: 69:         PORTE = 0x00;
  8783     1265  1283               	bcf	3,5	;RP0=0, select bank0
  8784     1266  1303               	bcf	3,6	;RP1=0, select bank0
  8785     1267  0189               	clrf	9	;volatile
  8786     1268                     l3279:
  8787                           
  8788                           ;sensor.c: 70:         _delay((unsigned long)((1000)*(8000000/4000.0)));
  8789     1268  300B               	movlw	11
  8790     1269  00F2               	movwf	??_blink_led+2
  8791     126A  3026               	movlw	38
  8792     126B  00F1               	movwf	??_blink_led+1
  8793     126C  305D               	movlw	93
  8794     126D  00F0               	movwf	??_blink_led
  8795     126E                     u5807:
  8796     126E  0BF0               	decfsz	??_blink_led,f
  8797     126F  2A6E               	goto	u5807
  8798     1270  0BF1               	decfsz	??_blink_led+1,f
  8799     1271  2A6E               	goto	u5807
  8800     1272  0BF2               	decfsz	??_blink_led+2,f
  8801     1273  2A6E               	goto	u5807
  8802     1274  2A75               	nop2
  8803     1275  2A54               	goto	l289
  8804     1276  0008               	return
  8805     1277                     __end_of_blink_led:
  8806                           
  8807                           	psect	text28
  8808     129D                     __ptext28:	
  8809 ;; *************** function _LCD_String_xy *****************
  8810 ;; Defined at:
  8811 ;;		line 145 in file "lcd.c"
  8812 ;; Parameters:    Size  Location     Type
  8813 ;;  row             1    wreg     unsigned char 
  8814 ;;  pos             1    5[COMMON] unsigned char 
  8815 ;;  msg             2    6[COMMON] PTR const unsigned char 
  8816 ;;		 -> STR_14(10), STR_13(8), STR_12(10), STR_11(7), 
  8817 ;;		 -> STR_10(10), STR_9(7), STR_8(17), STR_7(15), 
  8818 ;;		 -> STR_6(14), buffer(17), STR_2(12), STR_1(5), 
  8819 ;; Auto vars:     Size  Location     Type
  8820 ;;  row             1    8[COMMON] unsigned char 
  8821 ;;  location        1    9[COMMON] unsigned char 
  8822 ;; Return value:  Size  Location     Type
  8823 ;;                  1    wreg      void 
  8824 ;; Registers used:
  8825 ;;		wreg, fsr0l, fsr0h, status,2, status,0, btemp+1, pclath, cstack
  8826 ;; Tracked objects:
  8827 ;;		On entry : 0/0
  8828 ;;		On exit  : 0/0
  8829 ;;		Unchanged: 0/0
  8830 ;; Data sizes:     COMMON   BANK0   BANK1   BANK3   BANK2
  8831 ;;      Params:         3       0       0       0       0
  8832 ;;      Locals:         2       0       0       0       0
  8833 ;;      Temps:          0       0       0       0       0
  8834 ;;      Totals:         5       0       0       0       0
  8835 ;;Total ram usage:        5 bytes
  8836 ;; Hardware stack levels used: 1
  8837 ;; Hardware stack levels required when called: 2
  8838 ;; This function calls:
  8839 ;;		_LCD_Command
  8840 ;;		_LCD_String
  8841 ;; This function is called by:
  8842 ;;		_main
  8843 ;;		_function_monitoreo_digital
  8844 ;;		_function_monitoreo_ambiental
  8845 ;;		_function_seguridad
  8846 ;;		_function_alarma_seguridad
  8847 ;;		_function_alarma_ambiental
  8848 ;;		_function_bloqueado
  8849 ;; This function uses a non-reentrant model
  8850 ;;
  8851                           
  8852     129D                     _LCD_String_xy:	
  8853                           ;psect for function _LCD_String_xy
  8854                           
  8855                           
  8856                           ;incstack = 0
  8857                           ; Regs used in _LCD_String_xy: [wreg-fsr0h+status,2+status,0+btemp+1+pclath+cstack]
  8858                           ;LCD_String_xy@row stored from wreg
  8859     129D  00F8               	movwf	LCD_String_xy@row
  8860     129E                     l3023:
  8861     129E                     l3025:
  8862                           
  8863                           ;lcd.c: 148:     if(row<=1)
  8864     129E  3002               	movlw	2
  8865     129F  0278               	subwf	LCD_String_xy@row,w
  8866     12A0  1803               	skipnc
  8867     12A1  2AA3               	goto	u3921
  8868     12A2  2AA4               	goto	u3920
  8869     12A3                     u3921:
  8870     12A3  2AAF               	goto	l3031
  8871     12A4                     u3920:
  8872     12A4                     l3027:
  8873                           
  8874                           ;lcd.c: 149:     {;lcd.c: 150:         location=(0x80) | ((pos) & 0x0f);
  8875     12A4  0875               	movf	LCD_String_xy@pos,w
  8876     12A5  390F               	andlw	15
  8877     12A6  3880               	iorlw	128
  8878     12A7  00F9               	movwf	LCD_String_xy@location
  8879     12A8                     l3029:
  8880                           
  8881                           ;lcd.c: 151:         LCD_Command(location);
  8882     12A8  0879               	movf	LCD_String_xy@location,w
  8883     12A9  160A  118A  23AB  160A  118A  	fcall	_LCD_Command
  8884                           
  8885                           ;lcd.c: 152:     }
  8886     12AE  2AB9               	goto	l3035
  8887     12AF                     l3031:
  8888                           
  8889                           ;lcd.c: 154:     {;lcd.c: 155:         location=(0xC0) | ((pos) & 0x0f);
  8890     12AF  0875               	movf	LCD_String_xy@pos,w
  8891     12B0  390F               	andlw	15
  8892     12B1  38C0               	iorlw	192
  8893     12B2  00F9               	movwf	LCD_String_xy@location
  8894     12B3                     l3033:
  8895                           
  8896                           ;lcd.c: 156:         LCD_Command(location);
  8897     12B3  0879               	movf	LCD_String_xy@location,w
  8898     12B4  160A  118A  23AB  160A  118A  	fcall	_LCD_Command
  8899     12B9                     l3035:
  8900                           
  8901                           ;lcd.c: 160:     LCD_String(msg);
  8902     12B9  0876               	movf	LCD_String_xy@msg,w
  8903     12BA  00F3               	movwf	LCD_String@msg
  8904     12BB  0877               	movf	LCD_String_xy@msg+1,w
  8905     12BC  00F4               	movwf	LCD_String@msg+1
  8906     12BD  160A  118A  2277  160A  118A  	fcall	_LCD_String
  8907     12C2                     l34:
  8908     12C2  0008               	return
  8909     12C3                     __end_of_LCD_String_xy:
  8910                           
  8911                           	psect	text29
  8912     1277                     __ptext29:	
  8913 ;; *************** function _LCD_String *****************
  8914 ;; Defined at:
  8915 ;;		line 120 in file "lcd.c"
  8916 ;; Parameters:    Size  Location     Type
  8917 ;;  msg             2    3[COMMON] PTR const unsigned char 
  8918 ;;		 -> STR_14(10), STR_13(8), STR_12(10), STR_11(7), 
  8919 ;;		 -> STR_10(10), STR_9(7), STR_8(17), STR_7(15), 
  8920 ;;		 -> STR_6(14), buffer(17), STR_2(12), STR_1(5), 
  8921 ;; Auto vars:     Size  Location     Type
  8922 ;;		None
  8923 ;; Return value:  Size  Location     Type
  8924 ;;                  1    wreg      void 
  8925 ;; Registers used:
  8926 ;;		wreg, fsr0l, fsr0h, status,2, status,0, btemp+1, pclath, cstack
  8927 ;; Tracked objects:
  8928 ;;		On entry : 0/0
  8929 ;;		On exit  : 0/0
  8930 ;;		Unchanged: 0/0
  8931 ;; Data sizes:     COMMON   BANK0   BANK1   BANK3   BANK2
  8932 ;;      Params:         2       0       0       0       0
  8933 ;;      Locals:         0       0       0       0       0
  8934 ;;      Temps:          0       0       0       0       0
  8935 ;;      Totals:         2       0       0       0       0
  8936 ;;Total ram usage:        2 bytes
  8937 ;; Hardware stack levels used: 1
  8938 ;; Hardware stack levels required when called: 1
  8939 ;; This function calls:
  8940 ;;		_LCD_Char
  8941 ;; This function is called by:
  8942 ;;		_LCD_String_xy
  8943 ;; This function uses a non-reentrant model
  8944 ;;
  8945                           
  8946     1277                     _LCD_String:	
  8947                           ;psect for function _LCD_String
  8948                           
  8949     1277                     l2761:	
  8950                           ;incstack = 0
  8951                           ; Regs used in _LCD_String: [wreg-fsr0h+status,2+status,0+btemp+1+pclath+cstack]
  8952                           
  8953                           
  8954                           ;lcd.c: 120: void LCD_String(const char *msg);lcd.c: 121: {;lcd.c: 122:  while((*msg)!=0
      +                          )
  8955     1277  2A8C               	goto	l2767
  8956     1278                     l2763:
  8957                           
  8958                           ;lcd.c: 123:  {;lcd.c: 124:    LCD_Char(*msg);
  8959     1278  0874               	movf	LCD_String@msg+1,w
  8960     1279  00FF               	movwf	btemp+1
  8961     127A  0873               	movf	LCD_String@msg,w
  8962     127B  0084               	movwf	4
  8963     127C  120A  158A  2000  160A  118A  	fcall	stringtab
  8964     1281  160A  118A  23E1  160A  118A  	fcall	_LCD_Char
  8965     1286                     l2765:
  8966                           
  8967                           ;lcd.c: 125:    msg++;
  8968     1286  3001               	movlw	1
  8969     1287  07F3               	addwf	LCD_String@msg,f
  8970     1288  1803               	skipnc
  8971     1289  0AF4               	incf	LCD_String@msg+1,f
  8972     128A  3000               	movlw	0
  8973     128B  07F4               	addwf	LCD_String@msg+1,f
  8974     128C                     l2767:
  8975                           
  8976                           ;lcd.c: 122:  while((*msg)!=0)
  8977     128C  0874               	movf	LCD_String@msg+1,w
  8978     128D  1283               	bcf	3,5	;RP0=0, select bank0
  8979     128E  1303               	bcf	3,6	;RP1=0, select bank0
  8980     128F  00FF               	movwf	btemp+1
  8981     1290  0873               	movf	LCD_String@msg,w
  8982     1291  0084               	movwf	4
  8983     1292  120A  158A  2000  160A  118A  	fcall	stringtab
  8984     1297  3A00               	xorlw	0
  8985     1298  1D03               	skipz
  8986     1299  2A9B               	goto	u3371
  8987     129A  2A9C               	goto	u3370
  8988     129B                     u3371:
  8989     129B  2A78               	goto	l2763
  8990     129C                     u3370:
  8991     129C                     l29:
  8992     129C  0008               	return
  8993     129D                     __end_of_LCD_String:
  8994                           
  8995                           	psect	text30
  8996     13E1                     __ptext30:	
  8997 ;; *************** function _LCD_Char *****************
  8998 ;; Defined at:
  8999 ;;		line 90 in file "lcd.c"
  9000 ;; Parameters:    Size  Location     Type
  9001 ;;  dat             1    wreg     unsigned char 
  9002 ;; Auto vars:     Size  Location     Type
  9003 ;;  dat             1    2[COMMON] unsigned char 
  9004 ;; Return value:  Size  Location     Type
  9005 ;;                  1    wreg      void 
  9006 ;; Registers used:
  9007 ;;		wreg, status,2, status,0
  9008 ;; Tracked objects:
  9009 ;;		On entry : 0/0
  9010 ;;		On exit  : 0/0
  9011 ;;		Unchanged: 0/0
  9012 ;; Data sizes:     COMMON   BANK0   BANK1   BANK3   BANK2
  9013 ;;      Params:         0       0       0       0       0
  9014 ;;      Locals:         1       0       0       0       0
  9015 ;;      Temps:          2       0       0       0       0
  9016 ;;      Totals:         3       0       0       0       0
  9017 ;;Total ram usage:        3 bytes
  9018 ;; Hardware stack levels used: 1
  9019 ;; This function calls:
  9020 ;;		Nothing
  9021 ;; This function is called by:
  9022 ;;		_LCD_String
  9023 ;;		_function_seguridad
  9024 ;; This function uses a non-reentrant model
  9025 ;;
  9026                           
  9027     13E1                     _LCD_Char:	
  9028                           ;psect for function _LCD_Char
  9029                           
  9030                           
  9031                           ;incstack = 0
  9032                           ; Regs used in _LCD_Char: [wreg+status,2+status,0]
  9033                           ;LCD_Char@dat stored from wreg
  9034     13E1  00F2               	movwf	LCD_Char@dat
  9035     13E2                     l2623:
  9036                           
  9037                           ;lcd.c: 90: void LCD_Char(unsigned char dat);lcd.c: 91: {;lcd.c: 92:  PORTD = (PORTD & 0
      +                          x0f) | (0xF0 & dat);
  9038     13E2  30F0               	movlw	240
  9039     13E3  0572               	andwf	LCD_Char@dat,w
  9040     13E4  00F0               	movwf	??_LCD_Char
  9041     13E5  1283               	bcf	3,5	;RP0=0, select bank0
  9042     13E6  1303               	bcf	3,6	;RP1=0, select bank0
  9043     13E7  0808               	movf	8,w	;volatile
  9044     13E8  390F               	andlw	15
  9045     13E9  0470               	iorwf	??_LCD_Char,w
  9046     13EA  0088               	movwf	8	;volatile
  9047     13EB                     l2625:
  9048                           
  9049                           ;lcd.c: 93:  RD0 = 1;
  9050     13EB  1408               	bsf	8,0	;volatile
  9051     13EC                     l2627:
  9052                           
  9053                           ;lcd.c: 94:  RD1 = 1;
  9054     13EC  1488               	bsf	8,1	;volatile
  9055     13ED                     l2629:
  9056                           
  9057                           ;lcd.c: 95:  __nop();
  9058     13ED  0000               	nop
  9059     13EE                     l2631:
  9060                           
  9061                           ;lcd.c: 96:  RD1 = 0;
  9062     13EE  1283               	bcf	3,5	;RP0=0, select bank0
  9063     13EF  1303               	bcf	3,6	;RP1=0, select bank0
  9064     13F0  1088               	bcf	8,1	;volatile
  9065     13F1                     l2633:
  9066                           
  9067                           ;lcd.c: 97:  _delay((unsigned long)((1)*(8000000/4000.0)));
  9068     13F1  3003               	movlw	3
  9069     13F2  00F1               	movwf	??_LCD_Char+1
  9070     13F3  3097               	movlw	151
  9071     13F4  00F0               	movwf	??_LCD_Char
  9072     13F5                     u5817:
  9073     13F5  0BF0               	decfsz	??_LCD_Char,f
  9074     13F6  2BF5               	goto	u5817
  9075     13F7  0BF1               	decfsz	??_LCD_Char+1,f
  9076     13F8  2BF5               	goto	u5817
  9077     13F9  2BFA               	nop2
  9078     13FA                     l2635:
  9079                           
  9080                           ;lcd.c: 98:     PORTD = (unsigned char)((PORTD & 0x0f) | (dat<<4));
  9081     13FA  0872               	movf	LCD_Char@dat,w
  9082     13FB  00F0               	movwf	??_LCD_Char
  9083     13FC  3004               	movlw	4
  9084     13FD                     u3105:
  9085     13FD  1003               	clrc
  9086     13FE  0DF0               	rlf	??_LCD_Char,f
  9087     13FF  3EFF               	addlw	-1
  9088     1400  1D03               	skipz
  9089     1401  2BFD               	goto	u3105
  9090     1402  1283               	bcf	3,5	;RP0=0, select bank0
  9091     1403  1303               	bcf	3,6	;RP1=0, select bank0
  9092     1404  0808               	movf	8,w	;volatile
  9093     1405  390F               	andlw	15
  9094     1406  0470               	iorwf	??_LCD_Char,w
  9095     1407  0088               	movwf	8	;volatile
  9096     1408                     l2637:
  9097                           
  9098                           ;lcd.c: 99:  RD1 = 1;
  9099     1408  1488               	bsf	8,1	;volatile
  9100     1409                     l2639:
  9101                           
  9102                           ;lcd.c: 100:  __nop();
  9103     1409  0000               	nop
  9104     140A                     l2641:
  9105                           
  9106                           ;lcd.c: 101:  RD1 = 0;
  9107     140A  1283               	bcf	3,5	;RP0=0, select bank0
  9108     140B  1303               	bcf	3,6	;RP1=0, select bank0
  9109     140C  1088               	bcf	8,1	;volatile
  9110                           
  9111                           ;lcd.c: 102:  _delay((unsigned long)((3)*(8000000/4000.0)));
  9112     140D  3008               	movlw	8
  9113     140E  00F1               	movwf	??_LCD_Char+1
  9114     140F  30C9               	movlw	201
  9115     1410  00F0               	movwf	??_LCD_Char
  9116     1411                     u5827:
  9117     1411  0BF0               	decfsz	??_LCD_Char,f
  9118     1412  2C11               	goto	u5827
  9119     1413  0BF1               	decfsz	??_LCD_Char+1,f
  9120     1414  2C11               	goto	u5827
  9121     1415  2C16               	nop2
  9122     1416                     l23:
  9123     1416  0008               	return
  9124     1417                     __end_of_LCD_Char:
  9125                           
  9126                           	psect	text31
  9127     11E9                     __ptext31:	
  9128 ;; *************** function _LCD_Clear *****************
  9129 ;; Defined at:
  9130 ;;		line 177 in file "lcd.c"
  9131 ;; Parameters:    Size  Location     Type
  9132 ;;		None
  9133 ;; Auto vars:     Size  Location     Type
  9134 ;;		None
  9135 ;; Return value:  Size  Location     Type
  9136 ;;                  1    wreg      void 
  9137 ;; Registers used:
  9138 ;;		wreg, status,2, status,0, pclath, cstack
  9139 ;; Tracked objects:
  9140 ;;		On entry : 0/0
  9141 ;;		On exit  : 0/0
  9142 ;;		Unchanged: 0/0
  9143 ;; Data sizes:     COMMON   BANK0   BANK1   BANK3   BANK2
  9144 ;;      Params:         0       0       0       0       0
  9145 ;;      Locals:         0       0       0       0       0
  9146 ;;      Temps:          2       0       0       0       0
  9147 ;;      Totals:         2       0       0       0       0
  9148 ;;Total ram usage:        2 bytes
  9149 ;; Hardware stack levels used: 1
  9150 ;; Hardware stack levels required when called: 1
  9151 ;; This function calls:
  9152 ;;		_LCD_Command
  9153 ;; This function is called by:
  9154 ;;		_function_monitoreo_digital
  9155 ;;		_function_seguridad
  9156 ;;		_function_alarma_seguridad
  9157 ;;		_function_alarma_ambiental
  9158 ;;		_function_bloqueado
  9159 ;; This function uses a non-reentrant model
  9160 ;;
  9161                           
  9162     11E9                     _LCD_Clear:	
  9163                           ;psect for function _LCD_Clear
  9164                           
  9165     11E9                     l3037:	
  9166                           ;incstack = 0
  9167                           ; Regs used in _LCD_Clear: [wreg+status,2+status,0+pclath+cstack]
  9168                           
  9169                           
  9170                           ;lcd.c: 179:     LCD_Command(0x01);
  9171     11E9  3001               	movlw	1
  9172     11EA  160A  118A  23AB  160A  118A  	fcall	_LCD_Command
  9173     11EF                     l3039:
  9174                           
  9175                           ;lcd.c: 180:     _delay((unsigned long)((3)*(8000000/4000.0)));
  9176     11EF  3008               	movlw	8
  9177     11F0  00F4               	movwf	??_LCD_Clear+1
  9178     11F1  30C9               	movlw	201
  9179     11F2  00F3               	movwf	??_LCD_Clear
  9180     11F3                     u5837:
  9181     11F3  0BF3               	decfsz	??_LCD_Clear,f
  9182     11F4  29F3               	goto	u5837
  9183     11F5  0BF4               	decfsz	??_LCD_Clear+1,f
  9184     11F6  29F3               	goto	u5837
  9185     11F7  29F8               	nop2
  9186     11F8                     l37:
  9187     11F8  0008               	return
  9188     11F9                     __end_of_LCD_Clear:
  9189                           
  9190                           	psect	text32
  9191     0003                     __ptext32:	
  9192 ;; *************** function _adc_begin *****************
  9193 ;; Defined at:
  9194 ;;		line 359 in file "mainseguridad.c"
  9195 ;; Parameters:    Size  Location     Type
  9196 ;;		None
  9197 ;; Auto vars:     Size  Location     Type
  9198 ;;		None
  9199 ;; Return value:  Size  Location     Type
  9200 ;;                  1    wreg      void 
  9201 ;; Registers used:
  9202 ;;		wreg, status,2, status,0
  9203 ;; Tracked objects:
  9204 ;;		On entry : 0/0
  9205 ;;		On exit  : 0/0
  9206 ;;		Unchanged: 0/0
  9207 ;; Data sizes:     COMMON   BANK0   BANK1   BANK3   BANK2
  9208 ;;      Params:         0       0       0       0       0
  9209 ;;      Locals:         0       0       0       0       0
  9210 ;;      Temps:          0       0       0       0       0
  9211 ;;      Totals:         0       0       0       0       0
  9212 ;;Total ram usage:        0 bytes
  9213 ;; Hardware stack levels used: 1
  9214 ;; This function calls:
  9215 ;;		Nothing
  9216 ;; This function is called by:
  9217 ;;		_main
  9218 ;; This function uses a non-reentrant model
  9219 ;;
  9220                           
  9221     0003                     _adc_begin:	
  9222                           ;psect for function _adc_begin
  9223                           
  9224     0003                     l3301:	
  9225                           ;incstack = 0
  9226                           ; Regs used in _adc_begin: [wreg+status,2+status,0]
  9227                           
  9228                           
  9229                           ;mainseguridad.c: 360:     ADCON1bits.ADFM = 1;
  9230     0003  1683               	bsf	3,5	;RP0=1, select bank1
  9231     0004  1303               	bcf	3,6	;RP1=0, select bank1
  9232     0005  179F               	bsf	31,7	;volatile
  9233                           
  9234                           ;mainseguridad.c: 361:     ADCON1bits.VCFG0 = 0;
  9235     0006  121F               	bcf	31,4	;volatile
  9236                           
  9237                           ;mainseguridad.c: 362:     ADCON1bits.VCFG1 = 0;
  9238     0007  129F               	bcf	31,5	;volatile
  9239     0008                     l3303:
  9240                           
  9241                           ;mainseguridad.c: 363:     ADCON0bits.ADCS = 0b01;
  9242     0008  1283               	bcf	3,5	;RP0=0, select bank0
  9243     0009  1303               	bcf	3,6	;RP1=0, select bank0
  9244     000A  081F               	movf	31,w	;volatile
  9245     000B  393F               	andlw	-193
  9246     000C  3840               	iorlw	64
  9247     000D  009F               	movwf	31	;volatile
  9248     000E                     l261:
  9249     000E  0008               	return
  9250     000F                     __end_of_adc_begin:
  9251                           
  9252                           	psect	text33
  9253     12EA                     __ptext33:	
  9254 ;; *************** function _LCD_Init *****************
  9255 ;; Defined at:
  9256 ;;		line 37 in file "lcd.c"
  9257 ;; Parameters:    Size  Location     Type
  9258 ;;		None
  9259 ;; Auto vars:     Size  Location     Type
  9260 ;;		None
  9261 ;; Return value:  Size  Location     Type
  9262 ;;                  1    wreg      void 
  9263 ;; Registers used:
  9264 ;;		wreg, status,2, status,0, pclath, cstack
  9265 ;; Tracked objects:
  9266 ;;		On entry : 0/0
  9267 ;;		On exit  : 0/0
  9268 ;;		Unchanged: 0/0
  9269 ;; Data sizes:     COMMON   BANK0   BANK1   BANK3   BANK2
  9270 ;;      Params:         0       0       0       0       0
  9271 ;;      Locals:         0       0       0       0       0
  9272 ;;      Temps:          2       0       0       0       0
  9273 ;;      Totals:         2       0       0       0       0
  9274 ;;Total ram usage:        2 bytes
  9275 ;; Hardware stack levels used: 1
  9276 ;; Hardware stack levels required when called: 1
  9277 ;; This function calls:
  9278 ;;		_LCD_Command
  9279 ;; This function is called by:
  9280 ;;		_main
  9281 ;; This function uses a non-reentrant model
  9282 ;;
  9283                           
  9284     12EA                     _LCD_Init:	
  9285                           ;psect for function _LCD_Init
  9286                           
  9287     12EA                     l3281:	
  9288                           ;incstack = 0
  9289                           ; Regs used in _LCD_Init: [wreg+status,2+status,0+pclath+cstack]
  9290                           
  9291                           
  9292                           ;lcd.c: 39:     TRISD = 0;
  9293     12EA  1683               	bsf	3,5	;RP0=1, select bank1
  9294     12EB  1303               	bcf	3,6	;RP1=0, select bank1
  9295     12EC  0188               	clrf	8	;volatile
  9296     12ED                     l3283:
  9297                           
  9298                           ;lcd.c: 40:     _delay((unsigned long)((15)*(8000000/4000.0)));
  9299     12ED  3027               	movlw	39
  9300     12EE  00F4               	movwf	??_LCD_Init+1
  9301     12EF  30F5               	movlw	245
  9302     12F0  00F3               	movwf	??_LCD_Init
  9303     12F1                     u5847:
  9304     12F1  0BF3               	decfsz	??_LCD_Init,f
  9305     12F2  2AF1               	goto	u5847
  9306     12F3  0BF4               	decfsz	??_LCD_Init+1,f
  9307     12F4  2AF1               	goto	u5847
  9308     12F5                     l3285:
  9309                           
  9310                           ;lcd.c: 41:     LCD_Command(0x02);
  9311     12F5  3002               	movlw	2
  9312     12F6  160A  118A  23AB  160A  118A  	fcall	_LCD_Command
  9313     12FB                     l3287:
  9314                           
  9315                           ;lcd.c: 42:     LCD_Command(0x28);
  9316     12FB  3028               	movlw	40
  9317     12FC  160A  118A  23AB  160A  118A  	fcall	_LCD_Command
  9318     1301                     l3289:
  9319                           
  9320                           ;lcd.c: 43:     LCD_Command(0x01);
  9321     1301  3001               	movlw	1
  9322     1302  160A  118A  23AB  160A  118A  	fcall	_LCD_Command
  9323     1307                     l3291:
  9324                           
  9325                           ;lcd.c: 44:     LCD_Command(0x0c);
  9326     1307  300C               	movlw	12
  9327     1308  160A  118A  23AB  160A  118A  	fcall	_LCD_Command
  9328     130D                     l3293:
  9329                           
  9330                           ;lcd.c: 45:     LCD_Command(0x06);
  9331     130D  3006               	movlw	6
  9332     130E  160A  118A  23AB  160A  118A  	fcall	_LCD_Command
  9333     1313                     l17:
  9334     1313  0008               	return
  9335     1314                     __end_of_LCD_Init:
  9336                           
  9337                           	psect	text34
  9338     13AB                     __ptext34:	
  9339 ;; *************** function _LCD_Command *****************
  9340 ;; Defined at:
  9341 ;;		line 61 in file "lcd.c"
  9342 ;; Parameters:    Size  Location     Type
  9343 ;;  cmd             1    wreg     unsigned char 
  9344 ;; Auto vars:     Size  Location     Type
  9345 ;;  cmd             1    2[COMMON] unsigned char 
  9346 ;; Return value:  Size  Location     Type
  9347 ;;                  1    wreg      void 
  9348 ;; Registers used:
  9349 ;;		wreg, status,2, status,0
  9350 ;; Tracked objects:
  9351 ;;		On entry : 0/0
  9352 ;;		On exit  : 0/0
  9353 ;;		Unchanged: 0/0
  9354 ;; Data sizes:     COMMON   BANK0   BANK1   BANK3   BANK2
  9355 ;;      Params:         0       0       0       0       0
  9356 ;;      Locals:         1       0       0       0       0
  9357 ;;      Temps:          2       0       0       0       0
  9358 ;;      Totals:         3       0       0       0       0
  9359 ;;Total ram usage:        3 bytes
  9360 ;; Hardware stack levels used: 1
  9361 ;; This function calls:
  9362 ;;		Nothing
  9363 ;; This function is called by:
  9364 ;;		_LCD_Init
  9365 ;;		_LCD_String_xy
  9366 ;;		_LCD_Clear
  9367 ;;		_function_seguridad
  9368 ;; This function uses a non-reentrant model
  9369 ;;
  9370                           
  9371     13AB                     _LCD_Command:	
  9372                           ;psect for function _LCD_Command
  9373                           
  9374                           
  9375                           ;incstack = 0
  9376                           ; Regs used in _LCD_Command: [wreg+status,2+status,0]
  9377                           ;LCD_Command@cmd stored from wreg
  9378     13AB  00F2               	movwf	LCD_Command@cmd
  9379     13AC                     l2741:
  9380                           
  9381                           ;lcd.c: 61: void LCD_Command(unsigned char cmd);lcd.c: 62: {;lcd.c: 63:  PORTD = (PORTD 
      +                          & 0x0f) |(0xF0 & cmd);
  9382     13AC  30F0               	movlw	240
  9383     13AD  0572               	andwf	LCD_Command@cmd,w
  9384     13AE  00F0               	movwf	??_LCD_Command
  9385     13AF  1283               	bcf	3,5	;RP0=0, select bank0
  9386     13B0  1303               	bcf	3,6	;RP1=0, select bank0
  9387     13B1  0808               	movf	8,w	;volatile
  9388     13B2  390F               	andlw	15
  9389     13B3  0470               	iorwf	??_LCD_Command,w
  9390     13B4  0088               	movwf	8	;volatile
  9391     13B5                     l2743:
  9392                           
  9393                           ;lcd.c: 64:  RD0 = 0;
  9394     13B5  1008               	bcf	8,0	;volatile
  9395     13B6                     l2745:
  9396                           
  9397                           ;lcd.c: 65:  RD1 = 1;
  9398     13B6  1488               	bsf	8,1	;volatile
  9399     13B7                     l2747:
  9400                           
  9401                           ;lcd.c: 66:  __nop();
  9402     13B7  0000               	nop
  9403     13B8                     l2749:
  9404                           
  9405                           ;lcd.c: 67:  RD1 = 0;
  9406     13B8  1283               	bcf	3,5	;RP0=0, select bank0
  9407     13B9  1303               	bcf	3,6	;RP1=0, select bank0
  9408     13BA  1088               	bcf	8,1	;volatile
  9409     13BB                     l2751:
  9410                           
  9411                           ;lcd.c: 68:  _delay((unsigned long)((1)*(8000000/4000.0)));
  9412     13BB  3003               	movlw	3
  9413     13BC  00F1               	movwf	??_LCD_Command+1
  9414     13BD  3097               	movlw	151
  9415     13BE  00F0               	movwf	??_LCD_Command
  9416     13BF                     u5857:
  9417     13BF  0BF0               	decfsz	??_LCD_Command,f
  9418     13C0  2BBF               	goto	u5857
  9419     13C1  0BF1               	decfsz	??_LCD_Command+1,f
  9420     13C2  2BBF               	goto	u5857
  9421     13C3  2BC4               	nop2
  9422     13C4                     l2753:
  9423                           
  9424                           ;lcd.c: 69:     PORTD = (unsigned char)((PORTD & 0x0f) | (cmd<<4));
  9425     13C4  0872               	movf	LCD_Command@cmd,w
  9426     13C5  00F0               	movwf	??_LCD_Command
  9427     13C6  3004               	movlw	4
  9428     13C7                     u3365:
  9429     13C7  1003               	clrc
  9430     13C8  0DF0               	rlf	??_LCD_Command,f
  9431     13C9  3EFF               	addlw	-1
  9432     13CA  1D03               	skipz
  9433     13CB  2BC7               	goto	u3365
  9434     13CC  1283               	bcf	3,5	;RP0=0, select bank0
  9435     13CD  1303               	bcf	3,6	;RP1=0, select bank0
  9436     13CE  0808               	movf	8,w	;volatile
  9437     13CF  390F               	andlw	15
  9438     13D0  0470               	iorwf	??_LCD_Command,w
  9439     13D1  0088               	movwf	8	;volatile
  9440     13D2                     l2755:
  9441                           
  9442                           ;lcd.c: 70:  RD1 = 1;
  9443     13D2  1488               	bsf	8,1	;volatile
  9444     13D3                     l2757:
  9445                           
  9446                           ;lcd.c: 71:  __nop();
  9447     13D3  0000               	nop
  9448     13D4                     l2759:
  9449                           
  9450                           ;lcd.c: 72:  RD1 = 0;
  9451     13D4  1283               	bcf	3,5	;RP0=0, select bank0
  9452     13D5  1303               	bcf	3,6	;RP1=0, select bank0
  9453     13D6  1088               	bcf	8,1	;volatile
  9454                           
  9455                           ;lcd.c: 73:  _delay((unsigned long)((3)*(8000000/4000.0)));
  9456     13D7  3008               	movlw	8
  9457     13D8  00F1               	movwf	??_LCD_Command+1
  9458     13D9  30C9               	movlw	201
  9459     13DA  00F0               	movwf	??_LCD_Command
  9460     13DB                     u5867:
  9461     13DB  0BF0               	decfsz	??_LCD_Command,f
  9462     13DC  2BDB               	goto	u5867
  9463     13DD  0BF1               	decfsz	??_LCD_Command+1,f
  9464     13DE  2BDB               	goto	u5867
  9465     13DF  2BE0               	nop2
  9466     13E0                     l20:
  9467     13E0  0008               	return
  9468     13E1                     __end_of_LCD_Command:
  9469     007E                     btemp	set	126	;btemp
  9470     007E                     wtemp0	set	126
  9471                           
  9472                           	psect	config
  9473                           
  9474                           ;Config register CONFIG1 @ 0x2007
  9475                           ;	Oscillator Selection bits
  9476                           ;	FOSC = INTRC_CLKOUT, INTOSC oscillator: CLKOUT function on RA6/OSC2/CLKOUT pin, I/O fu
      +                          nction on RA7/OSC1/CLKIN
  9477                           ;	Watchdog Timer Enable bit
  9478                           ;	WDTE = OFF, WDT disabled and can be enabled by SWDTEN bit of the WDTCON register
  9479                           ;	Power-up Timer Enable bit
  9480                           ;	PWRTE = OFF, PWRT disabled
  9481                           ;	RE3/MCLR pin function select bit
  9482                           ;	MCLRE = OFF, RE3/MCLR pin function is digital input, MCLR internally tied to VDD
  9483                           ;	Code Protection bit
  9484                           ;	CP = OFF, Program memory code protection is disabled
  9485                           ;	Data Code Protection bit
  9486                           ;	CPD = OFF, Data memory code protection is disabled
  9487                           ;	Brown Out Reset Selection bits
  9488                           ;	BOREN = OFF, BOR disabled
  9489                           ;	Internal External Switchover bit
  9490                           ;	IESO = OFF, Internal/External Switchover mode is disabled
  9491                           ;	Fail-Safe Clock Monitor Enabled bit
  9492                           ;	FCMEN = OFF, Fail-Safe Clock Monitor is disabled
  9493                           ;	Low Voltage Programming Enable bit
  9494                           ;	LVP = OFF, RB3 pin has digital I/O, HV on MCLR must be used for programming
  9495                           ;	In-Circuit Debugger Mode bit
  9496                           ;	DEBUG = 0x1, unprogrammed default
  9497     2007                     	org	8199
  9498     2007  20D5               	dw	8405
  9499                           
  9500                           ;Config register CONFIG2 @ 0x2008
  9501                           ;	Brown-out Reset Selection bit
  9502                           ;	BOR4V = BOR40V, Brown-out Reset set to 4.0V
  9503                           ;	Flash Program Memory Self Write Enable bits
  9504                           ;	WRT = OFF, Write protection off
  9505     2008                     	org	8200
  9506     2008  3FFF               	dw	16383

Data Sizes:
    Strings     141
    Constant    51
    Data        16
    BSS         36
    Persistent  0
    Stack       0

Auto Spaces:
    Space          Size  Autos    Used
    COMMON           14     14      14
    BANK0            80     79      80
    BANK1            80     56      74
    BANK3            96      0      33
    BANK2            96      0       0

Pointer List with Targets:

    strncmp@s2	PTR const unsigned char  size(1) Largest target is 5
		 -> password(CODE[5]), 

    strncmp@s1	PTR const unsigned char  size(1) Largest target is 5
		 -> pass_user(BANK1[5]), 

    frexp@eptr	PTR int  size(1) Largest target is 2
		 -> log@exponent(BANK0[2]), 

    eval_poly@d	PTR const  size(1) Largest target is 36
		 -> log@coeff(CODE[36]), 

    sprintf@f	PTR const unsigned char  size(1) Largest target is 18
		 -> STR_5(CODE[5]), STR_4(CODE[10]), STR_3(CODE[18]), 

    sprintf@sp	PTR unsigned char  size(1) Largest target is 17
		 -> buffer(BANK3[17]), 

    sprintf@ap	PTR void [1] size(1) Largest target is 2
		 -> ?_sprintf(BANK0[2]), 

    LCD_String_xy@msg	PTR const unsigned char  size(2) Largest target is 17
		 -> STR_14(CODE[10]), STR_13(CODE[8]), STR_12(CODE[10]), STR_11(CODE[7]), 
		 -> STR_10(CODE[10]), STR_9(CODE[7]), STR_8(CODE[17]), STR_7(CODE[15]), 
		 -> STR_6(CODE[14]), buffer(BANK3[17]), STR_2(CODE[12]), STR_1(CODE[5]), 

    LCD_String@msg	PTR const unsigned char  size(2) Largest target is 17
		 -> STR_14(CODE[10]), STR_13(CODE[8]), STR_12(CODE[10]), STR_11(CODE[7]), 
		 -> STR_10(CODE[10]), STR_9(CODE[7]), STR_8(CODE[17]), STR_7(CODE[15]), 
		 -> STR_6(CODE[14]), buffer(BANK3[17]), STR_2(CODE[12]), STR_1(CODE[5]), 


Critical Paths under _main in COMMON

    _main->_function_seguridad
    _function_seguridad->_LCD_String_xy
    _sprintf->___lwmod
    ___lwmod->___lwdiv
    _convertir_temperature->___xxtofl
    _log->___xxtofl
    _log->_frexp
    _frexp->___fleq
    ___flmul->___xxtofl
    ___flmul->_frexp
    ___fladd->___xxtofl
    ___fladd->_frexp
    ___fldiv->___xxtofl
    ___fldiv->_frexp
    _function_bloqueado->_LCD_String_xy
    _function_alarma_seguridad->_LCD_String_xy
    _function_alarma_ambiental->_LCD_String_xy
    _LCD_String_xy->_LCD_String
    _LCD_String->_LCD_Char
    _LCD_Clear->_LCD_Command
    _LCD_Init->_LCD_Command

Critical Paths under _main in BANK0

    _function_seguridad->_keypad_getkey
    _function_monitoreo_digital->_sprintf
    _convertir_temperature->_log
    _log->___fladd
    _eval_poly->___fladd
    ___flmul->_frexp
    ___fladd->___fldiv
    ___fldiv->___flmul

Critical Paths under _main in BANK1

    _main->_function_monitoreo_ambiental
    _function_monitoreo_ambiental->_convertir_temperature
    _convertir_temperature->_log
    _log->_eval_poly

Critical Paths under _main in BANK3

    None.

Critical Paths under _main in BANK2

    None.

Call Graph Tables:

 ---------------------------------------------------------------------------------
 (Depth) Function   	        Calls       Base Space   Used Autos Params    Refs
 ---------------------------------------------------------------------------------
 (0) _main                                                 3     3      0   49422
                                             53 BANK1      3     3      0
                           _LCD_Init
                      _LCD_String_xy
                          _adc_begin
          _function_alarma_ambiental
          _function_alarma_seguridad
                 _function_bloqueado
       _function_monitoreo_ambiental
         _function_monitoreo_digital
                 _function_seguridad
                        _keypad_init
 ---------------------------------------------------------------------------------
 (1) _keypad_init                                          0     0      0       0
 ---------------------------------------------------------------------------------
 (1) _function_seguridad                                   4     4      0    3511
                                             10 COMMON     4     4      0
                           _LCD_Char
                          _LCD_Clear
                        _LCD_Command
                      _LCD_String_xy
                      _keypad_getkey
                            _strncmp
 ---------------------------------------------------------------------------------
 (3) _strncmp                                              6     3      3     319
                                              0 COMMON     6     3      3
 ---------------------------------------------------------------------------------
 (2) _keypad_getkey                                       23    23      0     542
                                              0 COMMON     4     4      0
                                              0 BANK0     19    19      0
 ---------------------------------------------------------------------------------
 (1) _function_monitoreo_digital                           8     8      0    3998
                                             19 BANK0      6     6      0
                          _LCD_Clear
                      _LCD_String_xy
                  _monitoring_sensor
                            _sprintf
 ---------------------------------------------------------------------------------
 (2) _monitoring_sensor                                    1     1      0      26
                                              0 COMMON     1     1      0
 ---------------------------------------------------------------------------------
 (1) _function_monitoreo_ambiental                        13    13      0   31849
                                             44 BANK1      9     9      0
                      _LCD_String_xy
                     _adc_conversion
              _convertir_temperature
                            _sprintf
 ---------------------------------------------------------------------------------
 (2) _sprintf                                             27    20      7    1455
                                              0 BANK0     19    12      7
                            ___lwdiv
                            ___lwmod
 ---------------------------------------------------------------------------------
 (3) ___lwmod                                              5     1      4     311
                                              7 COMMON     5     1      4
                            ___lwdiv (ARG)
 ---------------------------------------------------------------------------------
 (3) ___lwdiv                                              7     3      4     314
                                              0 COMMON     7     3      4
 ---------------------------------------------------------------------------------
 (2) _convertir_temperature                               28    26      2   27533
                                             20 BANK1     24    22      2
                            ___fladd
                            ___fldiv
                            ___fltol
                           ___xxtofl
                                _log
 ---------------------------------------------------------------------------------
 (3) _log                                                  6     2      4   20328
                                             77 BANK0      2     2      0
                                             16 BANK1      4     0      4
                            ___fladd
                            ___fldiv (ARG)
                             ___fleq
                             ___flge
                            ___flmul
                           ___xxtofl
                          _eval_poly
                              _frexp
 ---------------------------------------------------------------------------------
 (4) _frexp                                                7     2      5    1132
                                             12 COMMON     2     2      0
                                              0 BANK0      5     0      5
                             ___fleq
 ---------------------------------------------------------------------------------
 (5) ___fleq                                              12     4      8     630
                                              0 COMMON    12     4      8
 ---------------------------------------------------------------------------------
 (4) _eval_poly                                           16     9      7    8719
                                              0 BANK1     16     9      7
                            ___fladd
                            ___fldiv (ARG)
                            ___flmul
 ---------------------------------------------------------------------------------
 (5) ___flmul                                             26    18      8    3853
                                              5 BANK0     26    18      8
                          __Umul8_16
                           ___xxtofl (ARG)
                              _frexp (ARG)
 ---------------------------------------------------------------------------------
 (6) __Umul8_16                                            9     7      2     980
                                              0 COMMON     9     7      2
 ---------------------------------------------------------------------------------
 (5) ___fladd                                             20    12      8    4342
                                             57 BANK0     20    12      8
                            ___fldiv (ARG)
                            ___flmul (ARG)
                           ___xxtofl (ARG)
                              _frexp (ARG)
 ---------------------------------------------------------------------------------
 (4) ___xxtofl                                            14    10      4     656
                                              0 COMMON    14    10      4
 ---------------------------------------------------------------------------------
 (4) ___flge                                              12     4      8     586
                                              0 COMMON    12     4      8
 ---------------------------------------------------------------------------------
 (3) ___fltol                                             10     6      4     305
                                              0 COMMON    10     6      4
 ---------------------------------------------------------------------------------
 (3) ___fldiv                                             26    18      8    1577
                                             31 BANK0     26    18      8
                          __Umul8_16 (ARG)
                             ___fleq (ARG)
                             ___flge (ARG)
                            ___flmul (ARG)
                           ___xxtofl (ARG)
                              _frexp (ARG)
 ---------------------------------------------------------------------------------
 (2) _adc_conversion                                       3     1      2     250
                                              0 COMMON     3     1      2
 ---------------------------------------------------------------------------------
 (1) _function_bloqueado                                   3     3      0    2516
                                             10 COMMON     3     3      0
                          _LCD_Clear
                      _LCD_String_xy
 ---------------------------------------------------------------------------------
 (1) _function_alarma_seguridad                            3     3      0    2516
                                             10 COMMON     3     3      0
                          _LCD_Clear
                      _LCD_String_xy
                          _blink_led
 ---------------------------------------------------------------------------------
 (1) _function_alarma_ambiental                            3     3      0    2516
                                             10 COMMON     3     3      0
                          _LCD_Clear
                      _LCD_String_xy
                          _blink_led
 ---------------------------------------------------------------------------------
 (2) _blink_led                                            3     3      0       0
                                              0 COMMON     3     3      0
 ---------------------------------------------------------------------------------
 (2) _LCD_String_xy                                        5     2      3    2472
                                              5 COMMON     5     2      3
                        _LCD_Command
                         _LCD_String
 ---------------------------------------------------------------------------------
 (3) _LCD_String                                           2     0      2     165
                                              3 COMMON     2     0      2
                           _LCD_Char
 ---------------------------------------------------------------------------------
 (4) _LCD_Char                                             3     3      0      44
                                              0 COMMON     3     3      0
 ---------------------------------------------------------------------------------
 (2) _LCD_Clear                                            2     2      0      44
                                              3 COMMON     2     2      0
                        _LCD_Command
 ---------------------------------------------------------------------------------
 (1) _adc_begin                                            0     0      0       0
 ---------------------------------------------------------------------------------
 (1) _LCD_Init                                             2     2      0      44
                                              3 COMMON     2     2      0
                        _LCD_Command
 ---------------------------------------------------------------------------------
 (3) _LCD_Command                                          3     3      0      44
                                              0 COMMON     3     3      0
 ---------------------------------------------------------------------------------
 Estimated maximum stack depth 6
 ---------------------------------------------------------------------------------

 Call Graph Graphs:

 _main (ROOT)
   _LCD_Init
     _LCD_Command
   _LCD_String_xy
     _LCD_Command
     _LCD_String
       _LCD_Char
   _adc_begin
   _function_alarma_ambiental
     _LCD_Clear
       _LCD_Command
     _LCD_String_xy
     _blink_led
   _function_alarma_seguridad
     _LCD_Clear
     _LCD_String_xy
     _blink_led
   _function_bloqueado
     _LCD_Clear
     _LCD_String_xy
   _function_monitoreo_ambiental
     _LCD_String_xy
     _adc_conversion
     _convertir_temperature
       ___fladd
         ___fldiv (ARG)
           __Umul8_16 (ARG)
           ___fleq (ARG)
           ___flge (ARG)
           ___flmul (ARG)
             __Umul8_16
             ___xxtofl (ARG)
             _frexp (ARG)
               ___fleq
           ___xxtofl (ARG)
           _frexp (ARG)
         ___flmul (ARG)
         ___xxtofl (ARG)
         _frexp (ARG)
       ___fldiv
       ___fltol
       ___xxtofl
       _log
         ___fladd
         ___fldiv (ARG)
         ___fleq (ARG)
         ___flge (ARG)
         ___flmul (ARG)
         ___xxtofl (ARG)
         _eval_poly (ARG)
           ___fladd
           ___fldiv (ARG)
           ___flmul (ARG)
         _frexp (ARG)
     _sprintf
       ___lwdiv
       ___lwmod
         ___lwdiv (ARG)
   _function_monitoreo_digital
     _LCD_Clear
     _LCD_String_xy
     _monitoring_sensor
     _sprintf
   _function_seguridad
     _LCD_Char
     _LCD_Clear
     _LCD_Command
     _LCD_String_xy
     _keypad_getkey
     _strncmp
   _keypad_init

 Address spaces:
Name               Size   Autos  Total    Cost      Usage
BANK3               60      0      21       9       34.4%
BITBANK3            60      0       0       8        0.0%
SFR3                 0      0       0       4        0.0%
BITSFR3              0      0       0       4        0.0%
BANK2               60      0       0      11        0.0%
BITBANK2            60      0       0      10        0.0%
SFR2                 0      0       0       5        0.0%
BITSFR2              0      0       0       5        0.0%
BANK1               50     38      4A       7       92.5%
BITBANK1            50      0       0       6        0.0%
SFR1                 0      0       0       2        0.0%
BITSFR1              0      0       0       2        0.0%
BANK0               50     4F      50       5      100.0%
BITBANK0            50      0       0       4        0.0%
SFR0                 0      0       0       1        0.0%
BITSFR0              0      0       0       1        0.0%
COMMON               E      E       E       1      100.0%
BITCOMMON            E      0       0       0        0.0%
CODE                 0      0       0       0        0.0%
DATA                 0      0      C9      12        0.0%
ABS                  0      0      C9       3        0.0%
NULL                 0      0       0       0        0.0%
STACK                0      0       0       2        0.0%
EEDATA             100      0       0       0        0.0%


Microchip Technology PIC Macro Assembler V2.41 build 20230208172133 
Symbol Table                                                                                   Mon Nov 13 16:36:10 2023

                  __end_of_convertir_temperature 1000                             ??_function_bloqueado 007A  
                                   ___fldiv@aexp 0058                                     ___fldiv@bexp 0057  
                                              pc 0002                               _function_seguridad 169D  
                                   ___fldiv@sign 0050                                     ?_LCD_Command 0070  
                                             l20 13E0                                               l23 1416  
                                             l17 1313                                               l34 12C2  
                                             l50 11E8                                               l37 11F8  
                                             l29 129C                                               fsr 0004  
                                    ?_LCD_String 0073                              __Umul8_16@word_mpld 0076  
                                            l109 0B5A                                              l222 0C39  
                                            l240 099E                                              l402 0D2E  
                                            l235 006F                                              l243 16B7  
                                            l252 1377                                              l261 000E  
                                            l270 0FFF                                              l238 098B  
                                            l255 1345                                              l264 1248  
                                            l249 1747                                              l258 13AA  
                                            l266 124C                                              l602 15FA  
                                            l267 1253                                              l283 1225  
                                            l284 122B                                              l286 1232  
                                            l703 031D                                              l720 03E6  
                                            l712 0496                                              l289 1254  
                                            l705 02F6                                              l801 074B  
                                            l730 042C                                              l580 1617  
                                            l724 040A                                              l742 0496  
                                            l814 12D7                                              l902 14DA  
                                            l583 1683                                              l575 14F7  
                                            l592 15FA                                              l584 169C  
                                            l816 12E9                                              l576 1513  
                                            l841 17FF                                              l577 1528  
                                            l771 01B8                                              l755 00C6  
                                            l852 17C9                                              l757 023E  
                                            l853 17D5                                              l678 1494  
                                            l599 15E5                                              l839 176A  
                                            l688 1450                                              l777 022A  
                                            l866 0E74                                              l699 029A  
                                            l795 07DB                                              l884 1584  
                                            l878 0A78                                              _RA0 0028  
                                            _RA1 0029                                              _RC0 0038  
                                            _RC1 0039                                              _RA5 002D  
                                            _RD0 0040                                              _RC2 003A  
                                            _RD1 0041                              ?_function_seguridad 0070  
                                            _idx 00E4                                              _log 0D2F  
                                            fsr0 0004                                              indf 0000  
                                   ___flmul@aexp 0033                                     ___flmul@bexp 0038  
                                   ___flmul@sign 0032                                     ___flmul@temp 003D  
                                   ___flmul@prod 0039                                      LCD_Char@dat 0072  
                                   ___fltol@exp1 0079                                             l3001 020E  
                                           l3011 0232                                             l3003 021D  
                                           l3013 0234                                             l3005 0221  
                                           l3101 0B04                                             l3031 12AF  
                                           l3023 129E                                             l3015 0238  
                                           l3007 0229                                             l3111 0B14  
                                           l3103 0B06                                             l3033 12B3  
                                           l3025 129E                                             l3009 022E  
                                           l4001 0DEA                                             l3201 0CC5  
                                           l3121 0B30                                             l3105 0B0B  
                                           l3113 0B18                                             l3041 0A79  
                                           l3035 12B9                                             l3027 12A4  
                                           l4003 0DF2                                             l4011 0E88  
                                           l3211 0D03                                             l3203 0CC9  
                                           l3131 0B40                                             l3123 0B32  
                                           l3115 0B1F                                             l3107 0B0D  
                                           l3043 0A8F                                             l3301 0003  
                                           l3037 11E9                                             l3029 12A8  
                                           l4005 0E11                                             l4021 0FEA  
                                           l4013 0EE0                                             l3221 0D2A  
                                           l3213 0D07                                             l3205 0CCF  
                                           l3141 121C                                             l3125 0B37  
                                           l3117 0B27                                             l3133 0B44  
                                           l3109 0B12                                             l3061 0AAD  
                                           l3053 0A94                                             l3045 0A8F  
                                           l4101 0C1B                                             l3303 0008  
                                           l3039 11EF                                             l3231 123F  
                                           l4015 0F2E                                             l3207 0CD2  
                                           l3215 0D0D                                             l4031 0900  
                                           l3151 1231                                             l3143 121D  
                                           l3135 0B4A                                             l3127 0B39  
                                           l3119 0B29                                             l3071 0ABD  
                                           l3063 0AAF                                             l3055 0A9C  
                                           l3047 0A92                                             l3311 16A6  
                                           l4103 0C21                                             l3233 1240  
                                           l4017 0F84                                             l4009 0E75  
                                           l3209 0CFE                                             l3161 0C4B  
                                           l3217 0D16                                             l4041 0956  
                                           l4033 090F                                             l4025 08D8  
                                           l3145 1223                                             l3137 0B57  
                                           l3129 0B3E                                             l3081 0AD8  
                                           l3065 0AB4                                             l3057 0AA4  
                                           l3073 0AC1                                             l3321 16D0  
                                           l3313 16B1                                             l3305 169D  
                                           l4105 0C27                                             l3235 1245  
                                           l4019 0FC3                                             l3219 0D26  
                                           l4131 0C6E                                             l3171 0C5C  
                                           l3163 0C50                                             l3155 0C40  
                                           l4043 096C                                             l4035 091A  
                                           l4027 08E6                                             l3147 1229  
                                           l3091 0AE8                                             l3083 0ADA  
                                           l3075 0AC7                                             l3067 0AB6  
                                           l3059 0AA6                                             l3331 1700  
                                           l3323 16D4                                             l3315 16BD  
                                           l3307 169D                                             l4107 0C2D  
                                           l4051 0B5B                                             l3237 124D  
                                           l3229 1233                                             l3181 0C8D  
                                           l3173 0C79                                             l3165 0C54  
                                           l3157 0C42                                             l4045 0977  
                                           l4037 0929                                             l4029 08F1  
                                           l3149 122F                                             l3085 0ADF  
                                           l3077 0ACF                                             l3093 0AEC  
                                           l3069 0ABB                                             l3261 149F  
                                           l3341 1722                                             l3333 170B  
                                           l3325 16E1                                             l3317 16C2  
                                           l3309 16A2                                             l4109 0C33  
                                           l4061 0B73                                             l4053 0B5E  
                                           l2631 13EE                                             l2623 13E2  
                                           l3431 1341                                             l3423 1314  
                                           l3183 0C92                                             l3175 0C81  
                                           l3167 0C5B                                             l3159 0C45  
                                           l4047 0986                                             l4039 094B  
                                           l3095 0AF3                                             l3087 0AE1  
                                           l3079 0AD1                                             l3271 14D8  
                                           l3263 14AF                                             l3351 1742  
                                           l3343 1725                                             l3335 170F  
                                           l3327 16E9                                             l3319 16C8  
                                           l4071 0B91                                             l4063 0B78  
                                           l4055 0B60                                             l3281 12EA  
                                           l2641 140A                                             l2633 13F1  
                                           l2625 13EB                                             l3425 1319  
                                           l2801 15AB                                             l3601 02AE  
                                           l3521 12C4                                             l3193 0CB0  
                                           l3177 0C85                                             l4049 098F  
                                           l3361 0022                                             l3097 0AFB  
                                           l3089 0AE6                                             l3257 1496  
                                           l3353 1743                                             l3345 1729  
                                           l3329 16FB                                             l3337 1712  
                                           l4081 0BD4                                             l4073 0B99  
                                           l4065 0B7C                                             l4057 0B6A  
                                           l3291 1307                                             l3283 12ED  
                                           l2635 13FA                                             l2627 13EC  
                                           l3275 1254                                             l3427 1324  
                                           l3371 1378                                             l2803 15B3  
                                           l3611 02B8                                             l3603 02B0  
                                           l3531 12E5                                             l3523 12C6  
                                           l3195 0CB4                                             l3179 0C89  
                                           l3363 004B                                             l3355 000F  
                                           l3099 0AFD                                             l3267 14C2  
                                           l3259 1497                                             l3347 172D  
                                           l3339 1717                                             l4091 0BFE  
                                           l4083 0BDF                                             l4075 0BA9  
                                           l4067 0B81                                             l4059 0B6E  
                                           l2741 13AC                                             l3293 130D  
                                           l3285 12F5                                             l2637 1408  
                                           l2629 13ED                                             l3277 1265  
                                           l3429 1334                                             l3381 139A  
                                           l3373 137D                                             l2901 00A4  
                                           l2813 15C1                                             l2805 15B5  
                                           l3701 0418                                             l3621 02C2  
                                           l3613 02BA                                             l3605 02B2  
                                           l3525 12CD                                             l3541 1525  
                                           l3197 0CBA                                             l3189 0C94  
                                           l3357 0019                                             l3365 0057  
                                           l3269 14CA                                             l3349 173A  
                                           l4093 0C03                                             l4085 0BEE  
                                           l4077 0BB9                                             l4069 0B89  
                                           l2751 13BB                                             l2743 13B5  
                                           l3287 12FB                                             l2639 1409  
                                           l3279 1268                                             l3391 1356  
                                           l3383 139B                                             l3375 1388  
                                           l2911 00BB                                             l2903 00A8  
                                           l2823 15DA                                             l2815 15CA  
                                           l2807 15B9                                             l3711 0429  
                                           l3703 041A                                             l3631 02FA  
                                           l3623 02C4                                             l3615 02BC  
                                           l3607 02B4                                             l3551 0248  
                                           l3527 12D1                                             l3543 1527  
                                           l3535 14DB                                             l2831 1453  
                                           l3199 0CC0                                             l3367 005C  
                                           l3359 001E                                             l3295 11DA  
                                           l4095 0C09                                             l4087 0BF1  
                                           l4079 0BC9                                             l2753 13C4  
                                           l2745 13B6                                             l3289 1301  
                                           l2761 1277                                             l3393 1366  
                                           l3385 13A7                                             l3377 1393  
                                           l2921 00DE                                             l2913 00BC  
                                           l2905 00A9                                             l2825 15EA  
                                           l2817 15D3                                             l3721 0448  
                                           l3705 041E                                             l3641 0311  
                                           l3633 0301                                             l3617 02BE  
                                           l3609 02B6                                             l3625 02C6  
                                           l3561 025F                                             l3553 024C  
                                           l3529 12E0                                             l3801 057A  
                                           l3537 14EF                                             l2841 146B  
                                           l2833 1459                                             l3369 0060  
                                           l3297 11E4                                             l4097 0C0F  
                                           l4089 0BF8                                             l2755 13D2  
                                           l2747 13B7                                             l2763 1278  
                                           l3395 1373                                             l3387 1346  
                                           l3379 1397                                             l2931 00F5  
                                           l2907 00AE                                             l2915 00BE  
                                           l2827 15EF                                             l3731 047C  
                                           l3723 0466                                             l3715 0431  
                                           l3707 041F                                             l3651 032F  
                                           l3635 0303                                             l3643 0315  
                                           l3627 02C7                                             l3619 02C0  
                                           l3571 0273                                             l3563 0260  
                                           l3555 024D                                             l3547 023F  
                                           l3811 05E6                                             l3803 0596  
                                           l3539 150B                                             l2843 147C  
                                           l2835 145C                                             l2851 1490  
                                           l3299 11E5                                             l4099 0C15  
                                           l2757 13D3                                             l2749 13B8  
                                           l2765 1286                                             l3389 134B  
                                           l2941 0121                                             l2933 0107  
                                           l2917 00CE                                             l2925 00E7  
                                           l2909 00B3                                             l3901 165F  
                                           l3741 048C                                             l3733 0481  
                                           l3717 0436                                             l3725 046A  
                                           l3709 0423                                             l3661 0357  
                                           l3653 0346                                             l3645 0321  
                                           l3637 0307                                             l3629 02DE  
                                           l3581 0282                                             l3573 0274  
                                           l3557 0252                                             l3565 0262  
                                           l3549 0244                                             l3821 0670  
                                           l3813 05F4                                             l3805 05B2  
                                           l2845 1482                                             l2837 1463  
                                           l2829 1451                                             l2861 1427  
                                           l2759 13D4                                             l2767 128C  
                                           l2943 0126                                             l2951 0146  
                                           l2935 010F                                             l2927 00EC  
                                           l2919 00DA                                             l2791 1585  
                                           l3903 1699                                             l3911 174E  
                                           l3743 0491                                             l3735 0482  
                                           l3727 046F                                             l3719 0444  
                                           l3671 0380                                             l3663 035B  
                                           l3655 034A                                             l3647 0326  
                                           l3639 0308                                             l3591 02A0  
                                           l3583 0287                                             l3575 0278  
                                           l3567 026A                                             l3559 0257  
                                           l3831 0700                                             l3823 067E  
                                           l3815 0611                                             l3807 05BB  
                                           l3751 04A0                                             l2847 1483  
                                           l2839 1467                                             l2871 1446  
                                           l2863 142B                                             l2855 1417  
                                           l2961 0171                                             l2953 0158  
                                           l2945 0138                                             l2937 0117  
                                           l2881 0079                                             l2793 158E  
                                           l3905 169B                                             l3921 177B  
                                           l3913 1752                                             l3745 0495  
                                           l3737 0486                                             l3729 0474  
                                           l3673 03BE                                             l3681 03D8  
                                           l3665 035C                                             l3657 034E  
                                           l3593 02A4                                             l3585 028F  
                                           l3577 027C                                             l3569 026D  
                                           l3841 0725                                             l3833 070E  
                                           l3825 06A9                                             l3817 0628  
                                           l3809 05C9                                             l3761 04B7  
                                           l3753 04A4                                             l2849 148A  
                                           l2865 142F                                             l2857 141D  
                                           l2873 144C                                             l2971 0189  
                                           l2963 0179                                             l2955 0159  
                                           l2947 013C                                             l2939 011F  
                                           l2891 0090                                             l2883 007D  
                                           l3931 1796                                             l3923 177E  
                                           l3915 1762                                             l3739 0488  
                                           l3691 0405                                             l3683 03EE  
                                           l3675 03C2                                             l3667 0365  
                                           l3659 0355                                             l3595 02A8  
                                           l3587 0290                                             l3579 027D  
                                           l3851 0748                                             l3835 0717  
                                           l3843 072B                                             l3827 06CF  
                                           l3819 0645                                             l3771 04CE  
                                           l3763 04B9                                             l3755 04A5  
                                           l3747 0497                                             l2867 1439  
                                           l2859 1420                                             l2981 01A1  
                                           l2973 0192                                             l2965 017B  
                                           l2957 0167                                             l2949 013D  
                                           l2893 0091                                             l2885 007E  
                                           l2877 0070                                             l2797 1597  
                                           l3941 17C3                                             l3933 17A4  
                                           l3925 1782                                             l3917 1772  
                                           l3909 1749                                             l3693 0409  
                                           l3685 03F3                                             l3677 03C4  
                                           l3669 036A                                             l3597 02AA  
                                           l3589 0292                                             l3861 0767  
                                           l3845 072F                                             l3837 071B  
                                           l3829 06F7                                             l3781 04E3  
                                           l3773 04CF                                             l3765 04C1  
                                           l3757 04AA                                             l3749 049C  
                                           l2869 143F                                             l2991 01D0  
                                           l2983 01B5                                             l2967 0184  
                                           l2975 0198                                             l2959 016B  
                                           l2887 0083                                             l2895 0093  
                                           l2879 0075                                             l2799 15AA  
                                           l3951 17F6                                             l3943 17CD  
                                           l3935 17AD                                             l3927 178B  
                                           l3695 040E                                             l3679 03C9  
                                           l3599 02AC                                             l3871 07AD  
                                           l3863 0780                                             l3855 0750  
                                           l3847 0730                                             l3839 071C  
                                           l3791 04FE                                             l3783 04EB  
                                           l3775 04D4                                             l3767 04C6  
                                           l3759 04AF                                             l2993 01D4  
                                           l2977 019C                                             l2969 0188  
                                           l2897 009B                                             l2889 0088  
                                           l3953 17F7                                             l3945 17D7  
                                           l3937 17B4                                             l3929 1792  
                                           l3697 0411                                             l3689 03FC  
                                           l3881 07CA                                             l3873 07B7  
                                           l3857 0755                                             l3865 0786  
                                           l3849 0734                                             l3793 050C  
                                           l3785 04F0                                             l3777 04D9  
                                           l3769 04CA                                             l3961 154C  
                                           l2995 01ED                                             l2987 01BD  
                                           l2979 019D                                             l2899 00A0  
                                           l3891 160F                                             l3947 17ED  
                                           l3939 17BF                                             l3699 0413  
                                           l3875 07B9                                             l3883 07CF  
                                           l3867 0793                                             l3859 0763  
                                           l3795 0519                                             l3787 04F5  
                                           l3779 04E1                                             l3971 1583  
                                           l2989 01C2                                             l2997 01F3  
                                           l3893 162B                                             l3949 17F2  
                                           l3885 07D3                                             l3877 07C5  
                                           l3869 079E                                             l3797 0534  
                                           l3981 0A6A                                             l3973 1584  
                                           l3965 1555                                             l3957 1529  
                                           ?_log 00B0                                             l2999 0200  
                                           l3895 1633                                             l3879 07C9  
                                           l3799 0550                                             l3983 0A70  
                                           l3967 1572                                             l3959 1544  
                                           l3897 1637                                             l3889 15FB  
                                           l3977 099F                                             l3969 157F  
                                           l3993 0D59                                             l3899 165B  
                                           l3979 09CE                                             l3995 0D74  
                                           l3987 0D2F                                             l3989 0D4A  
                                           l3999 0D83                                             STR_1 08C6  
                                           STR_2 0883                                             STR_3 0843  
                                           STR_4 088F                                             STR_5 08CB  
                                           STR_6 0875                                             STR_7 0866  
                                           STR_8 0855                                             STR_9 08BF  
                                           u4000 0AD7                                             u3105 13FD  
                                           u4001 0AD6                                             u4010 0ADE  
                                           u4011 0ADD                                             u4100 0B2F  
                                           u4020 0AE5                                             u4101 0B2E  
                                           u4021 0AE4                                             u4110 0B36  
                                           u4030 0AEC                                             u4111 0B35  
                                           u4031 0AEB                                             u3400 158E  
                                           u5000 04F5                                             u4200 0CAF  
                                           u4120 0B3D                                             u4040 0AF3  
                                           u3401 158D                                             u5001 04F4  
                                           u4201 0CAE                                             u4121 0B3C  
                                           u4041 0AF2                                             u3410 15A5  
                                           u4210 0CBA                                             u4130 0B44  
                                           u4050 0B03                                             u5011 0542  
                                           u4211 0CB9                                             u4131 0B43  
                                           u4051 0B02                                             u3420 15B9  
                                           u5012 0549                                             u3500 1459  
                                           u4220 0CC0                                             u4140 0B57  
                                           u4060 0B0A                                             u4300 16E9  
                                           u3421 15B8                                             u5101 0662  
                                           u5021 055E                                             u5013 0550  
                                           u3501 1458                                             u4221 0CBF  
                                           u4205 0CAB                                             u4141 0B56  
                                           u4061 0B09                                             u4301 16E8  
                                           u3430 15C0                                             u5102 0669  
                                           u5022 0565                                             u4230 0D16  
                                           u4150 1223                                             u4070 0B11  
                                           u4310 16FB                                             u3431 15BF  
                                           u3415 15A0                                             u5111 068D  
                                           u5103 0670                                             u5031 0588  
                                           u5023 056C                                             u4231 0D15  
                                           u4151 1222                                             u4071 0B10  
                                           u4311 16FA                                             u5200 072F  
                                           u5120 06B5                                             u5112 0694  
                                           u5032 058F                                             u3520 146B  
                                           u3600 1439                                             u4240 0D26  
                                           u4160 1229                                             u4080 0B18  
                                           u4320 1742                                             u5201 072E  
                                           u5113 069B                                             u5041 05A4  
                                           u5033 0596                                             u3521 146A  
                                           u3601 1438                                             u4241 0D25  
                                           u4161 1228                                             u4145 0B53  
                                           u4081 0B17                                             u4321 1741  
                                           u3370 129C                                             u4250 124C  
                                           u3450 15D2                                             u4410 12D1  
                                           u5210 0734                                             u5042 05AB  
                                           u4170 122F                                             u4330 0019  
                                           u4090 0B1F                                             u3371 129B  
                                           u4251 124B                                             u3451 15D1  
                                           u4411 12D0                                             u5211 0733  
                                           u5131 06C1                                             u5043 05B2  
                                           u3515 145D                                             u4171 122E  
                                           u4331 0018                                             u4091 0B1E  
                                           u3700 00EC                                             u3460 15D9  
                                           u5300 160F                                             u4500 0273  
                                           u5220 0748                                             u5140 06DD  
                                           u5132 06C8                                             u3540 147C  
                                           u3620 144C                                             u4180 0C4B  
                                           u4260 149F                                             u3365 13C7  
                                           u3701 00EB                                             u3461 15D8  
                                           u3445 15C2                                             u5301 160E  
                                           u4501 0272                                             u5221 0747  
                                           u5133 06CF                                             u5125 06B0  
                                           u5061 05D8                                             u3541 147B  
                                           u3621 144B                                             u3605 1435  
                                           u4181 0C4A                                             u4261 149E  
                                           u3710 0126                                             u3630 007D  
                                           u5310 162B                                             u4510 027C  
                                           u4430 12E5                                             u5230 074F  
                                           u5062 05DF                                             u4190 0C89  
                                           u4270 14AF                                             u3711 0125  
                                           u3631 007C                                             u5311 162A  
                                           u4511 027B                                             u4431 12E4  
                                           u5231 074E                                             u5151 06E9  
                                           u5071 0603                                             u5063 05E6  
                                           u5055 05B4                                             u3535 146C  
                                           u3615 1440                                             u4191 0C88  
                                           u4271 14AE                                             u3800 0188  
                                           u3640 0083                                             u3480 15EA  
                                           u5320 1637                                             u4600 0307  
                                           u4520 0282                                             u5240 0755  
                                           u5152 06F0                                             u5072 060A  
                                           u4440 14EF                                             u3560 1490  
                                           u4280 14D8                                             u3801 0187  
                                           u3641 0082                                             u3481 15E9  
                                           u5321 1636                                             u4601 0306  
                                           u4521 0281                                             u4425 12D8  
                                           u5241 0754                                             u5153 06F7  
                                           u5145 06D8                                             u5073 0611  
                                           u4441 14EE                                             u3561 148F  
                                           u3545 1478                                             u4281 14D7  
                                           u3650 0088                                             u3490 15EF  
                                           u5410 1791                                             u4530 0287  
                                           u5250 0767                                             u4450 150B  
                                           u3570 141D                                             u4290 16C2  
                                           u3651 0087                                             u3491 15EE  
                                           u3475 15DC                                             u5331 1646  
                                           u5411 1790                                             u4531 0286  
                                           u5251 0766                                             u5091 0637  
                                           u4451 150A                                             u3555 1484  
                                           u3571 141C                                             u4291 16C1  
                                           u3900 021D                                             u3820 019C  
                                           u3740 013C                                             u3660 00A8  
                                           u5340 165F                                             u5332 1647  
                                           u5500 17F6                                             u4700 0380  
                                           u4620 031D                                             u4540 02A0  
                                           u5260 0776                                             u5180 071B  
                                           u5092 063E                                             u4460 1525  
                                           u3901 021C                                             u3821 019B  
                                           u3741 013B                                             u3725 0128  
                                           u3661 00A7                                             u5341 165E  
                                           u5333 164C                                             u5501 17F5  
                                           u5405 1783                                             u4701 037F  
                                           u4621 031C                                             u4541 029F  
                                           u5181 071A                                             u5165 06F9  
                                           u5093 0645                                             u5085 0613  
                                           u4461 1524                                             u3910 0232  
                                           u3830 01A1                                             u3670 00AE  
                                           u5334 164D                                             u5430 17B3  
                                           u4630 0321                                             u4550 02A4  
                                           u4470 024C                                             u5270 0793  
                                           u5510 1544                                             u3590 142F  
                                           u3911 0231                                             u3831 01A0  
                                           u3815 018B                                             u3735 0131  
                                           u3671 00AD                                             u5351 166E  
                                           u5335 1652                                             u5431 17B2  
                                           u4711 0397                                             u4703 037C  
                                           u4631 0320                                             u4615 030A  
                                           u4551 02A3                                             u4471 024B  
                                           u5271 0792                                             u5175 0710  
                                           u5511 1543                                             u3591 142E  
                                           u3920 12A4                                             u3840 01B5  
                                           u3760 0158                                             u3680 00B3  
                                           u5360 1699                                             u5352 166F  
                                           u5336 1653                                             u4800 041E  
                                           u4720 03AB                                             u4712 0398  
                                           u4640 0326                                             u4560 02DE  
                                           u4480 0252                                             u5280 07AD  
                                           u5600 0C0F                                             u3921 12A3  
                                           u3905 0219                                             u3841 01B4  
                                           u3761 0157                                             u3681 00B2  
                                           u5361 1698                                             u5353 1674  
                                           u5425 17A5                                             u4801 041D  
                                           u4721 03AC                                             u4713 039D  
                                           u4641 0325                                             u4561 02DD  
                                           u4481 0251                                             u5281 07AC  
                                           u5265 0771                                             u4465 1521  
                                           u3585 1421                                             u5601 0C0E  
                                           u3850 01BC                                             u3770 0171  
                                           u3690 00CE                                             u5354 1675  
                                           u5450 17C3                                             u5370 174E  
                                           u4810 0423                                             u4730 03C9  
                                           u4722 03B1                                             u4714 039E  
                                           u4570 02E9                                             u4490 0257  
                                           u5290 07C9                                             u3930 0A81  
                                           u5610 0C1B                                             u3851 01BB  
                                           u3771 0170                                             u3755 013F  
                                           u3691 00CD                                             u5355 167A  
                                           u5451 17C2                                             u5371 174D  
                                           u4811 0422                                             u4731 03C8  
                                           u4723 03B2                                             u4715 03A3  
                                           u4651 0338                                             u4571 02E7  
                                           u4491 0256                                             u5291 07C8  
                                           u5275 078F                                             u5195 071E  
                                           u5611 0C1A                                             u3860 01C2  
                                           u3780 0179                                             u5356 167B  
                                           u5460 17C9                                             u5380 1752  
                                           u4900 0481                                             u4820 0429  
                                           u4740 03EE                                             u4716 03A4  
                                           u4660 034A                                             u4652 033F  
                                           u4580 02EA                                             u5540 0A70  
                                           u3940 0A9C                                             u5620 0C27  
                                           u3861 01C1                                             u3781 0178  
                                           u3765 0154                                             u5365 1695  
                                           u5461 17C8                                             u5445 17B8  
                                           u5381 1751                                             u4901 0480  
                                           u4821 0428                                             u4741 03ED  
                                           u4661 0349                                             u4653 0346  
                                           u4565 02DA                                             u5285 07A9  
                                           u5541 0A6F                                             u5525 09A4  
                                           u3941 0A9B                                             u5621 0C26  
                                           u3870 01D4                                             u5470 17CD  
                                           u5390 1772                                             u4910 0486  
                                           u4830 0430                                             u4750 03F3  
                                           u4670 034E                                             u4590 02FA  
                                           u5550 0D4A                                             u3950 0AAC  
                                           u5630 0C33                                             u3871 01D3  
                                           u5471 17CC                                             u5391 1771  
                                           u4911 0485                                             u4831 042F  
                                           u4751 03F2                                             u4671 034D  
                                           u4591 02F9                                             u5535 09D7  
                                           u5551 0D49                                             u3951 0AAB  
                                           u5631 0C32                                             u3880 01E3  
                                           u5480 17E2                                             u4920 0495  
                                           u4840 0436                                             u4680 035B  
                                           u5560 0D74                                             u3960 0AB3  
                                           u4921 0494                                             u4841 0435  
                                           u4681 035A                                             u5561 0D73  
                                           u3961 0AB2                                             u3890 0200  
                                           u5490 17F2                                             u4850 0448  
                                           u4770 0409                                             u4930 04A4  
                                           u5570 0986                                             u3970 0ABA  
                                           u3891 01FF                                             u3795 017D  
                                           u5491 17F1                                             u4851 0447  
                                           u4771 0408                                             u4931 04A3  
                                           u5571 0985                                             u5707 0B23  
                                           u3971 0AB9                                             u4860 0457  
                                           u4780 040E                                             u4940 04AA  
                                           u3980 0AC1                                             u5580 0BF8  
                                           u3885 01DE                                             u5485 17DD  
                                           u4781 040D                                             u4765 03FE  
                                           u4941 04A9                                             u5717 0068  
                                           u3981 0AC0                                             u5581 0BF7  
                                           u4870 0466                                             u4790 0418  
                                           u4950 04AF                                             u3990 0AC7  
                                           u5590 0C03                                             u5807 126E  
                                           u3895 01FC                                             u4871 0465  
                                           u4791 0417                                             u4695 035E  
                                           u4951 04AE                                             u5575 0982  
                                           u5727 08EC                                             u3991 0AC6  
                                           u5591 0C02                                             u5647 0BE7  
                                           u4880 046F                                             u4960 04CE  
                                           u5817 13F5                                             u4881 046E  
                                           u4865 0452                                             u4961 04CD  
                                           u5737 0915                                             u5657 16DA  
                                           u4890 0474                                             u4970 04D4  
                                           u5827 1411                                             u4891 0473  
                                           u4971 04D3                                             u5747 0997  
                                           u5667 1733                                             u4980 04D9  
                                           u5837 11F3                                             u5757 1242  
                                           u4981 04D8                                             u5677 0AA0  
                                           u4990 04F0                                             u5847 12F1  
                                           u5767 13A1                                             u4991 04EF  
                                           u5687 0ACB                                             u5857 13BF  
                                           u5777 136C                                             u5697 0AF7  
                                           u5867 13DB                                             u5787 133A  
                                           u5797 125E                                             _main 0B5B  
                                           btemp 007E                                             log@x 00B0  
                           ??_function_seguridad 007A                       ?_function_alarma_ambiental 0070  
                                           start 0000                                  ___fldiv@new_exp 0051  
                                  _LCD_String_xy 129D  function_monitoreo_ambiental@value_potenciometro 00CF  
                                          ??_log 007E                                 __end_of_LCD_Char 1417  
                               __end_of_LCD_Init 1314                                    ___fltol@sign1 0078  
                                __end_of___fladd 0497                                            ?_main 0070  
                                __end_of___fldiv 023F                                            STR_10 0899  
                                          STR_11 08BF                                            STR_12 08A3  
                                          STR_13 08B7                                            STR_14 08AD  
                                __end_of___flmul 07DC                                  __end_of___fltol 15FB  
                                          _ANSEL 0188                                  __end_of___lwdiv 1495  
                                __end_of___lwmod 1451                                            _PORTB 0006  
                                          _PORTD 0008                                            _PORTE 0009  
                                          _TRISA 0085                                            _TRISB 0086  
                                          _TRISC 0087                                            _TRISD 0088  
                                          _TRISE 0089                                  __end_of_dpowers 081A  
                                   ?_keypad_init 0070                                            _frexp 1529  
                                          _errno 00D8                                _value_temperature 00DC  
                                          pclath 000A                                            status 0003  
                                          wtemp0 007E                                  __end_of_sprintf 0D2F  
                                __end_of_strncmp 14DB                                   ?_LCD_String_xy 0075  
                     ?_function_alarma_seguridad 0070                                  __initialization 07DC  
                                    log@exponent 006D                                     __end_of_main 0C3D  
                                         ??_main 00D5                                __end_of_LCD_Clear 11F9  
                            keypad_getkey@letras 0020                                           ?_frexp 0020  
                                         _ADRESH 001E                                           _ADRESL 009E  
                                         _ANSELH 0189                                 LCD_String_xy@msg 0076  
                               LCD_String_xy@pos 0075                                 LCD_String_xy@row 0078  
                                         _OSCCON 008F                                 __end_of___xxtofl 1800  
                                         ___flge 15FB                                           ___fleq 14DB  
                                      ??___fladd 0061                                        ??___fldiv 0047  
                                      ??___flmul 002D                                        ??___fltol 0074  
                                      ??___lwdiv 0074                                        ??___lwmod 007B  
                                         _buffer 0190                                           _estado 006F  
                               __end_of_password 0843                                  _var_sensor_hall 00E2  
        function_monitoreo_ambiental@tempcelsius 00D1                                        ??_sprintf 0027  
                                      ??_strncmp 0073                                  _value_fotocelda 00DA  
                                     ___flge@ff1 0070                                       ___flge@ff2 0074  
                                   ___xxtofl@arg 007A                                     ___xxtofl@exp 0079  
                                   ___xxtofl@val 0070                                       ___fleq@ff1 0070  
                                     ___fleq@ff2 0074                                 __end_oflog@coeff 083E  
                                      ?_LCD_Char 0070                          __end_of__initialization 07FC  
                                      ?_LCD_Init 0070                                  ??_LCD_String_xy 0078  
                                   eval_poly@res 00AC                                       ___fltol@f1 0070  
                          function_seguridad@key 007D                                   __pcstackCOMMON 0070  
                                   __pidataBANK3 11F9                                    __end_of_frexp 1585  
                                   ??_LCD_String 0075                                   _OPTION_REGbits 0081  
                                        ??_frexp 007C                                       __pbssBANK0 006F  
                                     __pbssBANK1 00D8                                       __pbssBANK3 0190  
                                     ??_LCD_Char 0070                                       ??_LCD_Init 0073  
                             __end_of_LCD_String 129D                      ??_function_alarma_ambiental 007A  
                              __end_of__Umul8_16 12EA                                       __pmaintext 0B5B  
                                        ?___flge 0070                                          ?___fleq 0070  
                          _convertir_temperature 0E75                                __end_of_adc_begin 000F  
                                  _keypad_getkey 0A79                                        ?___xxtofl 0070  
                                 _adc_conversion 1233                                       __stringtab 0800  
                              __end_of_blink_led 1277                                    LCD_String@msg 0073  
                              _monitoring_sensor 121C                      ??_function_alarma_seguridad 007A  
                             ?_monitoring_sensor 0070                                          ___fladd 023F  
                     convertir_temperature@tempC 00C8                                          ___fldiv 0070  
                                        ___flmul 0497                                          ___fltol 1585  
                                        ___lwdiv 1451                                          ___lwmod 1417  
                              __end_of_eval_poly 0A79                                          __ptext1 11DA  
                                        __ptext2 169D                                          __ptext3 1495  
                                        __ptext4 0A79                                          __ptext5 000F  
                                        __ptext6 121C                                          __ptext7 08D8  
                                        __ptext8 0C3D                                          __ptext9 1417  
                            ??_monitoring_sensor 0070                                   ?_keypad_getkey 0070  
                      _function_alarma_ambiental 1314                                          _dpowers 0810  
                                     ??___xxtofl 0074                           __end_of_adc_conversion 1254  
                                      _LCD_Clear 11E9                                          _sprintf 0C3D  
                                        clrloop0 08D1                                          _strncmp 1495  
                           end_of_initialization 07FC                                   LCD_Command@cmd 0072  
                   monitoring_sensor@alarm_activ 0070                        __end_of_monitoring_sensor 1233  
                               _var_sensor_metal 00E1                     ??_function_monitoreo_digital 0033  
                         ?_convertir_temperature 00B4                                      ___fladd@grs 006C  
                      _function_alarma_seguridad 1346                                    ___xxtofl@sign 0078  
                                ?_adc_conversion 0070                                       ?_LCD_Clear 0070  
                                    ___fldiv@grs 0053                                      ___fldiv@rem 004C  
                                    ___flmul@grs 0034                              _value_potenciometro 00DE  
                                  ??_LCD_Command 0070                                   __end_of___flge 169D  
                                 __end_of___fleq 1529                                  ??_keypad_getkey 0070  
                             keypad_getkey@F1268 01A1                              start_initialization 07DC  
                                     eval_poly@d 00A4                                       eval_poly@n 00A5  
                                     eval_poly@x 00A0                                      __end_of_log 0E75  
                                     frexp@value 0020                               keypad_getkey@valor 0030  
                          __end_of_LCD_String_xy 12C3                                         ??___flge 0078  
                                       ??___fleq 0078                                       init_fetch0 1209  
                                      __Umul8_16 12C3                                      __pdataBANK3 01A1  
                                      ___fladd@a 005D                                        ___fladd@b 0059  
                                      ___fldiv@a 003F                                        ___fldiv@b 0043  
                            __end_of_LCD_Command 13E1                                        ___flmul@a 0029  
                                      ___flmul@b 0025                                        ___latbits 0002  
                                  __pcstackBANK0 0020                                    __pcstackBANK1 00A0  
                                      _adc_begin 0003                                      ??_LCD_Clear 0073  
                                  ??_keypad_init 0070             __end_of_function_monitoreo_ambiental 099F  
                   _function_monitoreo_ambiental 08D8                                      sprintf@ccnt 002C  
                                    sprintf@flag 002B                                      sprintf@prec 002E  
                         convertir_temperature@a 00B8                                 ___lwdiv@dividend 0072  
                     __end_of_function_bloqueado 13AB               __end_of_function_monitoreo_digital 0070  
                     _function_monitoreo_digital 000F                 convertir_temperature@temperature 00B4  
                                      _blink_led 1254                                         ?___fladd 0059  
                                       ?___fldiv 003F                                         ?___flmul 0025  
                                       ?___fltol 0070                                       ?__Umul8_16 0070  
                                       ?___lwdiv 0070                                         ?___lwmod 0077  
                                      __pstrings 0800                                        _eval_poly 099F  
  function_monitoreo_ambiental@value_temperature 00D3                                       ?_adc_begin 0070  
                               ___lwdiv@quotient 0074                            LCD_String_xy@location 0079  
                                       ?_sprintf 0020                                         ?_strncmp 0070  
                     __end_of_function_seguridad 1748                                         _LCD_Char 13E1  
                                       _LCD_Init 12EA                __end_of_function_alarma_ambiental 1346  
                                      _pass_user 00E5                              __end_of_keypad_init 11E9  
                  ?_function_monitoreo_ambiental 0070                                        clear_ram0 08D0  
                        ??_convertir_temperature 00B6                                       ?_blink_led 0070  
                                    _LCD_Command 13AB                                       _ADCON0bits 001F  
                               ??_adc_conversion 0072                                      __stringbase 080F  
                                     _ADCON1bits 009F                                       ?_eval_poly 00A0  
                                      frexp@eptr 0024                __end_of_function_alarma_seguridad 1378  
                                  _var_sensor_ir 00E3                                      ??__Umul8_16 0072  
                     _convertir_temperature$1043 00BC                       _convertir_temperature$1044 00C0  
                     _convertir_temperature$1045 00C4                               __end_of__stringtab 0810  
                                     sprintf@val 002F                                         ___xxtofl 1748  
                                    ??_adc_begin 0070                                  ___lwdiv@divisor 0070  
                                ___lwdiv@counter 0076                                         __ptext10 1451  
                                       __ptext11 0E75                                         __ptext20 15FB  
                                       __ptext12 0D2F                                         __ptext21 1585  
                                       __ptext13 1529                                         __ptext30 13E1  
                                       __ptext22 0070                                         __ptext14 14DB  
                                       __ptext31 11E9                                         __ptext23 1233  
                                       __ptext15 099F                                         __ptext32 0003  
                                       __ptext24 1378                                         __ptext16 0497  
                                       __ptext33 12EA                                         __ptext25 1346  
                                       __ptext17 12C3                                         __ptext34 13AB  
                                       __ptext26 1314                                         __ptext18 023F  
                                       __ptext27 1254                                         __ptext19 1748  
                                       __ptext28 129D                                         __ptext29 1277  
                                    _keypad_init 11DA                                       strncmp@len 0071  
                                       _intentos 00E0                                         _password 083E  
                                    ??_blink_led 0070                   ??_function_monitoreo_ambiental 00CC  
                                     _LCD_String 1277                            __end_of_keypad_getkey 0B5B  
                                       log@coeff 081A                                      ??_eval_poly 00A7  
                                       init_ram0 120D                                        sprintf@ap 002A  
                                      sprintf@sp 0031                                 ___lwmod@dividend 0079  
                                      strncmp@s1 0075                                        strncmp@s2 0070  
                                      stringcode 080A                      ?_function_monitoreo_digital 0070  
                         __Umul8_16@multiplicand 0070                                         sprintf@c 0032  
                                       sprintf@f 0020                               _function_bloqueado 1378  
                                ___lwmod@divisor 0077                                  ___lwmod@counter 007B  
                                       stringdir 080A                                         stringtab 0800  
                            ?_function_bloqueado 0070                                   keypad_getkey@i 0031  
                                  ___fladd@signs 0069                            adc_conversion@channel 0070  
                                   ___fladd@aexp 006A                                     ___fladd@bexp 006B  
                           __Umul8_16@multiplier 0078                                __Umul8_16@product 0074  
